
00010074 <register_fini>:
    10074:        ffff0797        auipc x15 0xffff0
    10078:        f8c78793        addi x15 x15 -116
    1007c:        00078863        beq x15 x0 16
    10080:        00000517        auipc x10 0x0
    10084:        13c50513        addi x10 x10 316
    10088:        0ec0006f        jal x0 236 <atexit>
    1008c:        00008067        jalr x0 x1 0

00010090 <_start>:
    10090:        00015197        auipc x3 0x15
    10094:        7c018193        addi x3 x3 1984
    10098:        1cc18513        addi x10 x3 460
    1009c:        22818613        addi x12 x3 552
    100a0:        40a60633        sub x12 x12 x10
    100a4:        00000593        addi x11 x0 0
    100a8:        208000ef        jal x1 520 <memset>
    100ac:        00000517        auipc x10 0x0
    100b0:        11050513        addi x10 x10 272
    100b4:        0c0000ef        jal x1 192 <atexit>
    100b8:        164000ef        jal x1 356 <__libc_init_array>
    100bc:        00012503        lw x10 0 x2
    100c0:        00410593        addi x11 x2 4
    100c4:        00000613        addi x12 x0 0
    100c8:        07c000ef        jal x1 124 <main>
    100cc:        0bc0006f        jal x0 188 <exit>

000100d0 <__do_global_dtors_aux>:
    100d0:        1e01c783        lbu x15 480 x3
    100d4:        04079463        bne x15 x0 72
    100d8:        ffff0797        auipc x15 0xffff0
    100dc:        f2878793        addi x15 x15 -216
    100e0:        02078863        beq x15 x0 48
    100e4:        ff010113        addi x2 x2 -16
    100e8:        00015517        auipc x10 0x15
    100ec:        f1850513        addi x10 x10 -232
    100f0:        00112623        sw x1 12 x2
    100f4:        00000097        auipc x1 0x0
    100f8:        000000e7        jalr x1 x0 0
    100fc:        00c12083        lw x1 12 x2
    10100:        00100793        addi x15 x0 1
    10104:        1ef18023        sb x15 480 x3
    10108:        01010113        addi x2 x2 16
    1010c:        00008067        jalr x0 x1 0
    10110:        00100793        addi x15 x0 1
    10114:        1ef18023        sb x15 480 x3
    10118:        00008067        jalr x0 x1 0
    1011c:        00008067        jalr x0 x1 0

00010120 <frame_dummy>:
    10120:        ffff0797        auipc x15 0xffff0
    10124:        ee078793        addi x15 x15 -288
    10128:        00078c63        beq x15 x0 24
    1012c:        1e418593        addi x11 x3 484
    10130:        00015517        auipc x10 0x15
    10134:        ed050513        addi x10 x10 -304
    10138:        00000317        auipc x6 0x0
    1013c:        00000067        jalr x0 x0 0
    10140:        00008067        jalr x0 x1 0

00010144 <main>:
    10144:        ff010113        addi x2 x2 -16
    10148:        00112623        sw x1 12 x2
    1014c:        00812423        sw x8 8 x2
    10150:        01010413        addi x8 x2 16
    10154:        000247b7        lui x15 0x24
    10158:        ee878513        addi x10 x15 -280
    1015c:        274000ef        jal x1 628 <printf>
    10160:        00000013        addi x0 x0 0
    10164:        00c12083        lw x1 12 x2
    10168:        00812403        lw x8 8 x2
    1016c:        01010113        addi x2 x2 16
    10170:        00008067        jalr x0 x1 0

00010174 <atexit>:
    10174:        00050593        addi x11 x10 0
    10178:        00000693        addi x13 x0 0
    1017c:        00000613        addi x12 x0 0
    10180:        00000513        addi x10 x0 0
    10184:        0000306f        jal x0 12288 <__register_exitproc>

00010188 <exit>:
    10188:        ff010113        addi x2 x2 -16
    1018c:        00000593        addi x11 x0 0
    10190:        00812423        sw x8 8 x2
    10194:        00112623        sw x1 12 x2
    10198:        00050413        addi x8 x10 0
    1019c:        084030ef        jal x1 12420 <__call_exitprocs>
    101a0:        1b818793        addi x15 x3 440
    101a4:        0007a503        lw x10 0 x15
    101a8:        03c52783        lw x15 60 x10
    101ac:        00078463        beq x15 x0 8
    101b0:        000780e7        jalr x1 x15 0
    101b4:        00040513        addi x10 x8 0
    101b8:        44c0f0ef        jal x1 62540 <_exit>

000101bc <__libc_fini_array>:
    101bc:        ff010113        addi x2 x2 -16
    101c0:        00812423        sw x8 8 x2
    101c4:        00015797        auipc x15 0x15
    101c8:        e8478793        addi x15 x15 -380
    101cc:        00015417        auipc x8 0x15
    101d0:        e8040413        addi x8 x8 -384
    101d4:        40f40433        sub x8 x8 x15
    101d8:        00112623        sw x1 12 x2
    101dc:        00912223        sw x9 4 x2
    101e0:        40245413        srai x8 x8 2
    101e4:        02040263        beq x8 x0 36
    101e8:        00241493        slli x9 x8 2
    101ec:        ffc48493        addi x9 x9 -4
    101f0:        00f484b3        add x9 x9 x15
    101f4:        0004a783        lw x15 0 x9
    101f8:        fff40413        addi x8 x8 -1
    101fc:        ffc48493        addi x9 x9 -4
    10200:        000780e7        jalr x1 x15 0
    10204:        fe0418e3        bne x8 x0 -16
    10208:        00c12083        lw x1 12 x2
    1020c:        00812403        lw x8 8 x2
    10210:        00412483        lw x9 4 x2
    10214:        01010113        addi x2 x2 16
    10218:        00008067        jalr x0 x1 0

0001021c <__libc_init_array>:
    1021c:        ff010113        addi x2 x2 -16
    10220:        00812423        sw x8 8 x2
    10224:        01212023        sw x18 0 x2
    10228:        00015417        auipc x8 0x15
    1022c:        e1840413        addi x8 x8 -488
    10230:        00015917        auipc x18 0x15
    10234:        e1090913        addi x18 x18 -496
    10238:        40890933        sub x18 x18 x8
    1023c:        00112623        sw x1 12 x2
    10240:        00912223        sw x9 4 x2
    10244:        40295913        srai x18 x18 2
    10248:        00090e63        beq x18 x0 28
    1024c:        00000493        addi x9 x0 0
    10250:        00042783        lw x15 0 x8
    10254:        00148493        addi x9 x9 1
    10258:        00440413        addi x8 x8 4
    1025c:        000780e7        jalr x1 x15 0
    10260:        fe9918e3        bne x18 x9 -16
    10264:        00015417        auipc x8 0x15
    10268:        ddc40413        addi x8 x8 -548
    1026c:        00015917        auipc x18 0x15
    10270:        ddc90913        addi x18 x18 -548
    10274:        40890933        sub x18 x18 x8
    10278:        40295913        srai x18 x18 2
    1027c:        00090e63        beq x18 x0 28
    10280:        00000493        addi x9 x0 0
    10284:        00042783        lw x15 0 x8
    10288:        00148493        addi x9 x9 1
    1028c:        00440413        addi x8 x8 4
    10290:        000780e7        jalr x1 x15 0
    10294:        fe9918e3        bne x18 x9 -16
    10298:        00c12083        lw x1 12 x2
    1029c:        00812403        lw x8 8 x2
    102a0:        00412483        lw x9 4 x2
    102a4:        00012903        lw x18 0 x2
    102a8:        01010113        addi x2 x2 16
    102ac:        00008067        jalr x0 x1 0

000102b0 <memset>:
    102b0:        00f00313        addi x6 x0 15
    102b4:        00050713        addi x14 x10 0
    102b8:        02c37e63        bgeu x6 x12 60
    102bc:        00f77793        andi x15 x14 15
    102c0:        0a079063        bne x15 x0 160
    102c4:        08059263        bne x11 x0 132
    102c8:        ff067693        andi x13 x12 -16
    102cc:        00f67613        andi x12 x12 15
    102d0:        00e686b3        add x13 x13 x14
    102d4:        00b72023        sw x11 0 x14
    102d8:        00b72223        sw x11 4 x14
    102dc:        00b72423        sw x11 8 x14
    102e0:        00b72623        sw x11 12 x14
    102e4:        01070713        addi x14 x14 16
    102e8:        fed766e3        bltu x14 x13 -20
    102ec:        00061463        bne x12 x0 8
    102f0:        00008067        jalr x0 x1 0
    102f4:        40c306b3        sub x13 x6 x12
    102f8:        00269693        slli x13 x13 2
    102fc:        00000297        auipc x5 0x0
    10300:        005686b3        add x13 x13 x5
    10304:        00c68067        jalr x0 x13 12
    10308:        00b70723        sb x11 14 x14
    1030c:        00b706a3        sb x11 13 x14
    10310:        00b70623        sb x11 12 x14
    10314:        00b705a3        sb x11 11 x14
    10318:        00b70523        sb x11 10 x14
    1031c:        00b704a3        sb x11 9 x14
    10320:        00b70423        sb x11 8 x14
    10324:        00b703a3        sb x11 7 x14
    10328:        00b70323        sb x11 6 x14
    1032c:        00b702a3        sb x11 5 x14
    10330:        00b70223        sb x11 4 x14
    10334:        00b701a3        sb x11 3 x14
    10338:        00b70123        sb x11 2 x14
    1033c:        00b700a3        sb x11 1 x14
    10340:        00b70023        sb x11 0 x14
    10344:        00008067        jalr x0 x1 0
    10348:        0ff5f593        andi x11 x11 255
    1034c:        00859693        slli x13 x11 8
    10350:        00d5e5b3        or x11 x11 x13
    10354:        01059693        slli x13 x11 16
    10358:        00d5e5b3        or x11 x11 x13
    1035c:        f6dff06f        jal x0 -148
    10360:        00279693        slli x13 x15 2
    10364:        00000297        auipc x5 0x0
    10368:        005686b3        add x13 x13 x5
    1036c:        00008293        addi x5 x1 0
    10370:        fa0680e7        jalr x1 x13 -96
    10374:        00028093        addi x1 x5 0
    10378:        ff078793        addi x15 x15 -16
    1037c:        40f70733        sub x14 x14 x15
    10380:        00f60633        add x12 x12 x15
    10384:        f6c378e3        bgeu x6 x12 -144
    10388:        f3dff06f        jal x0 -196

0001038c <_printf_r>:
    1038c:        fc010113        addi x2 x2 -64
    10390:        02c12423        sw x12 40 x2
    10394:        02d12623        sw x13 44 x2
    10398:        02f12a23        sw x15 52 x2
    1039c:        02e12823        sw x14 48 x2
    103a0:        03012c23        sw x16 56 x2
    103a4:        03112e23        sw x17 60 x2
    103a8:        00058613        addi x12 x11 0
    103ac:        00852583        lw x11 8 x10
    103b0:        02810793        addi x15 x2 40
    103b4:        00078693        addi x13 x15 0
    103b8:        00112e23        sw x1 28 x2
    103bc:        00f12623        sw x15 12 x2
    103c0:        064000ef        jal x1 100 <_vfprintf_r>
    103c4:        01c12083        lw x1 28 x2
    103c8:        04010113        addi x2 x2 64
    103cc:        00008067        jalr x0 x1 0

000103d0 <printf>:
    103d0:        1c018313        addi x6 x3 448
    103d4:        00032303        lw x6 0 x6
    103d8:        fc010113        addi x2 x2 -64
    103dc:        02c12423        sw x12 40 x2
    103e0:        02d12623        sw x13 44 x2
    103e4:        02f12a23        sw x15 52 x2
    103e8:        02b12223        sw x11 36 x2
    103ec:        02e12823        sw x14 48 x2
    103f0:        03012c23        sw x16 56 x2
    103f4:        03112e23        sw x17 60 x2
    103f8:        00832583        lw x11 8 x6
    103fc:        02410793        addi x15 x2 36
    10400:        00050613        addi x12 x10 0
    10404:        00078693        addi x13 x15 0
    10408:        00030513        addi x10 x6 0
    1040c:        00112e23        sw x1 28 x2
    10410:        00f12623        sw x15 12 x2
    10414:        010000ef        jal x1 16 <_vfprintf_r>
    10418:        01c12083        lw x1 28 x2
    1041c:        04010113        addi x2 x2 64
    10420:        00008067        jalr x0 x1 0

00010424 <_vfprintf_r>:
    10424:        e1010113        addi x2 x2 -496
    10428:        1e112623        sw x1 492 x2
    1042c:        1e812423        sw x8 488 x2
    10430:        1d812423        sw x24 456 x2
    10434:        00b12223        sw x11 4 x2
    10438:        00060c13        addi x24 x12 0
    1043c:        00d12623        sw x13 12 x2
    10440:        1e912223        sw x9 484 x2
    10444:        1f212023        sw x18 480 x2
    10448:        1d312e23        sw x19 476 x2
    1044c:        1d412c23        sw x20 472 x2
    10450:        1d512a23        sw x21 468 x2
    10454:        1d612823        sw x22 464 x2
    10458:        1d712623        sw x23 460 x2
    1045c:        1d912223        sw x25 452 x2
    10460:        1da12023        sw x26 448 x2
    10464:        1bb12e23        sw x27 444 x2
    10468:        00050413        addi x8 x10 0
    1046c:        00a12e23        sw x10 28 x2
    10470:        5dc060ef        jal x1 26076 <_localeconv_r>
    10474:        00052783        lw x15 0 x10
    10478:        00078513        addi x10 x15 0
    1047c:        02f12823        sw x15 48 x2
    10480:        704080ef        jal x1 34564 <strlen>
    10484:        02a12423        sw x10 40 x2
    10488:        0e012823        sw x0 240 x2
    1048c:        0e012a23        sw x0 244 x2
    10490:        0e012c23        sw x0 248 x2
    10494:        0e012e23        sw x0 252 x2
    10498:        00040663        beq x8 x0 12
    1049c:        03842783        lw x15 56 x8
    104a0:        540784e3        beq x15 x0 3400
    104a4:        00412603        lw x12 4 x2
    104a8:        00c61703        lh x14 12 x12
    104ac:        01071793        slli x15 x14 16
    104b0:        0107d793        srli x15 x15 16
    104b4:        01279693        slli x13 x15 18
    104b8:        0206c663        blt x13 x0 44
    104bc:        06462683        lw x13 100 x12
    104c0:        000027b7        lui x15 0x2
    104c4:        00f767b3        or x15 x14 x15
    104c8:        ffffe737        lui x14 0xffffe
    104cc:        fff70713        addi x14 x14 -1
    104d0:        00e6f733        and x14 x13 x14
    104d4:        00f61623        sh x15 12 x12
    104d8:        01079793        slli x15 x15 16
    104dc:        06e62223        sw x14 100 x12
    104e0:        0107d793        srli x15 x15 16
    104e4:        0087f713        andi x14 x15 8
    104e8:        16070863        beq x14 x0 368
    104ec:        00412703        lw x14 4 x2
    104f0:        01072703        lw x14 16 x14
    104f4:        16070263        beq x14 x0 356
    104f8:        01a7f793        andi x15 x15 26
    104fc:        00a00713        addi x14 x0 10
    10500:        18e78063        beq x15 x14 384
    10504:        000c0c93        addi x25 x24 0
    10508:        000cc703        lbu x14 0 x25
    1050c:        10c10793        addi x15 x2 268
    10510:        0ef12223        sw x15 228 x2
    10514:        0e012623        sw x0 236 x2
    10518:        0e012423        sw x0 232 x2
    1051c:        00012c23        sw x0 24 x2
    10520:        02012623        sw x0 44 x2
    10524:        02012c23        sw x0 56 x2
    10528:        02012e23        sw x0 60 x2
    1052c:        04012023        sw x0 64 x2
    10530:        04012223        sw x0 68 x2
    10534:        00012423        sw x0 8 x2
    10538:        01000b93        addi x23 x0 16
    1053c:        00078d13        addi x26 x15 0
    10540:        01c12a03        lw x20 28 x2
    10544:        3e070e63        beq x14 x0 1020
    10548:        02500693        addi x13 x0 37
    1054c:        00d71463        bne x14 x13 8
    10550:        77c0106f        jal x0 6012
    10554:        000c8413        addi x8 x25 0
    10558:        00c0006f        jal x0 12
    1055c:        14d78663        beq x15 x13 332
    10560:        00090413        addi x8 x18 0
    10564:        00144783        lbu x15 1 x8
    10568:        00140913        addi x18 x8 1
    1056c:        fe0798e3        bne x15 x0 -16
    10570:        419904b3        sub x9 x18 x25
    10574:        3c048663        beq x9 x0 972
    10578:        0ec12683        lw x13 236 x2
    1057c:        0e812703        lw x14 232 x2
    10580:        019d2023        sw x25 0 x26
    10584:        009686b3        add x13 x13 x9
    10588:        00170713        addi x14 x14 1
    1058c:        009d2223        sw x9 4 x26
    10590:        0ed12623        sw x13 236 x2
    10594:        0ee12423        sw x14 232 x2
    10598:        00700693        addi x13 x0 7
    1059c:        008d0d13        addi x26 x26 8
    105a0:        10e6ca63        blt x13 x14 276
    105a4:        00812783        lw x15 8 x2
    105a8:        00144703        lbu x14 1 x8
    105ac:        009787b3        add x15 x15 x9
    105b0:        00f12423        sw x15 8 x2
    105b4:        38070663        beq x14 x0 908
    105b8:        fff00313        addi x6 x0 -1
    105bc:        00190493        addi x9 x18 1
    105c0:        00194e03        lbu x28 1 x18
    105c4:        0c0103a3        sb x0 199 x2
    105c8:        00000413        addi x8 x0 0
    105cc:        00000913        addi x18 x0 0
    105d0:        00900993        addi x19 x0 9
    105d4:        02a00b13        addi x22 x0 42
    105d8:        00030c13        addi x24 x6 0
    105dc:        00148493        addi x9 x9 1
    105e0:        000e0a93        addi x21 x28 0
    105e4:        05a00713        addi x14 x0 90
    105e8:        fe0a8793        addi x15 x21 -32
    105ec:        24f76063        bltu x14 x15 576
    105f0:        00014697        auipc x13 0x14
    105f4:        90468693        addi x13 x13 -1788
    105f8:        00279793        slli x15 x15 2
    105fc:        00d787b3        add x15 x15 x13
    10600:        0007a783        lw x15 0 x15
    10604:        00d787b3        add x15 x15 x13
    10608:        00078067        jalr x0 x15 0
    1060c:        000a0513        addi x10 x20 0
    10610:        43c060ef        jal x1 25660 <_localeconv_r>
    10614:        00452783        lw x15 4 x10
    10618:        00078513        addi x10 x15 0
    1061c:        04f12223        sw x15 68 x2
    10620:        564080ef        jal x1 34148 <strlen>
    10624:        04a12023        sw x10 64 x2
    10628:        00050a93        addi x21 x10 0
    1062c:        000a0513        addi x10 x20 0
    10630:        41c060ef        jal x1 25628 <_localeconv_r>
    10634:        00852783        lw x15 8 x10
    10638:        02f12e23        sw x15 60 x2
    1063c:        000a8463        beq x21 x0 8
    10640:        52c0106f        jal x0 5420
    10644:        0004ce03        lbu x28 0 x9
    10648:        f95ff06f        jal x0 -108
    1064c:        02096913        ori x18 x18 32
    10650:        0004ce03        lbu x28 0 x9
    10654:        f89ff06f        jal x0 -120
    10658:        00412583        lw x11 4 x2
    1065c:        01c12503        lw x10 28 x2
    10660:        1bd020ef        jal x1 10684 <__swsetup_r>
    10664:        00050463        beq x10 x0 8
    10668:        4640206f        jal x0 9316
    1066c:        00412783        lw x15 4 x2
    10670:        00a00713        addi x14 x0 10
    10674:        00c7d783        lhu x15 12 x15
    10678:        01a7f793        andi x15 x15 26
    1067c:        e8e794e3        bne x15 x14 -376
    10680:        00412783        lw x15 4 x2
    10684:        00e79783        lh x15 14 x15
    10688:        e607cee3        blt x15 x0 -388
    1068c:        00c12683        lw x13 12 x2
    10690:        00412583        lw x11 4 x2
    10694:        01c12503        lw x10 28 x2
    10698:        000c0613        addi x12 x24 0
    1069c:        0c1020ef        jal x1 10432 <__sbprintf>
    106a0:        00a12423        sw x10 8 x2
    106a4:        0680006f        jal x0 104
    106a8:        419904b3        sub x9 x18 x25
    106ac:        f00486e3        beq x9 x0 -244
    106b0:        ec9ff06f        jal x0 -312
    106b4:        00412583        lw x11 4 x2
    106b8:        0e410613        addi x12 x2 228
    106bc:        000a0513        addi x10 x20 0
    106c0:        1d80b0ef        jal x1 45528 <__sprint_r>
    106c4:        02051a63        bne x10 x0 52
    106c8:        10c10d13        addi x26 x2 268
    106cc:        ed9ff06f        jal x0 -296
    106d0:        00412583        lw x11 4 x2
    106d4:        0e410613        addi x12 x2 228
    106d8:        000a0513        addi x10 x20 0
    106dc:        1bc0b0ef        jal x1 45500 <__sprint_r>
    106e0:        54050263        beq x10 x0 1348
    106e4:        01012783        lw x15 16 x2
    106e8:        00078863        beq x15 x0 16
    106ec:        01c12503        lw x10 28 x2
    106f0:        00078593        addi x11 x15 0
    106f4:        3c0030ef        jal x1 13248 <_free_r>
    106f8:        00412783        lw x15 4 x2
    106fc:        00c7d783        lhu x15 12 x15
    10700:        0407f793        andi x15 x15 64
    10704:        00078463        beq x15 x0 8
    10708:        3c40206f        jal x0 9156
    1070c:        1ec12083        lw x1 492 x2
    10710:        1e812403        lw x8 488 x2
    10714:        00812503        lw x10 8 x2
    10718:        1e412483        lw x9 484 x2
    1071c:        1e012903        lw x18 480 x2
    10720:        1dc12983        lw x19 476 x2
    10724:        1d812a03        lw x20 472 x2
    10728:        1d412a83        lw x21 468 x2
    1072c:        1d012b03        lw x22 464 x2
    10730:        1cc12b83        lw x23 460 x2
    10734:        1c812c03        lw x24 456 x2
    10738:        1c412c83        lw x25 452 x2
    1073c:        1c012d03        lw x26 448 x2
    10740:        1bc12d83        lw x27 444 x2
    10744:        1f010113        addi x2 x2 496
    10748:        00008067        jalr x0 x1 0
    1074c:        00014797        auipc x15 0x14
    10750:        94478793        addi x15 x15 -1724
    10754:        02f12623        sw x15 44 x2
    10758:        02097793        andi x15 x18 32
    1075c:        000c0313        addi x6 x24 0
    10760:        10078063        beq x15 x0 256
    10764:        00c12783        lw x15 12 x2
    10768:        00778793        addi x15 x15 7
    1076c:        ff87f793        andi x15 x15 -8
    10770:        0007ac03        lw x24 0 x15
    10774:        0047ad83        lw x27 4 x15
    10778:        00878713        addi x14 x15 8
    1077c:        00e12623        sw x14 12 x2
    10780:        00197793        andi x15 x18 1
    10784:        00078863        beq x15 x0 16
    10788:        01bc67b3        or x15 x24 x27
    1078c:        00078463        beq x15 x0 8
    10790:        3a00106f        jal x0 5024
    10794:        bff97993        andi x19 x18 -1025
    10798:        00200793        addi x15 x0 2
    1079c:        0c0103a3        sb x0 199 x2
    107a0:        fff00713        addi x14 x0 -1
    107a4:        0ae30ce3        beq x6 x14 2232
    107a8:        01bc6733        or x14 x24 x27
    107ac:        f7f9f913        andi x18 x19 -129
    107b0:        00070463        beq x14 x0 8
    107b4:        7d90006f        jal x0 4056
    107b8:        2c031ee3        bne x6 x0 2780
    107bc:        22079a63        bne x15 x0 564
    107c0:        0019fb13        andi x22 x19 1
    107c4:        1b010c93        addi x25 x2 432
    107c8:        000b0463        beq x22 x0 8
    107cc:        3100106f        jal x0 4880
    107d0:        000b0993        addi x19 x22 0
    107d4:        006b5463        bge x22 x6 8
    107d8:        00030993        addi x19 x6 0
    107dc:        0c714703        lbu x14 199 x2
    107e0:        00012823        sw x0 16 x2
    107e4:        02012223        sw x0 36 x2
    107e8:        02012023        sw x0 32 x2
    107ec:        00012a23        sw x0 20 x2
    107f0:        34070063        beq x14 x0 832
    107f4:        00198993        addi x19 x19 1
    107f8:        3380006f        jal x0 824
    107fc:        00000413        addi x8 x0 0
    10800:        fd0a8693        addi x13 x21 -48
    10804:        00148493        addi x9 x9 1
    10808:        00241793        slli x15 x8 2
    1080c:        fff4ca83        lbu x21 -1 x9
    10810:        008787b3        add x15 x15 x8
    10814:        00179793        slli x15 x15 1
    10818:        00f68433        add x8 x13 x15
    1081c:        fd0a8693        addi x13 x21 -48
    10820:        fed9f2e3        bgeu x19 x13 -28
    10824:        fe0a8793        addi x15 x21 -32
    10828:        dcf774e3        bgeu x14 x15 -568
    1082c:        100a8a63        beq x21 x0 276
    10830:        15510623        sb x21 332 x2
    10834:        0c0103a3        sb x0 199 x2
    10838:        00100993        addi x19 x0 1
    1083c:        00100b13        addi x22 x0 1
    10840:        14c10c93        addi x25 x2 332
    10844:        2d80006f        jal x0 728
    10848:        00014797        auipc x15 0x14
    1084c:        85c78793        addi x15 x15 -1956
    10850:        02f12623        sw x15 44 x2
    10854:        02097793        andi x15 x18 32
    10858:        000c0313        addi x6 x24 0
    1085c:        f00794e3        bne x15 x0 -248
    10860:        00c12703        lw x14 12 x2
    10864:        01097793        andi x15 x18 16
    10868:        00072c03        lw x24 0 x14
    1086c:        00470713        addi x14 x14 4
    10870:        00e12623        sw x14 12 x2
    10874:        00078463        beq x15 x0 8
    10878:        27c0106f        jal x0 4732
    1087c:        04097793        andi x15 x18 64
    10880:        00079463        bne x15 x0 8
    10884:        2680106f        jal x0 4712
    10888:        010c1c13        slli x24 x24 16
    1088c:        010c5c13        srli x24 x24 16
    10890:        00000d93        addi x27 x0 0
    10894:        eedff06f        jal x0 -276
    10898:        0004ce03        lbu x28 0 x9
    1089c:        00496913        ori x18 x18 4
    108a0:        d3dff06f        jal x0 -708
    108a4:        0004ca83        lbu x21 0 x9
    108a8:        00148793        addi x15 x9 1
    108ac:        016a9463        bne x21 x22 8
    108b0:        6380206f        jal x0 9784
    108b4:        fd0a8693        addi x13 x21 -48
    108b8:        00078493        addi x9 x15 0
    108bc:        00000c13        addi x24 x0 0
    108c0:        d2d9e4e3        bltu x19 x13 -728
    108c4:        00148493        addi x9 x9 1
    108c8:        002c1793        slli x15 x24 2
    108cc:        fff4ca83        lbu x21 -1 x9
    108d0:        018787b3        add x15 x15 x24
    108d4:        00179793        slli x15 x15 1
    108d8:        00d78c33        add x24 x15 x13
    108dc:        fd0a8693        addi x13 x21 -48
    108e0:        fed9f2e3        bgeu x19 x13 -28
    108e4:        d05ff06f        jal x0 -764
    108e8:        00c12683        lw x13 12 x2
    108ec:        02097793        andi x15 x18 32
    108f0:        00468713        addi x14 x13 4
    108f4:        00078463        beq x15 x0 8
    108f8:        2540106f        jal x0 4692
    108fc:        01097793        andi x15 x18 16
    10900:        00078463        beq x15 x0 8
    10904:        6540106f        jal x0 5716
    10908:        04097793        andi x15 x18 64
    1090c:        00078463        beq x15 x0 8
    10910:        2410106f        jal x0 6720
    10914:        20097913        andi x18 x18 512
    10918:        00091463        bne x18 x0 8
    1091c:        63c0106f        jal x0 5692
    10920:        00c12783        lw x15 12 x2
    10924:        00e12623        sw x14 12 x2
    10928:        00812703        lw x14 8 x2
    1092c:        0007a783        lw x15 0 x15
    10930:        00048c93        addi x25 x9 0
    10934:        00e78023        sb x14 0 x15
    10938:        000cc703        lbu x14 0 x25
    1093c:        c00716e3        bne x14 x0 -1012
    10940:        0ec12783        lw x15 236 x2
    10944:        da078ae3        beq x15 x0 -588
    10948:        00412583        lw x11 4 x2
    1094c:        01c12503        lw x10 28 x2
    10950:        0e410613        addi x12 x2 228
    10954:        7450a0ef        jal x1 44868 <__sprint_r>
    10958:        da1ff06f        jal x0 -608
    1095c:        0004ce03        lbu x28 0 x9
    10960:        06c00793        addi x15 x0 108
    10964:        00fe1463        bne x28 x15 8
    10968:        2c80106f        jal x0 4808
    1096c:        01096913        ori x18 x18 16
    10970:        c6dff06f        jal x0 -916
    10974:        0004ce03        lbu x28 0 x9
    10978:        06800793        addi x15 x0 104
    1097c:        00fe1463        bne x28 x15 8
    10980:        2a00106f        jal x0 4768
    10984:        04096913        ori x18 x18 64
    10988:        c55ff06f        jal x0 -940
    1098c:        02097793        andi x15 x18 32
    10990:        000c0313        addi x6 x24 0
    10994:        060790e3        bne x15 x0 2144
    10998:        00c12783        lw x15 12 x2
    1099c:        01097713        andi x14 x18 16
    109a0:        00478793        addi x15 x15 4
    109a4:        00070463        beq x14 x0 8
    109a8:        58c0206f        jal x0 9612
    109ac:        04097713        andi x14 x18 64
    109b0:        00071463        bne x14 x0 8
    109b4:        6740106f        jal x0 5748
    109b8:        00c12703        lw x14 12 x2
    109bc:        00090993        addi x19 x18 0
    109c0:        00f12623        sw x15 12 x2
    109c4:        00071c03        lh x24 0 x14
    109c8:        41fc5d93        srai x27 x24 31
    109cc:        000d8713        addi x14 x27 0
    109d0:        66074463        blt x14 x0 1640
    109d4:        fff00793        addi x15 x0 -1
    109d8:        08f30ce3        beq x6 x15 2200
    109dc:        01bc67b3        or x15 x24 x27
    109e0:        f7f9f913        andi x18 x19 -129
    109e4:        080794e3        bne x15 x0 2184
    109e8:        00030463        beq x6 x0 8
    109ec:        5c90106f        jal x0 7624
    109f0:        00000313        addi x6 x0 0
    109f4:        00000b13        addi x22 x0 0
    109f8:        1b010c93        addi x25 x2 432
    109fc:        dd5ff06f        jal x0 -556
    10a00:        08096913        ori x18 x18 128
    10a04:        0004ce03        lbu x28 0 x9
    10a08:        bd5ff06f        jal x0 -1068
    10a0c:        02097793        andi x15 x18 32
    10a10:        000c0313        addi x6 x24 0
    10a14:        01096993        ori x19 x18 16
    10a18:        000794e3        bne x15 x0 2056
    10a1c:        00c12783        lw x15 12 x2
    10a20:        00478793        addi x15 x15 4
    10a24:        00c12703        lw x14 12 x2
    10a28:        00000d93        addi x27 x0 0
    10a2c:        00f12623        sw x15 12 x2
    10a30:        00072c03        lw x24 0 x14
    10a34:        00100793        addi x15 x0 1
    10a38:        d65ff06f        jal x0 -668
    10a3c:        00c12783        lw x15 12 x2
    10a40:        0c0103a3        sb x0 199 x2
    10a44:        000c0313        addi x6 x24 0
    10a48:        0007ac83        lw x25 0 x15
    10a4c:        00478c13        addi x24 x15 4
    10a50:        000c9463        bne x25 x0 8
    10a54:        1ec0106f        jal x0 4588
    10a58:        fff00713        addi x14 x0 -1
    10a5c:        00e31463        bne x6 x14 8
    10a60:        5b80106f        jal x0 5560
    10a64:        00030613        addi x12 x6 0
    10a68:        00000593        addi x11 x0 0
    10a6c:        000c8513        addi x10 x25 0
    10a70:        00612623        sw x6 12 x2
    10a74:        2b1060ef        jal x1 27312 <memchr>
    10a78:        00a12823        sw x10 16 x2
    10a7c:        00c12303        lw x6 12 x2
    10a80:        00051463        bne x10 x0 8
    10a84:        7950106f        jal x0 8084
    10a88:        01012783        lw x15 16 x2
    10a8c:        41978b33        sub x22 x15 x25
    10a90:        0c714703        lbu x14 199 x2
    10a94:        fffb4993        xori x19 x22 -1
    10a98:        41f9d993        srai x19 x19 31
    10a9c:        01812623        sw x24 12 x2
    10aa0:        00012823        sw x0 16 x2
    10aa4:        02012223        sw x0 36 x2
    10aa8:        02012023        sw x0 32 x2
    10aac:        00012a23        sw x0 20 x2
    10ab0:        013b79b3        and x19 x22 x19
    10ab4:        00000313        addi x6 x0 0
    10ab8:        d2071ee3        bne x14 x0 -708
    10abc:        0740006f        jal x0 116
    10ac0:        02097793        andi x15 x18 32
    10ac4:        000c0313        addi x6 x24 0
    10ac8:        01096913        ori x18 x18 16
    10acc:        76079c63        bne x15 x0 1912
    10ad0:        00c12783        lw x15 12 x2
    10ad4:        00478793        addi x15 x15 4
    10ad8:        00c12703        lw x14 12 x2
    10adc:        00000d93        addi x27 x0 0
    10ae0:        00f12623        sw x15 12 x2
    10ae4:        00072c03        lw x24 0 x14
    10ae8:        7780006f        jal x0 1912
    10aec:        00896913        ori x18 x18 8
    10af0:        0004ce03        lbu x28 0 x9
    10af4:        ae9ff06f        jal x0 -1304
    10af8:        00c12703        lw x14 12 x2
    10afc:        0c0103a3        sb x0 199 x2
    10b00:        00100993        addi x19 x0 1
    10b04:        00072783        lw x15 0 x14
    10b08:        00470713        addi x14 x14 4
    10b0c:        00e12623        sw x14 12 x2
    10b10:        14f10623        sb x15 332 x2
    10b14:        00100b13        addi x22 x0 1
    10b18:        14c10c93        addi x25 x2 332
    10b1c:        00012823        sw x0 16 x2
    10b20:        00000313        addi x6 x0 0
    10b24:        02012223        sw x0 36 x2
    10b28:        02012023        sw x0 32 x2
    10b2c:        00012a23        sw x0 20 x2
    10b30:        00297f93        andi x31 x18 2
    10b34:        000f8463        beq x31 x0 8
    10b38:        00298993        addi x19 x19 2
    10b3c:        08497d93        andi x27 x18 132
    10b40:        0ec12703        lw x14 236 x2
    10b44:        000d9663        bne x27 x0 12
    10b48:        41340833        sub x16 x8 x19
    10b4c:        450044e3        blt x0 x16 3144
    10b50:        0c714683        lbu x13 199 x2
    10b54:        02068a63        beq x13 x0 52
    10b58:        0e812683        lw x13 232 x2
    10b5c:        0c710613        addi x12 x2 199
    10b60:        00cd2023        sw x12 0 x26
    10b64:        00170713        addi x14 x14 1
    10b68:        00100613        addi x12 x0 1
    10b6c:        00168693        addi x13 x13 1
    10b70:        00cd2223        sw x12 4 x26
    10b74:        0ee12623        sw x14 236 x2
    10b78:        0ed12423        sw x13 232 x2
    10b7c:        00700613        addi x12 x0 7
    10b80:        008d0d13        addi x26 x26 8
    10b84:        0cd64263        blt x12 x13 196
    10b88:        020f8a63        beq x31 x0 52
    10b8c:        0e812683        lw x13 232 x2
    10b90:        0c810613        addi x12 x2 200
    10b94:        00cd2023        sw x12 0 x26
    10b98:        00270713        addi x14 x14 2
    10b9c:        00200613        addi x12 x0 2
    10ba0:        00168693        addi x13 x13 1
    10ba4:        00cd2223        sw x12 4 x26
    10ba8:        0ee12623        sw x14 236 x2
    10bac:        0ed12423        sw x13 232 x2
    10bb0:        00700613        addi x12 x0 7
    10bb4:        008d0d13        addi x26 x26 8
    10bb8:        50d640e3        blt x12 x13 3328
    10bbc:        08000693        addi x13 x0 128
    10bc0:        06dd8ce3        beq x27 x13 2168
    10bc4:        41630c33        sub x24 x6 x22
    10bc8:        17804ce3        blt x0 x24 2424
    10bcc:        10097693        andi x13 x18 256
    10bd0:        72069063        bne x13 x0 1824
    10bd4:        0e812783        lw x15 232 x2
    10bd8:        01670733        add x14 x14 x22
    10bdc:        019d2023        sw x25 0 x26
    10be0:        00178793        addi x15 x15 1
    10be4:        016d2223        sw x22 4 x26
    10be8:        0ee12623        sw x14 236 x2
    10bec:        0ef12423        sw x15 232 x2
    10bf0:        00700693        addi x13 x0 7
    10bf4:        008d0d13        addi x26 x26 8
    10bf8:        26f6c8e3        blt x13 x15 2672
    10bfc:        00497913        andi x18 x18 4
    10c00:        00090663        beq x18 x0 12
    10c04:        41340933        sub x18 x8 x19
    10c08:        07204863        blt x0 x18 112
    10c0c:        01345463        bge x8 x19 8
    10c10:        00098413        addi x8 x19 0
    10c14:        00812783        lw x15 8 x2
    10c18:        008787b3        add x15 x15 x8
    10c1c:        00f12423        sw x15 8 x2
    10c20:        aa0718e3        bne x14 x0 -1360
    10c24:        01012783        lw x15 16 x2
    10c28:        0e012423        sw x0 232 x2
    10c2c:        00078863        beq x15 x0 16
    10c30:        01012583        lw x11 16 x2
    10c34:        000a0513        addi x10 x20 0
    10c38:        67d020ef        jal x1 11900 <_free_r>
    10c3c:        10c10d13        addi x26 x2 268
    10c40:        00048c93        addi x25 x9 0
    10c44:        cf5ff06f        jal x0 -780
    10c48:        00412583        lw x11 4 x2
    10c4c:        0e410613        addi x12 x2 228
    10c50:        000a0513        addi x10 x20 0
    10c54:        04612423        sw x6 72 x2
    10c58:        03f12a23        sw x31 52 x2
    10c5c:        43d0a0ef        jal x1 44092 <__sprint_r>
    10c60:        a80512e3        bne x10 x0 -1404
    10c64:        0ec12703        lw x14 236 x2
    10c68:        10c10d13        addi x26 x2 268
    10c6c:        04812303        lw x6 72 x2
    10c70:        03412f83        lw x31 52 x2
    10c74:        f15ff06f        jal x0 -236
    10c78:        0e812783        lw x15 232 x2
    10c7c:        00013c17        auipc x24 0x13
    10c80:        3e4c0c13        addi x24 x24 996
    10c84:        072bd063        bge x23 x18 96
    10c88:        00700b13        addi x22 x0 7
    10c8c:        00412a83        lw x21 4 x2
    10c90:        00c0006f        jal x0 12
    10c94:        ff090913        addi x18 x18 -16
    10c98:        052bd663        bge x23 x18 76
    10c9c:        01070713        addi x14 x14 16
    10ca0:        00178793        addi x15 x15 1
    10ca4:        018d2023        sw x24 0 x26
    10ca8:        017d2223        sw x23 4 x26
    10cac:        0ee12623        sw x14 236 x2
    10cb0:        0ef12423        sw x15 232 x2
    10cb4:        008d0d13        addi x26 x26 8
    10cb8:        fcfb5ee3        bge x22 x15 -36
    10cbc:        0e410613        addi x12 x2 228
    10cc0:        000a8593        addi x11 x21 0
    10cc4:        000a0513        addi x10 x20 0
    10cc8:        3d10a0ef        jal x1 43984 <__sprint_r>
    10ccc:        a0051ce3        bne x10 x0 -1512
    10cd0:        ff090913        addi x18 x18 -16
    10cd4:        0ec12703        lw x14 236 x2
    10cd8:        0e812783        lw x15 232 x2
    10cdc:        10c10d13        addi x26 x2 268
    10ce0:        fb2bcee3        blt x23 x18 -68
    10ce4:        01270733        add x14 x14 x18
    10ce8:        00178793        addi x15 x15 1
    10cec:        018d2023        sw x24 0 x26
    10cf0:        012d2223        sw x18 4 x26
    10cf4:        0ee12623        sw x14 236 x2
    10cf8:        0ef12423        sw x15 232 x2
    10cfc:        00700693        addi x13 x0 7
    10d00:        f0f6d6e3        bge x13 x15 -244
    10d04:        00412583        lw x11 4 x2
    10d08:        0e410613        addi x12 x2 228
    10d0c:        000a0513        addi x10 x20 0
    10d10:        3890a0ef        jal x1 43912 <__sprint_r>
    10d14:        9c0518e3        bne x10 x0 -1584
    10d18:        0ec12703        lw x14 236 x2
    10d1c:        ef1ff06f        jal x0 -272
    10d20:        00897713        andi x14 x18 8
    10d24:        000c0313        addi x6 x24 0
    10d28:        5c071ae3        bne x14 x0 3540
    10d2c:        00c12783        lw x15 12 x2
    10d30:        0b010513        addi x10 x2 176
    10d34:        01812823        sw x24 16 x2
    10d38:        00778793        addi x15 x15 7
    10d3c:        ff87f793        andi x15 x15 -8
    10d40:        0007a583        lw x11 0 x15
    10d44:        0047a603        lw x12 4 x15
    10d48:        00878793        addi x15 x15 8
    10d4c:        00f12623        sw x15 12 x2
    10d50:        40d120ef        jal x1 76812 <__extenddftf2>
    10d54:        0b012703        lw x14 176 x2
    10d58:        01012303        lw x6 16 x2
    10d5c:        0ee12823        sw x14 240 x2
    10d60:        0b412703        lw x14 180 x2
    10d64:        0ee12a23        sw x14 244 x2
    10d68:        0b812703        lw x14 184 x2
    10d6c:        0ee12c23        sw x14 248 x2
    10d70:        0bc12703        lw x14 188 x2
    10d74:        0ee12e23        sw x14 252 x2
    10d78:        0f010513        addi x10 x2 240
    10d7c:        00612823        sw x6 16 x2
    10d80:        461050ef        jal x1 23648 <_ldcheck>
    10d84:        0ca12623        sw x10 204 x2
    10d88:        00200713        addi x14 x0 2
    10d8c:        01012303        lw x6 16 x2
    10d90:        00e51463        bne x10 x14 8
    10d94:        1440106f        jal x0 4420
    10d98:        00100713        addi x14 x0 1
    10d9c:        00e51463        bne x10 x14 8
    10da0:        2e40106f        jal x0 4836
    10da4:        06100713        addi x14 x0 97
    10da8:        00ea9463        bne x21 x14 8
    10dac:        5f50106f        jal x0 7668
    10db0:        04100713        addi x14 x0 65
    10db4:        00ea9463        bne x21 x14 8
    10db8:        6340106f        jal x0 5684
    10dbc:        fdfaf793        andi x15 x21 -33
    10dc0:        fff00713        addi x14 x0 -1
    10dc4:        04f12423        sw x15 72 x2
    10dc8:        00e31463        bne x6 x14 8
    10dcc:        6790106f        jal x0 7800
    10dd0:        04700713        addi x14 x0 71
    10dd4:        00e79463        bne x15 x14 8
    10dd8:        65d0106f        jal x0 7772
    10ddc:        0fc12b03        lw x22 252 x2
    10de0:        05212a23        sw x18 84 x2
    10de4:        10096713        ori x14 x18 256
    10de8:        0f012f03        lw x30 240 x2
    10dec:        0f412d83        lw x27 244 x2
    10df0:        0f812e83        lw x29 248 x2
    10df4:        000b5463        bge x22 x0 8
    10df8:        27d0106f        jal x0 6780
    10dfc:        04012e23        sw x0 92 x2
    10e00:        00070913        addi x18 x14 0
    10e04:        00012823        sw x0 16 x2
    10e08:        04812703        lw x14 72 x2
    10e0c:        04600793        addi x15 x0 70
    10e10:        00f71463        bne x14 x15 8
    10e14:        2f50106f        jal x0 6900
    10e18:        04500793        addi x15 x0 69
    10e1c:        00f71463        bne x14 x15 8
    10e20:        51d0106f        jal x0 7452
    10e24:        0b010c13        addi x24 x2 176
    10e28:        0d010793        addi x15 x2 208
    10e2c:        0cc10713        addi x14 x2 204
    10e30:        00030693        addi x13 x6 0
    10e34:        0dc10813        addi x16 x2 220
    10e38:        00200613        addi x12 x0 2
    10e3c:        000c0593        addi x11 x24 0
    10e40:        000a0513        addi x10 x20 0
    10e44:        02612023        sw x6 32 x2
    10e48:        0be12823        sw x30 176 x2
    10e4c:        01e12c23        sw x30 24 x2
    10e50:        0bd12c23        sw x29 184 x2
    10e54:        01d12a23        sw x29 20 x2
    10e58:        0bb12a23        sw x27 180 x2
    10e5c:        0b612e23        sw x22 188 x2
    10e60:        08d040ef        jal x1 18572 <_ldtoa_r>
    10e64:        04812783        lw x15 72 x2
    10e68:        04700713        addi x14 x0 71
    10e6c:        00050c93        addi x25 x10 0
    10e70:        01412e83        lw x29 20 x2
    10e74:        01812f03        lw x30 24 x2
    10e78:        02012303        lw x6 32 x2
    10e7c:        00e78463        beq x15 x14 8
    10e80:        0bc0206f        jal x0 8380
    10e84:        05412783        lw x15 84 x2
    10e88:        0017f713        andi x14 x15 1
    10e8c:        00070463        beq x14 x0 8
    10e90:        49d0106f        jal x0 7324
    10e94:        0dc12703        lw x14 220 x2
    10e98:        419707b3        sub x15 x14 x25
    10e9c:        00f12c23        sw x15 24 x2
    10ea0:        0cc12783        lw x15 204 x2
    10ea4:        04700713        addi x14 x0 71
    10ea8:        00f12a23        sw x15 20 x2
    10eac:        04812783        lw x15 72 x2
    10eb0:        00e79463        bne x15 x14 8
    10eb4:        1390106f        jal x0 6456
    10eb8:        04812783        lw x15 72 x2
    10ebc:        04600713        addi x14 x0 70
    10ec0:        00e79463        bne x15 x14 8
    10ec4:        3e50106f        jal x0 7140
    10ec8:        01412783        lw x15 20 x2
    10ecc:        04100593        addi x11 x0 65
    10ed0:        0ffaf693        andi x13 x21 255
    10ed4:        fff78713        addi x14 x15 -1
    10ed8:        04812783        lw x15 72 x2
    10edc:        0ce12623        sw x14 204 x2
    10ee0:        00000613        addi x12 x0 0
    10ee4:        00b79863        bne x15 x11 16
    10ee8:        00f68693        addi x13 x13 15
    10eec:        0ff6f693        andi x13 x13 255
    10ef0:        00100613        addi x12 x0 1
    10ef4:        0cd10a23        sb x13 212 x2
    10ef8:        02b00693        addi x13 x0 43
    10efc:        00075a63        bge x14 x0 20
    10f00:        01412783        lw x15 20 x2
    10f04:        00100713        addi x14 x0 1
    10f08:        02d00693        addi x13 x0 45
    10f0c:        40f70733        sub x14 x14 x15
    10f10:        0cd10aa3        sb x13 213 x2
    10f14:        00900693        addi x13 x0 9
    10f18:        00e6c463        blt x13 x14 8
    10f1c:        5b90106f        jal x0 7608
    10f20:        0e310813        addi x16 x2 227
    10f24:        00080613        addi x12 x16 0
    10f28:        00a00513        addi x10 x0 10
    10f2c:        06300313        addi x6 x0 99
    10f30:        00c0006f        jal x0 12
    10f34:        00058613        addi x12 x11 0
    10f38:        00068713        addi x14 x13 0
    10f3c:        02a767b3        rem x15 x14 x10
    10f40:        fff60593        addi x11 x12 -1
    10f44:        03078793        addi x15 x15 48
    10f48:        fef60fa3        sb x15 -1 x12
    10f4c:        02a746b3        div x13 x14 x10
    10f50:        fee342e3        blt x6 x14 -28
    10f54:        03068713        addi x14 x13 48
    10f58:        0ff77713        andi x14 x14 255
    10f5c:        ffe60693        addi x13 x12 -2
    10f60:        fee58fa3        sb x14 -1 x11
    10f64:        0106e463        bltu x13 x16 8
    10f68:        7ad0106f        jal x0 8108
    10f6c:        0d610593        addi x11 x2 214
    10f70:        0080006f        jal x0 8
    10f74:        0006c703        lbu x14 0 x13
    10f78:        00158593        addi x11 x11 1
    10f7c:        00168693        addi x13 x13 1
    10f80:        fee58fa3        sb x14 -1 x11
    10f84:        ff0698e3        bne x13 x16 -16
    10f88:        0e510713        addi x14 x2 229
    10f8c:        0d610793        addi x15 x2 214
    10f90:        40c70733        sub x14 x14 x12
    10f94:        00e78733        add x14 x15 x14
    10f98:        0d410693        addi x13 x2 212
    10f9c:        40d707b3        sub x15 x14 x13
    10fa0:        02f12c23        sw x15 56 x2
    10fa4:        01812783        lw x15 24 x2
    10fa8:        03812683        lw x13 56 x2
    10fac:        00100713        addi x14 x0 1
    10fb0:        00d78b33        add x22 x15 x13
    10fb4:        00f74463        blt x14 x15 8
    10fb8:        66d0106f        jal x0 7788
    10fbc:        02812783        lw x15 40 x2
    10fc0:        00fb0b33        add x22 x22 x15
    10fc4:        05412783        lw x15 84 x2
    10fc8:        fffb4993        xori x19 x22 -1
    10fcc:        41f9d993        srai x19 x19 31
    10fd0:        bff7f913        andi x18 x15 -1025
    10fd4:        10096913        ori x18 x18 256
    10fd8:        013b79b3        and x19 x22 x19
    10fdc:        02012223        sw x0 36 x2
    10fe0:        02012023        sw x0 32 x2
    10fe4:        00012a23        sw x0 20 x2
    10fe8:        05c12783        lw x15 92 x2
    10fec:        00079463        bne x15 x0 8
    10ff0:        0710106f        jal x0 6256
    10ff4:        02d00713        addi x14 x0 45
    10ff8:        0ce103a3        sb x14 199 x2
    10ffc:        00000313        addi x6 x0 0
    11000:        00198993        addi x19 x19 1
    11004:        b2dff06f        jal x0 -1236
    11008:        02097793        andi x15 x18 32
    1100c:        000c0313        addi x6 x24 0
    11010:        01096993        ori x19 x18 16
    11014:        1e079263        bne x15 x0 484
    11018:        00c12783        lw x15 12 x2
    1101c:        00478793        addi x15 x15 4
    11020:        00c12703        lw x14 12 x2
    11024:        00f12623        sw x15 12 x2
    11028:        00072c03        lw x24 0 x14
    1102c:        41fc5d93        srai x27 x24 31
    11030:        000d8713        addi x14 x27 0
    11034:        9a0750e3        bge x14 x0 -1632
    11038:        41800c33        sub x24 x0 x24
    1103c:        018037b3        sltu x15 x0 x24
    11040:        41b00db3        sub x27 x0 x27
    11044:        40fd8db3        sub x27 x27 x15
    11048:        02d00793        addi x15 x0 45
    1104c:        0cf103a3        sb x15 199 x2
    11050:        fff00713        addi x14 x0 -1
    11054:        00100793        addi x15 x0 1
    11058:        f4e31863        bne x6 x14 -2224
    1105c:        00100713        addi x14 x0 1
    11060:        20e78863        beq x15 x14 528
    11064:        00200713        addi x14 x0 2
    11068:        24e78263        beq x15 x14 580
    1106c:        1b010693        addi x13 x2 432
    11070:        0080006f        jal x0 8
    11074:        000c8693        addi x13 x25 0
    11078:        01dd9793        slli x15 x27 29
    1107c:        007c7713        andi x14 x24 7
    11080:        003c5c13        srli x24 x24 3
    11084:        03070713        addi x14 x14 48
    11088:        0187ec33        or x24 x15 x24
    1108c:        003ddd93        srli x27 x27 3
    11090:        fee68fa3        sb x14 -1 x13
    11094:        01bc67b3        or x15 x24 x27
    11098:        fff68c93        addi x25 x13 -1
    1109c:        fc079ce3        bne x15 x0 -40
    110a0:        0019f613        andi x12 x19 1
    110a4:        22060e63        beq x12 x0 572
    110a8:        03000613        addi x12 x0 48
    110ac:        22c70a63        beq x14 x12 564
    110b0:        ffe68693        addi x13 x13 -2
    110b4:        1b010793        addi x15 x2 432
    110b8:        fecc8fa3        sb x12 -1 x25
    110bc:        40d78b33        sub x22 x15 x13
    110c0:        00098913        addi x18 x19 0
    110c4:        00068c93        addi x25 x13 0
    110c8:        f08ff06f        jal x0 -2296
    110cc:        00c12703        lw x14 12 x2
    110d0:        ffff87b7        lui x15 0xffff8
    110d4:        8307c793        xori x15 x15 -2000
    110d8:        0cf11423        sh x15 200 x2
    110dc:        00470793        addi x15 x14 4
    110e0:        00f12623        sw x15 12 x2
    110e4:        00013797        auipc x15 0x13
    110e8:        fac78793        addi x15 x15 -84
    110ec:        000c0313        addi x6 x24 0
    110f0:        02f12623        sw x15 44 x2
    110f4:        00072c03        lw x24 0 x14
    110f8:        00000d93        addi x27 x0 0
    110fc:        00296993        ori x19 x18 2
    11100:        00200793        addi x15 x0 2
    11104:        07800a93        addi x21 x0 120
    11108:        e94ff06f        jal x0 -2412
    1110c:        0c714783        lbu x15 199 x2
    11110:        0004ce03        lbu x28 0 x9
    11114:        cc079463        bne x15 x0 -2872
    11118:        02000793        addi x15 x0 32
    1111c:        0cf103a3        sb x15 199 x2
    11120:        cbcff06f        jal x0 -2884
    11124:        02b00793        addi x15 x0 43
    11128:        0cf103a3        sb x15 199 x2
    1112c:        0004ce03        lbu x28 0 x9
    11130:        cacff06f        jal x0 -2900
    11134:        00c12783        lw x15 12 x2
    11138:        0004ce03        lbu x28 0 x9
    1113c:        0007a403        lw x8 0 x15
    11140:        00478793        addi x15 x15 4
    11144:        00f12623        sw x15 12 x2
    11148:        c8045a63        bge x8 x0 -2924
    1114c:        40800433        sub x8 x0 x8
    11150:        00496913        ori x18 x18 4
    11154:        c88ff06f        jal x0 -2936
    11158:        00196913        ori x18 x18 1
    1115c:        0004ce03        lbu x28 0 x9
    11160:        c7cff06f        jal x0 -2948
    11164:        02097793        andi x15 x18 32
    11168:        000c0313        addi x6 x24 0
    1116c:        0c079c63        bne x15 x0 216
    11170:        00c12683        lw x13 12 x2
    11174:        01097713        andi x14 x18 16
    11178:        00468793        addi x15 x13 4
    1117c:        0006ac03        lw x24 0 x13
    11180:        94071ce3        bne x14 x0 -1704
    11184:        04097713        andi x14 x18 64
    11188:        6c0702e3        beq x14 x0 3780
    1118c:        010c1c13        slli x24 x24 16
    11190:        010c5c13        srli x24 x24 16
    11194:        00000d93        addi x27 x0 0
    11198:        00f12623        sw x15 12 x2
    1119c:        0c40006f        jal x0 196
    111a0:        02097793        andi x15 x18 32
    111a4:        000c0313        addi x6 x24 0
    111a8:        06079a63        bne x15 x0 116
    111ac:        00c12683        lw x13 12 x2
    111b0:        01097713        andi x14 x18 16
    111b4:        00468793        addi x15 x13 4
    111b8:        0006ac03        lw x24 0 x13
    111bc:        00070463        beq x14 x0 8
    111c0:        54d0106f        jal x0 7500
    111c4:        04097713        andi x14 x18 64
    111c8:        68070ee3        beq x14 x0 3740
    111cc:        010c1c13        slli x24 x24 16
    111d0:        00f12623        sw x15 12 x2
    111d4:        010c5c13        srli x24 x24 16
    111d8:        00000d93        addi x27 x0 0
    111dc:        00090993        addi x19 x18 0
    111e0:        00100793        addi x15 x0 1
    111e4:        db8ff06f        jal x0 -2632
    111e8:        01c12503        lw x10 28 x2
    111ec:        758020ef        jal x1 10072 <__sinit>
    111f0:        ab4ff06f        jal x0 -3404
    111f4:        00090993        addi x19 x18 0
    111f8:        00c12783        lw x15 12 x2
    111fc:        00778793        addi x15 x15 7
    11200:        ff87f793        andi x15 x15 -8
    11204:        0047a703        lw x14 4 x15
    11208:        00878693        addi x13 x15 8
    1120c:        00d12623        sw x13 12 x2
    11210:        0007ac03        lw x24 0 x15
    11214:        00070d93        addi x27 x14 0
    11218:        fb8ff06f        jal x0 -2120
    1121c:        00090993        addi x19 x18 0
    11220:        00c12783        lw x15 12 x2
    11224:        00778793        addi x15 x15 7
    11228:        ff87f793        andi x15 x15 -8
    1122c:        00878713        addi x14 x15 8
    11230:        0007ac03        lw x24 0 x15
    11234:        0047ad83        lw x27 4 x15
    11238:        00e12623        sw x14 12 x2
    1123c:        00100793        addi x15 x0 1
    11240:        d5cff06f        jal x0 -2724
    11244:        00c12783        lw x15 12 x2
    11248:        00778793        addi x15 x15 7
    1124c:        ff87f793        andi x15 x15 -8
    11250:        0007ac03        lw x24 0 x15
    11254:        0047ad83        lw x27 4 x15
    11258:        00878713        addi x14 x15 8
    1125c:        00e12623        sw x14 12 x2
    11260:        bff97993        andi x19 x18 -1025
    11264:        00000793        addi x15 x0 0
    11268:        d34ff06f        jal x0 -2764
    1126c:        00090993        addi x19 x18 0
    11270:        360d90e3        bne x27 x0 2912
    11274:        00900793        addi x15 x0 9
    11278:        3587ece3        bltu x15 x24 2904
    1127c:        030c0c13        addi x24 x24 48
    11280:        1b8107a3        sb x24 431 x2
    11284:        00098913        addi x18 x19 0
    11288:        00100b13        addi x22 x0 1
    1128c:        1af10c93        addi x25 x2 431
    11290:        d40ff06f        jal x0 -2752
    11294:        00100713        addi x14 x0 1
    11298:        00e79463        bne x15 x14 8
    1129c:        5180106f        jal x0 5400
    112a0:        00200713        addi x14 x0 2
    112a4:        00090993        addi x19 x18 0
    112a8:        dce792e3        bne x15 x14 -572
    112ac:        02c12683        lw x13 44 x2
    112b0:        1b010c93        addi x25 x2 432
    112b4:        00fc7793        andi x15 x24 15
    112b8:        00f687b3        add x15 x13 x15
    112bc:        0007c783        lbu x15 0 x15
    112c0:        01cd9713        slli x14 x27 28
    112c4:        004c5c13        srli x24 x24 4
    112c8:        fffc8c93        addi x25 x25 -1
    112cc:        01876c33        or x24 x14 x24
    112d0:        004ddd93        srli x27 x27 4
    112d4:        00fc8023        sb x15 0 x25
    112d8:        01bc67b3        or x15 x24 x27
    112dc:        fc079ce3        bne x15 x0 -40
    112e0:        1b010793        addi x15 x2 432
    112e4:        41978b33        sub x22 x15 x25
    112e8:        00098913        addi x18 x19 0
    112ec:        ce4ff06f        jal x0 -2844
    112f0:        06500693        addi x13 x0 101
    112f4:        3956da63        bge x13 x21 916
    112f8:        0f012683        lw x13 240 x2
    112fc:        0a010593        addi x11 x2 160
    11300:        0b010513        addi x10 x2 176
    11304:        0ad12823        sw x13 176 x2
    11308:        0f412683        lw x13 244 x2
    1130c:        02e12a23        sw x14 52 x2
    11310:        0a012023        sw x0 160 x2
    11314:        0ad12a23        sw x13 180 x2
    11318:        0f812683        lw x13 248 x2
    1131c:        0a012223        sw x0 164 x2
    11320:        0a012423        sw x0 168 x2
    11324:        0ad12c23        sw x13 184 x2
    11328:        0fc12683        lw x13 252 x2
    1132c:        0a012623        sw x0 172 x2
    11330:        0ad12e23        sw x13 188 x2
    11334:        2d10f0ef        jal x1 64208 <__netf2>
    11338:        03412703        lw x14 52 x2
    1133c:        5a051463        bne x10 x0 1448
    11340:        0e812783        lw x15 232 x2
    11344:        00013697        auipc x13 0x13
    11348:        d7c68693        addi x13 x13 -644
    1134c:        00170713        addi x14 x14 1
    11350:        00dd2023        sw x13 0 x26
    11354:        00178793        addi x15 x15 1
    11358:        00100693        addi x13 x0 1
    1135c:        00dd2223        sw x13 4 x26
    11360:        0ee12623        sw x14 236 x2
    11364:        0ef12423        sw x15 232 x2
    11368:        00700713        addi x14 x0 7
    1136c:        008d0d13        addi x26 x26 8
    11370:        32f748e3        blt x14 x15 2864
    11374:        0cc12783        lw x15 204 x2
    11378:        01812703        lw x14 24 x2
    1137c:        00e7ca63        blt x15 x14 20
    11380:        00197793        andi x15 x18 1
    11384:        00079663        bne x15 x0 12
    11388:        0ec12703        lw x14 236 x2
    1138c:        871ff06f        jal x0 -1936
    11390:        03012783        lw x15 48 x2
    11394:        02812683        lw x13 40 x2
    11398:        0ec12703        lw x14 236 x2
    1139c:        00fd2023        sw x15 0 x26
    113a0:        0e812783        lw x15 232 x2
    113a4:        00e68733        add x14 x13 x14
    113a8:        00dd2223        sw x13 4 x26
    113ac:        00178793        addi x15 x15 1
    113b0:        0ee12623        sw x14 236 x2
    113b4:        0ef12423        sw x15 232 x2
    113b8:        00700693        addi x13 x0 7
    113bc:        008d0d13        addi x26 x26 8
    113c0:        02f6cee3        blt x13 x15 2108
    113c4:        01812783        lw x15 24 x2
    113c8:        fff78b13        addi x22 x15 -1
    113cc:        836058e3        bge x0 x22 -2000
    113d0:        0e812783        lw x15 232 x2
    113d4:        2f6bd6e3        bge x23 x22 2796
    113d8:        00700c13        addi x24 x0 7
    113dc:        00412a83        lw x21 4 x2
    113e0:        00c0006f        jal x0 12
    113e4:        ff0b0b13        addi x22 x22 -16
    113e8:        2d6bdce3        bge x23 x22 2776
    113ec:        01070713        addi x14 x14 16
    113f0:        00178793        addi x15 x15 1
    113f4:        00013697        auipc x13 0x13
    113f8:        c7c68693        addi x13 x13 -900
    113fc:        00dd2023        sw x13 0 x26
    11400:        017d2223        sw x23 4 x26
    11404:        0ee12623        sw x14 236 x2
    11408:        0ef12423        sw x15 232 x2
    1140c:        008d0d13        addi x26 x26 8
    11410:        fcfc5ae3        bge x24 x15 -44
    11414:        0e410613        addi x12 x2 228
    11418:        000a8593        addi x11 x21 0
    1141c:        000a0513        addi x10 x20 0
    11420:        4780a0ef        jal x1 42104 <__sprint_r>
    11424:        ac051063        bne x10 x0 -3392
    11428:        0ec12703        lw x14 236 x2
    1142c:        0e812783        lw x15 232 x2
    11430:        10c10d13        addi x26 x2 268
    11434:        fb1ff06f        jal x0 -80
    11438:        41340c33        sub x24 x8 x19
    1143c:        f9805463        bge x0 x24 -2168
    11440:        0e812683        lw x13 232 x2
    11444:        0b8bd463        bge x23 x24 168
    11448:        02912a23        sw x9 52 x2
    1144c:        000d0793        addi x15 x26 0
    11450:        000c0493        addi x9 x24 0
    11454:        000c8d13        addi x26 x25 0
    11458:        00098c13        addi x24 x19 0
    1145c:        000b0c93        addi x25 x22 0
    11460:        00040993        addi x19 x8 0
    11464:        00700d93        addi x27 x0 7
    11468:        00412403        lw x8 4 x2
    1146c:        00030b13        addi x22 x6 0
    11470:        00c0006f        jal x0 12
    11474:        ff048493        addi x9 x9 -16
    11478:        049bda63        bge x23 x9 84
    1147c:        01070713        addi x14 x14 16
    11480:        00168693        addi x13 x13 1
    11484:        00013617        auipc x12 0x13
    11488:        bec60613        addi x12 x12 -1044
    1148c:        00c7a023        sw x12 0 x15
    11490:        0177a223        sw x23 4 x15
    11494:        0ee12623        sw x14 236 x2
    11498:        0ed12423        sw x13 232 x2
    1149c:        00878793        addi x15 x15 8
    114a0:        fcdddae3        bge x27 x13 -44
    114a4:        0e410613        addi x12 x2 228
    114a8:        00040593        addi x11 x8 0
    114ac:        000a0513        addi x10 x20 0
    114b0:        3e80a0ef        jal x1 41960 <__sprint_r>
    114b4:        a2051863        bne x10 x0 -3536
    114b8:        ff048493        addi x9 x9 -16
    114bc:        0ec12703        lw x14 236 x2
    114c0:        0e812683        lw x13 232 x2
    114c4:        10c10793        addi x15 x2 268
    114c8:        fa9bcae3        blt x23 x9 -76
    114cc:        00098413        addi x8 x19 0
    114d0:        000c0993        addi x19 x24 0
    114d4:        00048c13        addi x24 x9 0
    114d8:        03412483        lw x9 52 x2
    114dc:        000b0313        addi x6 x22 0
    114e0:        000c8b13        addi x22 x25 0
    114e4:        000d0c93        addi x25 x26 0
    114e8:        00078d13        addi x26 x15 0
    114ec:        01870733        add x14 x14 x24
    114f0:        00168693        addi x13 x13 1
    114f4:        00013797        auipc x15 0x13
    114f8:        b7c78793        addi x15 x15 -1156
    114fc:        00fd2023        sw x15 0 x26
    11500:        018d2223        sw x24 4 x26
    11504:        0ee12623        sw x14 236 x2
    11508:        0ed12423        sw x13 232 x2
    1150c:        00700613        addi x12 x0 7
    11510:        008d0d13        addi x26 x26 8
    11514:        ead65863        bge x12 x13 -2384
    11518:        00412583        lw x11 4 x2
    1151c:        0e410613        addi x12 x2 228
    11520:        000a0513        addi x10 x20 0
    11524:        02612a23        sw x6 52 x2
    11528:        3700a0ef        jal x1 41840 <__sprint_r>
    1152c:        9a051c63        bne x10 x0 -3656
    11530:        0ec12703        lw x14 236 x2
    11534:        10c10d13        addi x26 x2 268
    11538:        03412303        lw x6 52 x2
    1153c:        e88ff06f        jal x0 -2424
    11540:        0e812683        lw x13 232 x2
    11544:        098bd863        bge x23 x24 144
    11548:        02912a23        sw x9 52 x2
    1154c:        00700d93        addi x27 x0 7
    11550:        000c0493        addi x9 x24 0
    11554:        000b0c13        addi x24 x22 0
    11558:        00098b13        addi x22 x19 0
    1155c:        00040993        addi x19 x8 0
    11560:        00412403        lw x8 4 x2
    11564:        00c0006f        jal x0 12
    11568:        ff048493        addi x9 x9 -16
    1156c:        049bda63        bge x23 x9 84
    11570:        01070713        addi x14 x14 16
    11574:        00168693        addi x13 x13 1
    11578:        00013797        auipc x15 0x13
    1157c:        af878793        addi x15 x15 -1288
    11580:        00fd2023        sw x15 0 x26
    11584:        017d2223        sw x23 4 x26
    11588:        0ee12623        sw x14 236 x2
    1158c:        0ed12423        sw x13 232 x2
    11590:        008d0d13        addi x26 x26 8
    11594:        fcdddae3        bge x27 x13 -44
    11598:        0e410613        addi x12 x2 228
    1159c:        00040593        addi x11 x8 0
    115a0:        000a0513        addi x10 x20 0
    115a4:        2f40a0ef        jal x1 41716 <__sprint_r>
    115a8:        92051e63        bne x10 x0 -3780
    115ac:        ff048493        addi x9 x9 -16
    115b0:        0ec12703        lw x14 236 x2
    115b4:        0e812683        lw x13 232 x2
    115b8:        10c10d13        addi x26 x2 268
    115bc:        fa9bcae3        blt x23 x9 -76
    115c0:        00098413        addi x8 x19 0
    115c4:        000b0993        addi x19 x22 0
    115c8:        000c0b13        addi x22 x24 0
    115cc:        00048c13        addi x24 x9 0
    115d0:        03412483        lw x9 52 x2
    115d4:        01870733        add x14 x14 x24
    115d8:        00168693        addi x13 x13 1
    115dc:        00013797        auipc x15 0x13
    115e0:        a9478793        addi x15 x15 -1388
    115e4:        00fd2023        sw x15 0 x26
    115e8:        018d2223        sw x24 4 x26
    115ec:        0ee12623        sw x14 236 x2
    115f0:        0ed12423        sw x13 232 x2
    115f4:        00700613        addi x12 x0 7
    115f8:        008d0d13        addi x26 x26 8
    115fc:        dcd65863        bge x12 x13 -2608
    11600:        00412583        lw x11 4 x2
    11604:        0e410613        addi x12 x2 228
    11608:        000a0513        addi x10 x20 0
    1160c:        28c0a0ef        jal x1 41612 <__sprint_r>
    11610:        8c051a63        bne x10 x0 -3884
    11614:        0ec12703        lw x14 236 x2
    11618:        10c10d13        addi x26 x2 268
    1161c:        db0ff06f        jal x0 -2640
    11620:        00197593        andi x11 x18 1
    11624:        08059263        bne x11 x0 132
    11628:        00dd2223        sw x13 4 x26
    1162c:        0ee12623        sw x14 236 x2
    11630:        0f612423        sw x22 232 x2
    11634:        00700793        addi x15 x0 7
    11638:        5967ca63        blt x15 x22 1428
    1163c:        00260a93        addi x21 x12 2
    11640:        010d0d13        addi x26 x26 16
    11644:        03812683        lw x13 56 x2
    11648:        0d410793        addi x15 x2 212
    1164c:        00fc2023        sw x15 0 x24
    11650:        00e68733        add x14 x13 x14
    11654:        00dc2223        sw x13 4 x24
    11658:        0ee12623        sw x14 236 x2
    1165c:        0f512423        sw x21 232 x2
    11660:        00700793        addi x15 x0 7
    11664:        d957dc63        bge x15 x21 -2664
    11668:        00412583        lw x11 4 x2
    1166c:        0e410613        addi x12 x2 228
    11670:        000a0513        addi x10 x20 0
    11674:        2240a0ef        jal x1 41508 <__sprint_r>
    11678:        86051663        bne x10 x0 -3988
    1167c:        0ec12703        lw x14 236 x2
    11680:        10c10d13        addi x26 x2 268
    11684:        d78ff06f        jal x0 -2696
    11688:        0e812603        lw x12 232 x2
    1168c:        01812783        lw x15 24 x2
    11690:        00100693        addi x13 x0 1
    11694:        019d2023        sw x25 0 x26
    11698:        00170713        addi x14 x14 1
    1169c:        00160b13        addi x22 x12 1
    116a0:        008d0c13        addi x24 x26 8
    116a4:        f6f6dee3        bge x13 x15 -132
    116a8:        00100693        addi x13 x0 1
    116ac:        00dd2223        sw x13 4 x26
    116b0:        0ee12623        sw x14 236 x2
    116b4:        0f612423        sw x22 232 x2
    116b8:        00700693        addi x13 x0 7
    116bc:        6166cc63        blt x13 x22 1560
    116c0:        02812783        lw x15 40 x2
    116c4:        03012683        lw x13 48 x2
    116c8:        001b0b13        addi x22 x22 1
    116cc:        00f70733        add x14 x14 x15
    116d0:        00dc2023        sw x13 0 x24
    116d4:        00fc2223        sw x15 4 x24
    116d8:        0ee12623        sw x14 236 x2
    116dc:        0f612423        sw x22 232 x2
    116e0:        00700693        addi x13 x0 7
    116e4:        008c0c13        addi x24 x24 8
    116e8:        6166ca63        blt x13 x22 1556
    116ec:        0f012683        lw x13 240 x2
    116f0:        01812783        lw x15 24 x2
    116f4:        001b0813        addi x16 x22 1
    116f8:        0ad12823        sw x13 176 x2
    116fc:        0f412683        lw x13 244 x2
    11700:        0a010593        addi x11 x2 160
    11704:        0b010513        addi x10 x2 176
    11708:        0ad12a23        sw x13 180 x2
    1170c:        0f812683        lw x13 248 x2
    11710:        02e12223        sw x14 36 x2
    11714:        00080a93        addi x21 x16 0
    11718:        0ad12c23        sw x13 184 x2
    1171c:        0fc12683        lw x13 252 x2
    11720:        03012023        sw x16 32 x2
    11724:        0a012023        sw x0 160 x2
    11728:        0ad12e23        sw x13 188 x2
    1172c:        fff78693        addi x13 x15 -1
    11730:        00d12a23        sw x13 20 x2
    11734:        0a012223        sw x0 164 x2
    11738:        0a012423        sw x0 168 x2
    1173c:        0a012623        sw x0 172 x2
    11740:        6c40f0ef        jal x1 63172 <__netf2>
    11744:        008c0d13        addi x26 x24 8
    11748:        01412683        lw x13 20 x2
    1174c:        02012803        lw x16 32 x2
    11750:        02412703        lw x14 36 x2
    11754:        30050863        beq x10 x0 784
    11758:        001c8793        addi x15 x25 1
    1175c:        00d70733        add x14 x14 x13
    11760:        00fc2023        sw x15 0 x24
    11764:        00dc2223        sw x13 4 x24
    11768:        0ee12623        sw x14 236 x2
    1176c:        0f512423        sw x21 232 x2
    11770:        00700793        addi x15 x0 7
    11774:        4557cc63        blt x15 x21 1112
    11778:        010c0793        addi x15 x24 16
    1177c:        002b0a93        addi x21 x22 2
    11780:        000d0c13        addi x24 x26 0
    11784:        00078d13        addi x26 x15 0
    11788:        ebdff06f        jal x0 -324
    1178c:        00090993        addi x19 x18 0
    11790:        8cdff06f        jal x0 -1844
    11794:        0e812683        lw x13 232 x2
    11798:        00013c17        auipc x24 0x13
    1179c:        8c8c0c13        addi x24 x24 -1848
    117a0:        0d0bd063        bge x23 x16 192
    117a4:        04912423        sw x9 72 x2
    117a8:        05212623        sw x18 76 x2
    117ac:        000d0793        addi x15 x26 0
    117b0:        000c0913        addi x18 x24 0
    117b4:        000c8d13        addi x26 x25 0
    117b8:        00098c13        addi x24 x19 0
    117bc:        000b0c93        addi x25 x22 0
    117c0:        00040993        addi x19 x8 0
    117c4:        00700293        addi x5 x0 7
    117c8:        03f12a23        sw x31 52 x2
    117cc:        00412483        lw x9 4 x2
    117d0:        00030b13        addi x22 x6 0
    117d4:        00080413        addi x8 x16 0
    117d8:        00c0006f        jal x0 12
    117dc:        ff040413        addi x8 x8 -16
    117e0:        048bda63        bge x23 x8 84
    117e4:        01070713        addi x14 x14 16
    117e8:        00168693        addi x13 x13 1
    117ec:        0127a023        sw x18 0 x15
    117f0:        0177a223        sw x23 4 x15
    117f4:        0ee12623        sw x14 236 x2
    117f8:        0ed12423        sw x13 232 x2
    117fc:        00878793        addi x15 x15 8
    11800:        fcd2dee3        bge x5 x13 -36
    11804:        0e410613        addi x12 x2 228
    11808:        00048593        addi x11 x9 0
    1180c:        000a0513        addi x10 x20 0
    11810:        0880a0ef        jal x1 41096 <__sprint_r>
    11814:        00050463        beq x10 x0 8
    11818:        ecdfe06f        jal x0 -4404
    1181c:        ff040413        addi x8 x8 -16
    11820:        0ec12703        lw x14 236 x2
    11824:        0e812683        lw x13 232 x2
    11828:        10c10793        addi x15 x2 268
    1182c:        00700293        addi x5 x0 7
    11830:        fa8bcae3        blt x23 x8 -76
    11834:        00040813        addi x16 x8 0
    11838:        03412f83        lw x31 52 x2
    1183c:        00098413        addi x8 x19 0
    11840:        04812483        lw x9 72 x2
    11844:        000c0993        addi x19 x24 0
    11848:        00090c13        addi x24 x18 0
    1184c:        04c12903        lw x18 76 x2
    11850:        000b0313        addi x6 x22 0
    11854:        000c8b13        addi x22 x25 0
    11858:        000d0c93        addi x25 x26 0
    1185c:        00078d13        addi x26 x15 0
    11860:        01070733        add x14 x14 x16
    11864:        00168693        addi x13 x13 1
    11868:        018d2023        sw x24 0 x26
    1186c:        010d2223        sw x16 4 x26
    11870:        0ee12623        sw x14 236 x2
    11874:        0ed12423        sw x13 232 x2
    11878:        00700613        addi x12 x0 7
    1187c:        008d0d13        addi x26 x26 8
    11880:        acd65863        bge x12 x13 -3376
    11884:        00412583        lw x11 4 x2
    11888:        0e410613        addi x12 x2 228
    1188c:        000a0513        addi x10 x20 0
    11890:        04612423        sw x6 72 x2
    11894:        03f12a23        sw x31 52 x2
    11898:        0000a0ef        jal x1 40960 <__sprint_r>
    1189c:        00050463        beq x10 x0 8
    118a0:        e45fe06f        jal x0 -4540
    118a4:        0ec12703        lw x14 236 x2
    118a8:        10c10d13        addi x26 x2 268
    118ac:        04812303        lw x6 72 x2
    118b0:        03412f83        lw x31 52 x2
    118b4:        a9cff06f        jal x0 -3428
    118b8:        00412583        lw x11 4 x2
    118bc:        0e410613        addi x12 x2 228
    118c0:        000a0513        addi x10 x20 0
    118c4:        02612a23        sw x6 52 x2
    118c8:        7d1090ef        jal x1 40912 <__sprint_r>
    118cc:        00050463        beq x10 x0 8
    118d0:        e15fe06f        jal x0 -4588
    118d4:        0ec12703        lw x14 236 x2
    118d8:        10c10d13        addi x26 x2 268
    118dc:        03412303        lw x6 52 x2
    118e0:        adcff06f        jal x0 -3364
    118e4:        0cc12603        lw x12 204 x2
    118e8:        42c05e63        bge x0 x12 1084
    118ec:        01812783        lw x15 24 x2
    118f0:        01412683        lw x13 20 x2
    118f4:        00078b13        addi x22 x15 0
    118f8:        28f6cc63        blt x13 x15 664
    118fc:        03605663        bge x0 x22 44
    11900:        0e812683        lw x13 232 x2
    11904:        01670733        add x14 x14 x22
    11908:        019d2023        sw x25 0 x26
    1190c:        00168693        addi x13 x13 1
    11910:        016d2223        sw x22 4 x26
    11914:        0ee12623        sw x14 236 x2
    11918:        0ed12423        sw x13 232 x2
    1191c:        00700613        addi x12 x0 7
    11920:        008d0d13        addi x26 x26 8
    11924:        1ed642e3        blt x12 x13 2532
    11928:        fffb4693        xori x13 x22 -1
    1192c:        01412783        lw x15 20 x2
    11930:        41f6d693        srai x13 x13 31
    11934:        00db7b33        and x22 x22 x13
    11938:        41678b33        sub x22 x15 x22
    1193c:        33604263        blt x0 x22 804
    11940:        01412783        lw x15 20 x2
    11944:        40097693        andi x13 x18 1024
    11948:        00fc8ab3        add x21 x25 x15
    1194c:        7a069c63        bne x13 x0 1976
    11950:        0cc12b03        lw x22 204 x2
    11954:        01812783        lw x15 24 x2
    11958:        00fb4663        blt x22 x15 12
    1195c:        00197693        andi x13 x18 1
    11960:        1c068ae3        beq x13 x0 2516
    11964:        03012683        lw x13 48 x2
    11968:        02812783        lw x15 40 x2
    1196c:        00700613        addi x12 x0 7
    11970:        00dd2023        sw x13 0 x26
    11974:        0e812683        lw x13 232 x2
    11978:        00f70733        add x14 x14 x15
    1197c:        00fd2223        sw x15 4 x26
    11980:        00168693        addi x13 x13 1
    11984:        0ee12623        sw x14 236 x2
    11988:        0ed12423        sw x13 232 x2
    1198c:        008d0d13        addi x26 x26 8
    11990:        00d65463        bge x12 x13 8
    11994:        05c0106f        jal x0 4188
    11998:        01812683        lw x13 24 x2
    1199c:        00dc87b3        add x15 x25 x13
    119a0:        41668b33        sub x22 x13 x22
    119a4:        415787b3        sub x15 x15 x21
    119a8:        000b0c13        addi x24 x22 0
    119ac:        0167d463        bge x15 x22 8
    119b0:        00078c13        addi x24 x15 0
    119b4:        03805863        bge x0 x24 48
    119b8:        0e812783        lw x15 232 x2
    119bc:        01870733        add x14 x14 x24
    119c0:        015d2023        sw x21 0 x26
    119c4:        00178793        addi x15 x15 1
    119c8:        018d2223        sw x24 4 x26
    119cc:        0ee12623        sw x14 236 x2
    119d0:        0ef12423        sw x15 232 x2
    119d4:        00700693        addi x13 x0 7
    119d8:        008d0d13        addi x26 x26 8
    119dc:        00f6d463        bge x13 x15 8
    119e0:        0980106f        jal x0 4248
    119e4:        fffc4793        xori x15 x24 -1
    119e8:        41f7d793        srai x15 x15 31
    119ec:        00fc7c33        and x24 x24 x15
    119f0:        418b0b33        sub x22 x22 x24
    119f4:        a1605463        bge x0 x22 -3576
    119f8:        0e812783        lw x15 232 x2
    119fc:        4d6bd263        bge x23 x22 1220
    11a00:        00700c13        addi x24 x0 7
    11a04:        00412a83        lw x21 4 x2
    11a08:        00c0006f        jal x0 12
    11a0c:        ff0b0b13        addi x22 x22 -16
    11a10:        4b6bd863        bge x23 x22 1200
    11a14:        01070713        addi x14 x14 16
    11a18:        00178793        addi x15 x15 1
    11a1c:        00012697        auipc x13 0x12
    11a20:        65468693        addi x13 x13 1620
    11a24:        00dd2023        sw x13 0 x26
    11a28:        017d2223        sw x23 4 x26
    11a2c:        0ee12623        sw x14 236 x2
    11a30:        0ef12423        sw x15 232 x2
    11a34:        008d0d13        addi x26 x26 8
    11a38:        fcfc5ae3        bge x24 x15 -44
    11a3c:        0e410613        addi x12 x2 228
    11a40:        000a8593        addi x11 x21 0
    11a44:        000a0513        addi x10 x20 0
    11a48:        651090ef        jal x1 40528 <__sprint_r>
    11a4c:        00050463        beq x10 x0 8
    11a50:        c95fe06f        jal x0 -4972
    11a54:        0ec12703        lw x14 236 x2
    11a58:        0e812783        lw x15 232 x2
    11a5c:        10c10d13        addi x26 x2 268
    11a60:        fadff06f        jal x0 -84
    11a64:        bed050e3        bge x0 x13 -1056
    11a68:        00dbc463        blt x23 x13 8
    11a6c:        4740106f        jal x0 5236
    11a70:        00700a93        addi x21 x0 7
    11a74:        00068d13        addi x26 x13 0
    11a78:        00412c83        lw x25 4 x2
    11a7c:        00080b13        addi x22 x16 0
    11a80:        0100006f        jal x0 16
    11a84:        ff0d0d13        addi x26 x26 -16
    11a88:        11abda63        bge x23 x26 276
    11a8c:        001b0b13        addi x22 x22 1
    11a90:        01070713        addi x14 x14 16
    11a94:        00012797        auipc x15 0x12
    11a98:        5dc78793        addi x15 x15 1500
    11a9c:        00fc2023        sw x15 0 x24
    11aa0:        017c2223        sw x23 4 x24
    11aa4:        0ee12623        sw x14 236 x2
    11aa8:        0f612423        sw x22 232 x2
    11aac:        008c0c13        addi x24 x24 8
    11ab0:        fd6adae3        bge x21 x22 -44
    11ab4:        0e410613        addi x12 x2 228
    11ab8:        000c8593        addi x11 x25 0
    11abc:        000a0513        addi x10 x20 0
    11ac0:        5d9090ef        jal x1 40408 <__sprint_r>
    11ac4:        00050463        beq x10 x0 8
    11ac8:        c1dfe06f        jal x0 -5092
    11acc:        0ec12703        lw x14 236 x2
    11ad0:        0e812b03        lw x22 232 x2
    11ad4:        10c10c13        addi x24 x2 268
    11ad8:        fadff06f        jal x0 -84
    11adc:        03000793        addi x15 x0 48
    11ae0:        1af107a3        sb x15 431 x2
    11ae4:        1af10c93        addi x25 x2 431
    11ae8:        ce9fe06f        jal x0 -4888
    11aec:        20097793        andi x15 x18 512
    11af0:        0a079ce3        bne x15 x0 2232
    11af4:        00000d93        addi x27 x0 0
    11af8:        c89fe06f        jal x0 -4984
    11afc:        00c12783        lw x15 12 x2
    11b00:        0007a703        lw x14 0 x15
    11b04:        00478793        addi x15 x15 4
    11b08:        00f12623        sw x15 12 x2
    11b0c:        00072583        lw x11 0 x14
    11b10:        00472603        lw x12 4 x14
    11b14:        00872683        lw x13 8 x14
    11b18:        00c72703        lw x14 12 x14
    11b1c:        0eb12823        sw x11 240 x2
    11b20:        0ec12a23        sw x12 244 x2
    11b24:        0ed12c23        sw x13 248 x2
    11b28:        0ee12e23        sw x14 252 x2
    11b2c:        a4cff06f        jal x0 -3508
    11b30:        03000793        addi x15 x0 48
    11b34:        00296913        ori x18 x18 2
    11b38:        0cf10423        sb x15 200 x2
    11b3c:        0d5104a3        sb x21 201 x2
    11b40:        bff97993        andi x19 x18 -1025
    11b44:        00200793        addi x15 x0 2
    11b48:        c55fe06f        jal x0 -5036
    11b4c:        00812603        lw x12 8 x2
    11b50:        0006a783        lw x15 0 x13
    11b54:        00e12623        sw x14 12 x2
    11b58:        41f65693        srai x13 x12 31
    11b5c:        00c7a023        sw x12 0 x15
    11b60:        00d7a223        sw x13 4 x15
    11b64:        00048c93        addi x25 x9 0
    11b68:        dd1fe06f        jal x0 -4656
    11b6c:        03c12783        lw x15 60 x2
    11b70:        0004ce03        lbu x28 0 x9
    11b74:        00079463        bne x15 x0 8
    11b78:        a65fe06f        jal x0 -5532
    11b7c:        0007c783        lbu x15 0 x15
    11b80:        00079463        bne x15 x0 8
    11b84:        a59fe06f        jal x0 -5544
    11b88:        40096913        ori x18 x18 1024
    11b8c:        a51fe06f        jal x0 -5552
    11b90:        00068b13        addi x22 x13 0
    11b94:        d76046e3        blt x0 x22 -660
    11b98:        d91ff06f        jal x0 -624
    11b9c:        000d0693        addi x13 x26 0
    11ba0:        001b0a93        addi x21 x22 1
    11ba4:        008c0793        addi x15 x24 8
    11ba8:        00d70733        add x14 x14 x13
    11bac:        00012617        auipc x12 0x12
    11bb0:        4c460613        addi x12 x12 1220
    11bb4:        00dc2223        sw x13 4 x24
    11bb8:        00cc2023        sw x12 0 x24
    11bbc:        0ee12623        sw x14 236 x2
    11bc0:        0f512423        sw x21 232 x2
    11bc4:        00700693        addi x13 x0 7
    11bc8:        6f56de63        bge x13 x21 1788
    11bcc:        00412583        lw x11 4 x2
    11bd0:        0e410613        addi x12 x2 228
    11bd4:        000a0513        addi x10 x20 0
    11bd8:        4c1090ef        jal x1 40128 <__sprint_r>
    11bdc:        00050463        beq x10 x0 8
    11be0:        b05fe06f        jal x0 -5372
    11be4:        0e812603        lw x12 232 x2
    11be8:        0ec12703        lw x14 236 x2
    11bec:        11410d13        addi x26 x2 276
    11bf0:        00160a93        addi x21 x12 1
    11bf4:        10c10c13        addi x24 x2 268
    11bf8:        a4dff06f        jal x0 -1460
    11bfc:        00412583        lw x11 4 x2
    11c00:        0e410613        addi x12 x2 228
    11c04:        000a0513        addi x10 x20 0
    11c08:        491090ef        jal x1 40080 <__sprint_r>
    11c0c:        00050463        beq x10 x0 8
    11c10:        ad5fe06f        jal x0 -5420
    11c14:        0ec12703        lw x14 236 x2
    11c18:        10c10d13        addi x26 x2 268
    11c1c:        fa8ff06f        jal x0 -2136
    11c20:        0014ce03        lbu x28 1 x9
    11c24:        20096913        ori x18 x18 512
    11c28:        00148493        addi x9 x9 1
    11c2c:        9b1fe06f        jal x0 -5712
    11c30:        0014ce03        lbu x28 1 x9
    11c34:        02096913        ori x18 x18 32
    11c38:        00148493        addi x9 x9 1
    11c3c:        9a1fe06f        jal x0 -5728
    11c40:        00600793        addi x15 x0 6
    11c44:        00030b13        addi x22 x6 0
    11c48:        6e67e263        bltu x15 x6 1764
    11c4c:        000b0993        addi x19 x22 0
    11c50:        01812623        sw x24 12 x2
    11c54:        00012c97        auipc x25 0x12
    11c58:        464c8c93        addi x25 x25 1124
    11c5c:        ec1fe06f        jal x0 -4416
    11c60:        0e812683        lw x13 232 x2
    11c64:        456bd863        bge x23 x22 1104
    11c68:        00700a93        addi x21 x0 7
    11c6c:        00412c03        lw x24 4 x2
    11c70:        00c0006f        jal x0 12
    11c74:        ff0b0b13        addi x22 x22 -16
    11c78:        436bde63        bge x23 x22 1084
    11c7c:        01070713        addi x14 x14 16
    11c80:        00168693        addi x13 x13 1
    11c84:        00012797        auipc x15 0x12
    11c88:        3ec78793        addi x15 x15 1004
    11c8c:        00fd2023        sw x15 0 x26
    11c90:        017d2223        sw x23 4 x26
    11c94:        0ee12623        sw x14 236 x2
    11c98:        0ed12423        sw x13 232 x2
    11c9c:        008d0d13        addi x26 x26 8
    11ca0:        fcdadae3        bge x21 x13 -44
    11ca4:        0e410613        addi x12 x2 228
    11ca8:        000c0593        addi x11 x24 0
    11cac:        000a0513        addi x10 x20 0
    11cb0:        3e9090ef        jal x1 39912 <__sprint_r>
    11cb4:        00050463        beq x10 x0 8
    11cb8:        a2dfe06f        jal x0 -5588
    11cbc:        0ec12703        lw x14 236 x2
    11cc0:        0e812683        lw x13 232 x2
    11cc4:        10c10d13        addi x26 x2 268
    11cc8:        fadff06f        jal x0 -84
    11ccc:        000c8913        addi x18 x25 0
    11cd0:        8e9fe06f        jal x0 -5912
    11cd4:        00412583        lw x11 4 x2
    11cd8:        0e410613        addi x12 x2 228
    11cdc:        000a0513        addi x10 x20 0
    11ce0:        3b9090ef        jal x1 39864 <__sprint_r>
    11ce4:        00050463        beq x10 x0 8
    11ce8:        9fdfe06f        jal x0 -5636
    11cec:        0ec12703        lw x14 236 x2
    11cf0:        0e812b03        lw x22 232 x2
    11cf4:        10c10c13        addi x24 x2 268
    11cf8:        9c9ff06f        jal x0 -1592
    11cfc:        00412583        lw x11 4 x2
    11d00:        0e410613        addi x12 x2 228
    11d04:        000a0513        addi x10 x20 0
    11d08:        391090ef        jal x1 39824 <__sprint_r>
    11d0c:        00050463        beq x10 x0 8
    11d10:        9d5fe06f        jal x0 -5676
    11d14:        0ec12703        lw x14 236 x2
    11d18:        0e812b03        lw x22 232 x2
    11d1c:        10c10c13        addi x24 x2 268
    11d20:        9cdff06f        jal x0 -1588
    11d24:        0e812683        lw x13 232 x2
    11d28:        00012597        auipc x11 0x12
    11d2c:        39858593        addi x11 x11 920
    11d30:        00bd2023        sw x11 0 x26
    11d34:        00170713        addi x14 x14 1
    11d38:        00100593        addi x11 x0 1
    11d3c:        00168693        addi x13 x13 1
    11d40:        00bd2223        sw x11 4 x26
    11d44:        0ee12623        sw x14 236 x2
    11d48:        0ed12423        sw x13 232 x2
    11d4c:        00700593        addi x11 x0 7
    11d50:        008d0d13        addi x26 x26 8
    11d54:        58d5c063        blt x11 x13 1408
    11d58:        20061e63        bne x12 x0 540
    11d5c:        01812783        lw x15 24 x2
    11d60:        00197693        andi x13 x18 1
    11d64:        00f6e6b3        or x13 x13 x15
    11d68:        00069463        bne x13 x0 8
    11d6c:        e91fe06f        jal x0 -4464
    11d70:        03012683        lw x13 48 x2
    11d74:        02812783        lw x15 40 x2
    11d78:        00700613        addi x12 x0 7
    11d7c:        00dd2023        sw x13 0 x26
    11d80:        0e812683        lw x13 232 x2
    11d84:        00e78733        add x14 x15 x14
    11d88:        00fd2223        sw x15 4 x26
    11d8c:        00168693        addi x13 x13 1
    11d90:        0ee12623        sw x14 236 x2
    11d94:        0ed12423        sw x13 232 x2
    11d98:        008d0893        addi x17 x26 8
    11d9c:        62d64063        blt x12 x13 1568
    11da0:        01812783        lw x15 24 x2
    11da4:        00168693        addi x13 x13 1
    11da8:        0198a023        sw x25 0 x17
    11dac:        00e78733        add x14 x15 x14
    11db0:        00f8a223        sw x15 4 x17
    11db4:        0ee12623        sw x14 236 x2
    11db8:        0ed12423        sw x13 232 x2
    11dbc:        00700793        addi x15 x0 7
    11dc0:        00888d13        addi x26 x17 8
    11dc4:        00d7c463        blt x15 x13 8
    11dc8:        e35fe06f        jal x0 -4556
    11dcc:        89dff06f        jal x0 -1892
    11dd0:        1b010c93        addi x25 x2 432
    11dd4:        00000793        addi x15 x0 0
    11dd8:        4009f913        andi x18 x19 1024
    11ddc:        00912823        sw x9 16 x2
    11de0:        01312a23        sw x19 20 x2
    11de4:        0ff00b13        addi x22 x0 255
    11de8:        000c8993        addi x19 x25 0
    11dec:        02612023        sw x6 32 x2
    11df0:        000a0c93        addi x25 x20 0
    11df4:        03c12483        lw x9 60 x2
    11df8:        000d8a13        addi x20 x27 0
    11dfc:        000d0d93        addi x27 x26 0
    11e00:        00040d13        addi x26 x8 0
    11e04:        00078413        addi x8 x15 0
    11e08:        0240006f        jal x0 36
    11e0c:        00a00613        addi x12 x0 10
    11e10:        00000693        addi x13 x0 0
    11e14:        000c0513        addi x10 x24 0
    11e18:        000a0593        addi x11 x20 0
    11e1c:        31d0d0ef        jal x1 56092 <__udivdi3>
    11e20:        2c0a0ee3        beq x20 x0 2780
    11e24:        00050c13        addi x24 x10 0
    11e28:        00058a13        addi x20 x11 0
    11e2c:        00a00613        addi x12 x0 10
    11e30:        00000693        addi x13 x0 0
    11e34:        000c0513        addi x10 x24 0
    11e38:        000a0593        addi x11 x20 0
    11e3c:        7310d0ef        jal x1 57136 <__umoddi3>
    11e40:        03050513        addi x10 x10 48
    11e44:        fea98fa3        sb x10 -1 x19
    11e48:        00140413        addi x8 x8 1
    11e4c:        fff98993        addi x19 x19 -1
    11e50:        fa090ee3        beq x18 x0 -68
    11e54:        0004c683        lbu x13 0 x9
    11e58:        fad41ae3        bne x8 x13 -76
    11e5c:        fb6408e3        beq x8 x22 -80
    11e60:        240a1ee3        bne x20 x0 2652
    11e64:        00900793        addi x15 x0 9
    11e68:        2587eae3        bltu x15 x24 2644
    11e6c:        000c8a13        addi x20 x25 0
    11e70:        00098c93        addi x25 x19 0
    11e74:        01412983        lw x19 20 x2
    11e78:        1b010793        addi x15 x2 432
    11e7c:        00812c23        sw x8 24 x2
    11e80:        02912e23        sw x9 60 x2
    11e84:        000d0413        addi x8 x26 0
    11e88:        02012303        lw x6 32 x2
    11e8c:        01012483        lw x9 16 x2
    11e90:        000d8d13        addi x26 x27 0
    11e94:        41978b33        sub x22 x15 x25
    11e98:        00098913        addi x18 x19 0
    11e9c:        935fe06f        jal x0 -5836
    11ea0:        00412583        lw x11 4 x2
    11ea4:        0e410613        addi x12 x2 228
    11ea8:        000a0513        addi x10 x20 0
    11eac:        1ed090ef        jal x1 39404 <__sprint_r>
    11eb0:        00050463        beq x10 x0 8
    11eb4:        831fe06f        jal x0 -6096
    11eb8:        10c10d13        addi x26 x2 268
    11ebc:        cb8ff06f        jal x0 -2888
    11ec0:        00012697        auipc x13 0x12
    11ec4:        1b068693        addi x13 x13 432
    11ec8:        01670733        add x14 x14 x22
    11ecc:        00178793        addi x15 x15 1
    11ed0:        00dd2023        sw x13 0 x26
    11ed4:        d11fe06f        jal x0 -4848
    11ed8:        0f012783        lw x15 240 x2
    11edc:        0a010593        addi x11 x2 160
    11ee0:        0b010513        addi x10 x2 176
    11ee4:        0af12823        sw x15 176 x2
    11ee8:        0f412783        lw x15 244 x2
    11eec:        0a012023        sw x0 160 x2
    11ef0:        0a012223        sw x0 164 x2
    11ef4:        0af12a23        sw x15 180 x2
    11ef8:        0f812783        lw x15 248 x2
    11efc:        0a012423        sw x0 168 x2
    11f00:        0a012623        sw x0 172 x2
    11f04:        0af12c23        sw x15 184 x2
    11f08:        0fc12783        lw x15 252 x2
    11f0c:        0af12e23        sw x15 188 x2
    11f10:        1040f0ef        jal x1 61700 <__lttf2>
    11f14:        2c0546e3        blt x10 x0 2764
    11f18:        0c714703        lbu x14 199 x2
    11f1c:        04700693        addi x13 x0 71
    11f20:        00012c97        auipc x25 0x12
    11f24:        160c8c93        addi x25 x25 352
    11f28:        3d56ca63        blt x13 x21 980
    11f2c:        00012823        sw x0 16 x2
    11f30:        02012223        sw x0 36 x2
    11f34:        02012023        sw x0 32 x2
    11f38:        00012a23        sw x0 20 x2
    11f3c:        f7f97913        andi x18 x18 -129
    11f40:        00300993        addi x19 x0 3
    11f44:        00300b13        addi x22 x0 3
    11f48:        00000313        addi x6 x0 0
    11f4c:        00070463        beq x14 x0 8
    11f50:        8a5fe06f        jal x0 -5980
    11f54:        bddfe06f        jal x0 -5156
    11f58:        00c12783        lw x15 12 x2
    11f5c:        00048c93        addi x25 x9 0
    11f60:        0007a783        lw x15 0 x15
    11f64:        00e12623        sw x14 12 x2
    11f68:        00812703        lw x14 8 x2
    11f6c:        00e7a023        sw x14 0 x15
    11f70:        9c9fe06f        jal x0 -5688
    11f74:        03012683        lw x13 48 x2
    11f78:        02812783        lw x15 40 x2
    11f7c:        00700593        addi x11 x0 7
    11f80:        00dd2023        sw x13 0 x26
    11f84:        0e812683        lw x13 232 x2
    11f88:        00e78733        add x14 x15 x14
    11f8c:        00fd2223        sw x15 4 x26
    11f90:        00168693        addi x13 x13 1
    11f94:        0ee12623        sw x14 236 x2
    11f98:        0ed12423        sw x13 232 x2
    11f9c:        008d0893        addi x17 x26 8
    11fa0:        40d5ce63        blt x11 x13 1052
    11fa4:        de065ee3        bge x12 x0 -516
    11fa8:        ff000593        addi x11 x0 -16
    11fac:        40c00b33        sub x22 x0 x12
    11fb0:        32b654e3        bge x12 x11 2856
    11fb4:        00700c13        addi x24 x0 7
    11fb8:        00412a83        lw x21 4 x2
    11fbc:        00c0006f        jal x0 12
    11fc0:        ff0b0b13        addi x22 x22 -16
    11fc4:        316bdae3        bge x23 x22 2836
    11fc8:        01070713        addi x14 x14 16
    11fcc:        00168693        addi x13 x13 1
    11fd0:        00012797        auipc x15 0x12
    11fd4:        0a078793        addi x15 x15 160
    11fd8:        00f8a023        sw x15 0 x17
    11fdc:        0178a223        sw x23 4 x17
    11fe0:        0ee12623        sw x14 236 x2
    11fe4:        0ed12423        sw x13 232 x2
    11fe8:        00888893        addi x17 x17 8
    11fec:        fcdc5ae3        bge x24 x13 -44
    11ff0:        0e410613        addi x12 x2 228
    11ff4:        000a8593        addi x11 x21 0
    11ff8:        000a0513        addi x10 x20 0
    11ffc:        09d090ef        jal x1 39068 <__sprint_r>
    12000:        00050463        beq x10 x0 8
    12004:        ee0fe06f        jal x0 -6432
    12008:        0ec12703        lw x14 236 x2
    1200c:        0e812683        lw x13 232 x2
    12010:        10c10893        addi x17 x2 268
    12014:        fadff06f        jal x0 -84
    12018:        000c8513        addi x10 x25 0
    1201c:        369060ef        jal x1 27496 <strlen>
    12020:        00050b13        addi x22 x10 0
    12024:        a6dfe06f        jal x0 -5524
    12028:        20097713        andi x14 x18 512
    1202c:        36070063        beq x14 x0 864
    12030:        00c12703        lw x14 12 x2
    12034:        00090993        addi x19 x18 0
    12038:        00f12623        sw x15 12 x2
    1203c:        00070c03        lb x24 0 x14
    12040:        41fc5d93        srai x27 x24 31
    12044:        000d8713        addi x14 x27 0
    12048:        989fe06f        jal x0 -5752
    1204c:        20097713        andi x14 x18 512
    12050:        32070863        beq x14 x0 816
    12054:        0ffc7c13        andi x24 x24 255
    12058:        00000d93        addi x27 x0 0
    1205c:        00f12623        sw x15 12 x2
    12060:        a00ff06f        jal x0 -3584
    12064:        20097713        andi x14 x18 512
    12068:        30070263        beq x14 x0 772
    1206c:        00f12623        sw x15 12 x2
    12070:        0ffc7c13        andi x24 x24 255
    12074:        00000d93        addi x27 x0 0
    12078:        00090993        addi x19 x18 0
    1207c:        00100793        addi x15 x0 1
    12080:        f1cfe06f        jal x0 -6372
    12084:        0fc12783        lw x15 252 x2
    12088:        3207d663        bge x15 x0 812
    1208c:        02d00793        addi x15 x0 45
    12090:        0cf103a3        sb x15 199 x2
    12094:        02d00713        addi x14 x0 45
    12098:        04700693        addi x13 x0 71
    1209c:        00012c97        auipc x25 0x12
    120a0:        fecc8c93        addi x25 x25 -20
    120a4:        e956d4e3        bge x13 x21 -376
    120a8:        00012c97        auipc x25 0x12
    120ac:        fe4c8c93        addi x25 x25 -28
    120b0:        e7dff06f        jal x0 -388
    120b4:        01670733        add x14 x14 x22
    120b8:        00168693        addi x13 x13 1
    120bc:        00012797        auipc x15 0x12
    120c0:        fb478793        addi x15 x15 -76
    120c4:        00fd2023        sw x15 0 x26
    120c8:        016d2223        sw x22 4 x26
    120cc:        0ee12623        sw x14 236 x2
    120d0:        0ed12423        sw x13 232 x2
    120d4:        00700613        addi x12 x0 7
    120d8:        008d0d13        addi x26 x26 8
    120dc:        86d652e3        bge x12 x13 -1948
    120e0:        00412583        lw x11 4 x2
    120e4:        0e410613        addi x12 x2 228
    120e8:        000a0513        addi x10 x20 0
    120ec:        7ac090ef        jal x1 38828 <__sprint_r>
    120f0:        00050463        beq x10 x0 8
    120f4:        df0fe06f        jal x0 -6672
    120f8:        0ec12703        lw x14 236 x2
    120fc:        10c10d13        addi x26 x2 268
    12100:        841ff06f        jal x0 -1984
    12104:        01812783        lw x15 24 x2
    12108:        02012c03        lw x24 32 x2
    1210c:        00912a23        sw x9 20 x2
    12110:        03212a23        sw x18 52 x2
    12114:        04812423        sw x8 72 x2
    12118:        02412483        lw x9 36 x2
    1211c:        03312023        sw x19 32 x2
    12120:        03912223        sw x25 36 x2
    12124:        00fc8db3        add x27 x25 x15
    12128:        00700b13        addi x22 x0 7
    1212c:        04012903        lw x18 64 x2
    12130:        03c12403        lw x8 60 x2
    12134:        000d0693        addi x13 x26 0
    12138:        00412983        lw x19 4 x2
    1213c:        04412c83        lw x25 68 x2
    12140:        080c0863        beq x24 x0 144
    12144:        08049863        bne x9 x0 144
    12148:        fff40413        addi x8 x8 -1
    1214c:        fffc0c13        addi x24 x24 -1
    12150:        0e812783        lw x15 232 x2
    12154:        01270733        add x14 x14 x18
    12158:        0196a023        sw x25 0 x13
    1215c:        00178793        addi x15 x15 1
    12160:        0126a223        sw x18 4 x13
    12164:        0ee12623        sw x14 236 x2
    12168:        0ef12423        sw x15 232 x2
    1216c:        00868693        addi x13 x13 8
    12170:        10fb4463        blt x22 x15 264
    12174:        00044603        lbu x12 0 x8
    12178:        415d85b3        sub x11 x27 x21
    1217c:        00060d13        addi x26 x12 0
    12180:        00c5d463        bge x11 x12 8
    12184:        00058d13        addi x26 x11 0
    12188:        03a05663        bge x0 x26 44
    1218c:        0e812603        lw x12 232 x2
    12190:        01a70733        add x14 x14 x26
    12194:        0156a023        sw x21 0 x13
    12198:        00160613        addi x12 x12 1
    1219c:        01a6a223        sw x26 4 x13
    121a0:        0ee12623        sw x14 236 x2
    121a4:        0ec12423        sw x12 232 x2
    121a8:        0ecb4a63        blt x22 x12 244
    121ac:        00044603        lbu x12 0 x8
    121b0:        00868693        addi x13 x13 8
    121b4:        fffd4593        xori x11 x26 -1
    121b8:        41f5d593        srai x11 x11 31
    121bc:        00bd77b3        and x15 x26 x11
    121c0:        40f60d33        sub x26 x12 x15
    121c4:        01a04c63        blt x0 x26 24
    121c8:        00ca8ab3        add x21 x21 x12
    121cc:        f60c1ce3        bne x24 x0 -136
    121d0:        5e048663        beq x9 x0 1516
    121d4:        fff48493        addi x9 x9 -1
    121d8:        f79ff06f        jal x0 -136
    121dc:        0e812603        lw x12 232 x2
    121e0:        01abc863        blt x23 x26 16
    121e4:        0600006f        jal x0 96
    121e8:        ff0d0d13        addi x26 x26 -16
    121ec:        05abdc63        bge x23 x26 88
    121f0:        01070713        addi x14 x14 16
    121f4:        00160613        addi x12 x12 1
    121f8:        00012797        auipc x15 0x12
    121fc:        e7878793        addi x15 x15 -392
    12200:        00f6a023        sw x15 0 x13
    12204:        0176a223        sw x23 4 x13
    12208:        0ee12623        sw x14 236 x2
    1220c:        0ec12423        sw x12 232 x2
    12210:        00868693        addi x13 x13 8
    12214:        fccb5ae3        bge x22 x12 -44
    12218:        0e410613        addi x12 x2 228
    1221c:        00098593        addi x11 x19 0
    12220:        000a0513        addi x10 x20 0
    12224:        674090ef        jal x1 38516 <__sprint_r>
    12228:        00050463        beq x10 x0 8
    1222c:        cb8fe06f        jal x0 -6984
    12230:        ff0d0d13        addi x26 x26 -16
    12234:        0ec12703        lw x14 236 x2
    12238:        0e812603        lw x12 232 x2
    1223c:        10c10693        addi x13 x2 268
    12240:        fbabc8e3        blt x23 x26 -80
    12244:        01a70733        add x14 x14 x26
    12248:        00160613        addi x12 x12 1
    1224c:        00012797        auipc x15 0x12
    12250:        e2478793        addi x15 x15 -476
    12254:        00f6a023        sw x15 0 x13
    12258:        01a6a223        sw x26 4 x13
    1225c:        0ee12623        sw x14 236 x2
    12260:        0ec12423        sw x12 232 x2
    12264:        62cb4663        blt x22 x12 1580
    12268:        00044603        lbu x12 0 x8
    1226c:        00868693        addi x13 x13 8
    12270:        00ca8ab3        add x21 x21 x12
    12274:        f59ff06f        jal x0 -168
    12278:        0e410613        addi x12 x2 228
    1227c:        00098593        addi x11 x19 0
    12280:        000a0513        addi x10 x20 0
    12284:        614090ef        jal x1 38420 <__sprint_r>
    12288:        00050463        beq x10 x0 8
    1228c:        c58fe06f        jal x0 -7080
    12290:        0ec12703        lw x14 236 x2
    12294:        10c10693        addi x13 x2 268
    12298:        eddff06f        jal x0 -292
    1229c:        0e410613        addi x12 x2 228
    122a0:        00098593        addi x11 x19 0
    122a4:        000a0513        addi x10 x20 0
    122a8:        5f0090ef        jal x1 38384 <__sprint_r>
    122ac:        00050463        beq x10 x0 8
    122b0:        c34fe06f        jal x0 -7116
    122b4:        00044603        lbu x12 0 x8
    122b8:        0ec12703        lw x14 236 x2
    122bc:        10c10693        addi x13 x2 268
    122c0:        ef5ff06f        jal x0 -268
    122c4:        001a8a93        addi x21 x21 1
    122c8:        00878d13        addi x26 x15 8
    122cc:        00078c13        addi x24 x15 0
    122d0:        b74ff06f        jal x0 -3212
    122d4:        00412583        lw x11 4 x2
    122d8:        0e410613        addi x12 x2 228
    122dc:        000a0513        addi x10 x20 0
    122e0:        5b8090ef        jal x1 38328 <__sprint_r>
    122e4:        00050463        beq x10 x0 8
    122e8:        bfcfe06f        jal x0 -7172
    122ec:        0cc12603        lw x12 204 x2
    122f0:        0ec12703        lw x14 236 x2
    122f4:        10c10d13        addi x26 x2 268
    122f8:        a61ff06f        jal x0 -1440
    122fc:        00012c97        auipc x25 0x12
    12300:        d88c8c93        addi x25 x25 -632
    12304:        c29ff06f        jal x0 -984
    12308:        00412583        lw x11 4 x2
    1230c:        0e410613        addi x12 x2 228
    12310:        000a0513        addi x10 x20 0
    12314:        584090ef        jal x1 38276 <__sprint_r>
    12318:        00050463        beq x10 x0 8
    1231c:        bc8fe06f        jal x0 -7224
    12320:        0ec12703        lw x14 236 x2
    12324:        10c10d13        addi x26 x2 268
    12328:        e00ff06f        jal x0 -2560
    1232c:        00600b13        addi x22 x0 6
    12330:        91dff06f        jal x0 -1764
    12334:        01812683        lw x13 24 x2
    12338:        00dc87b3        add x15 x25 x13
    1233c:        41668b33        sub x22 x13 x22
    12340:        41578c33        sub x24 x15 x21
    12344:        eb8b5063        bge x22 x24 -2400
    12348:        000b0c13        addi x24 x22 0
    1234c:        e98ff06f        jal x0 -2408
    12350:        00c12783        lw x15 12 x2
    12354:        00e12623        sw x14 12 x2
    12358:        00812703        lw x14 8 x2
    1235c:        0007a783        lw x15 0 x15
    12360:        00048c93        addi x25 x9 0
    12364:        00e79023        sh x14 0 x15
    12368:        dd0fe06f        jal x0 -6704
    1236c:        00f12623        sw x15 12 x2
    12370:        00000d93        addi x27 x0 0
    12374:        00090993        addi x19 x18 0
    12378:        00100793        addi x15 x0 1
    1237c:        c20fe06f        jal x0 -7136
    12380:        00000d93        addi x27 x0 0
    12384:        00f12623        sw x15 12 x2
    12388:        ed9fe06f        jal x0 -4392
    1238c:        00c12703        lw x14 12 x2
    12390:        00090993        addi x19 x18 0
    12394:        00f12623        sw x15 12 x2
    12398:        00072c03        lw x24 0 x14
    1239c:        41fc5d93        srai x27 x24 31
    123a0:        000d8713        addi x14 x27 0
    123a4:        e2cfe06f        jal x0 -6612
    123a8:        0ffc7c13        andi x24 x24 255
    123ac:        00000d93        addi x27 x0 0
    123b0:        bd0fe06f        jal x0 -7216
    123b4:        0c714703        lbu x14 199 x2
    123b8:        ce1ff06f        jal x0 -800
    123bc:        00412583        lw x11 4 x2
    123c0:        0e410613        addi x12 x2 228
    123c4:        000a0513        addi x10 x20 0
    123c8:        4d0090ef        jal x1 38096 <__sprint_r>
    123cc:        00050463        beq x10 x0 8
    123d0:        b14fe06f        jal x0 -7404
    123d4:        0cc12603        lw x12 204 x2
    123d8:        0ec12703        lw x14 236 x2
    123dc:        0e812683        lw x13 232 x2
    123e0:        10c10893        addi x17 x2 268
    123e4:        9a065ee3        bge x12 x0 -1604
    123e8:        bc1ff06f        jal x0 -1088
    123ec:        03000793        addi x15 x0 48
    123f0:        0cf10423        sb x15 200 x2
    123f4:        05800793        addi x15 x0 88
    123f8:        0cf104a3        sb x15 201 x2
    123fc:        00296793        ori x15 x18 2
    12400:        06300713        addi x14 x0 99
    12404:        04f12a23        sw x15 84 x2
    12408:        00012823        sw x0 16 x2
    1240c:        14c10c93        addi x25 x2 332
    12410:        7a674063        blt x14 x6 1952
    12414:        0fc12b03        lw x22 252 x2
    12418:        fdfaf793        andi x15 x21 -33
    1241c:        04f12423        sw x15 72 x2
    12420:        04012e23        sw x0 92 x2
    12424:        10296913        ori x18 x18 258
    12428:        0f012f03        lw x30 240 x2
    1242c:        0f412d83        lw x27 244 x2
    12430:        0f812e83        lw x29 248 x2
    12434:        440b4463        blt x22 x0 1096
    12438:        06100713        addi x14 x0 97
    1243c:        0cea8ee3        beq x21 x14 2268
    12440:        04100713        addi x14 x0 65
    12444:        00ea8463        beq x21 x14 8
    12448:        9c1fe06f        jal x0 -5696
    1244c:        0b010c13        addi x24 x2 176
    12450:        000c0513        addi x10 x24 0
    12454:        02612a23        sw x6 52 x2
    12458:        0be12823        sw x30 176 x2
    1245c:        0bd12c23        sw x29 184 x2
    12460:        0b612e23        sw x22 188 x2
    12464:        0bb12a23        sw x27 180 x2
    12468:        700110ef        jal x1 71424 <__trunctfdf2>
    1246c:        0cc10613        addi x12 x2 204
    12470:        1f4060ef        jal x1 25076 <frexp>
    12474:        00058613        addi x12 x11 0
    12478:        00050593        addi x11 x10 0
    1247c:        000c0513        addi x10 x24 0
    12480:        4dc110ef        jal x1 70876 <__extenddftf2>
    12484:        0b012703        lw x14 176 x2
    12488:        09010793        addi x15 x2 144
    1248c:        0a010993        addi x19 x2 160
    12490:        08e12823        sw x14 144 x2
    12494:        0b412703        lw x14 180 x2
    12498:        08010613        addi x12 x2 128
    1249c:        00078593        addi x11 x15 0
    124a0:        08e12a23        sw x14 148 x2
    124a4:        0b812703        lw x14 184 x2
    124a8:        00098513        addi x10 x19 0
    124ac:        00078b13        addi x22 x15 0
    124b0:        08e12c23        sw x14 152 x2
    124b4:        0bc12703        lw x14 188 x2
    124b8:        04c12623        sw x12 76 x2
    124bc:        05312c23        sw x19 88 x2
    124c0:        08e12e23        sw x14 156 x2
    124c4:        3ffc0737        lui x14 0x3ffc0
    124c8:        08e12623        sw x14 140 x2
    124cc:        08012023        sw x0 128 x2
    124d0:        08012223        sw x0 132 x2
    124d4:        08012423        sw x0 136 x2
    124d8:        4810e0ef        jal x1 60544 <__multf3>
    124dc:        0a012703        lw x14 160 x2
    124e0:        0a412683        lw x13 164 x2
    124e4:        0a812803        lw x16 168 x2
    124e8:        0ac12e83        lw x29 172 x2
    124ec:        00098593        addi x11 x19 0
    124f0:        000c0513        addi x10 x24 0
    124f4:        0ae12823        sw x14 176 x2
    124f8:        02e12223        sw x14 36 x2
    124fc:        0ad12a23        sw x13 180 x2
    12500:        02d12023        sw x13 32 x2
    12504:        0b012c23        sw x16 184 x2
    12508:        01012c23        sw x16 24 x2
    1250c:        0bd12e23        sw x29 188 x2
    12510:        01d12a23        sw x29 20 x2
    12514:        0a012023        sw x0 160 x2
    12518:        0a012223        sw x0 164 x2
    1251c:        0a012423        sw x0 168 x2
    12520:        0a012623        sw x0 172 x2
    12524:        0e10e0ef        jal x1 59616 <__netf2>
    12528:        01412e83        lw x29 20 x2
    1252c:        01812803        lw x16 24 x2
    12530:        02012683        lw x13 32 x2
    12534:        02412703        lw x14 36 x2
    12538:        03412303        lw x6 52 x2
    1253c:        00051663        bne x10 x0 12
    12540:        00100613        addi x12 x0 1
    12544:        0cc12623        sw x12 204 x2
    12548:        00012797        auipc x15 0x12
    1254c:        b5c78793        addi x15 x15 -1188
    12550:        02f12a23        sw x15 52 x2
    12554:        fff30d93        addi x27 x6 -1
    12558:        01912a23        sw x25 20 x2
    1255c:        06912023        sw x9 96 x2
    12560:        07512223        sw x21 100 x2
    12564:        06812623        sw x8 108 x2
    12568:        07a12a23        sw x26 116 x2
    1256c:        07412c23        sw x20 120 x2
    12570:        07912e23        sw x25 124 x2
    12574:        07212423        sw x18 104 x2
    12578:        000d8c93        addi x25 x27 0
    1257c:        06612823        sw x6 112 x2
    12580:        00070d13        addi x26 x14 0
    12584:        00068d93        addi x27 x13 0
    12588:        00080a13        addi x20 x16 0
    1258c:        000e8a93        addi x21 x29 0
    12590:        000b0493        addi x9 x22 0
    12594:        05812403        lw x8 88 x2
    12598:        0540006f        jal x0 84
    1259c:        00040593        addi x11 x8 0
    125a0:        000c0513        addi x10 x24 0
    125a4:        02c12223        sw x12 36 x2
    125a8:        03e12023        sw x30 32 x2
    125ac:        01f12c23        sw x31 24 x2
    125b0:        0bf12a23        sw x31 180 x2
    125b4:        0be12c23        sw x30 184 x2
    125b8:        0ac12e23        sw x12 188 x2
    125bc:        0b212823        sw x18 176 x2
    125c0:        0a012023        sw x0 160 x2
    125c4:        0a012223        sw x0 164 x2
    125c8:        0a012423        sw x0 168 x2
    125cc:        0a012623        sw x0 172 x2
    125d0:        0350e0ef        jal x1 59444 <__netf2>
    125d4:        fffc8c93        addi x25 x25 -1
    125d8:        01812f83        lw x31 24 x2
    125dc:        02012f03        lw x30 32 x2
    125e0:        02412603        lw x12 36 x2
    125e4:        0e050463        beq x10 x0 232
    125e8:        01612a23        sw x22 20 x2
    125ec:        400307b7        lui x15 0x40030
    125f0:        00048613        addi x12 x9 0
    125f4:        00040593        addi x11 x8 0
    125f8:        000c0513        addi x10 x24 0
    125fc:        08f12e23        sw x15 156 x2
    12600:        0ba12023        sw x26 160 x2
    12604:        0bb12223        sw x27 164 x2
    12608:        0b412423        sw x20 168 x2
    1260c:        0b512623        sw x21 172 x2
    12610:        08012823        sw x0 144 x2
    12614:        08012a23        sw x0 148 x2
    12618:        08012c23        sw x0 152 x2
    1261c:        33d0e0ef        jal x1 60220 <__multf3>
    12620:        000c0513        addi x10 x24 0
    12624:        060110ef        jal x1 69728 <__fixtfsi>
    12628:        00050593        addi x11 x10 0
    1262c:        00050993        addi x19 x10 0
    12630:        000c0513        addi x10 x24 0
    12634:        0bc12b03        lw x22 188 x2
    12638:        0b012a83        lw x21 176 x2
    1263c:        0b412a03        lw x20 180 x2
    12640:        0b812903        lw x18 184 x2
    12644:        190110ef        jal x1 70032 <__floatsitf>
    12648:        0b012703        lw x14 176 x2
    1264c:        04c12603        lw x12 76 x2
    12650:        00048593        addi x11 x9 0
    12654:        08e12023        sw x14 128 x2
    12658:        0b412703        lw x14 180 x2
    1265c:        00040513        addi x10 x8 0
    12660:        09612e23        sw x22 156 x2
    12664:        08e12223        sw x14 132 x2
    12668:        0b812703        lw x14 184 x2
    1266c:        09512823        sw x21 144 x2
    12670:        09412a23        sw x20 148 x2
    12674:        08e12423        sw x14 136 x2
    12678:        0bc12703        lw x14 188 x2
    1267c:        09212c23        sw x18 152 x2
    12680:        08e12623        sw x14 140 x2
    12684:        2e10f0ef        jal x1 64224 <__subtf3>
    12688:        03412783        lw x15 52 x2
    1268c:        0a012903        lw x18 160 x2
    12690:        0a412f83        lw x31 164 x2
    12694:        01378733        add x14 x15 x19
    12698:        01412783        lw x15 20 x2
    1269c:        00074703        lbu x14 0 x14
    126a0:        0a812f03        lw x30 168 x2
    126a4:        0ac12603        lw x12 172 x2
    126a8:        00178b13        addi x22 x15 1
    126ac:        feeb0fa3        sb x14 -1 x22
    126b0:        05912823        sw x25 80 x2
    126b4:        fff00793        addi x15 x0 -1
    126b8:        00090d13        addi x26 x18 0
    126bc:        000f8d93        addi x27 x31 0
    126c0:        000f0a13        addi x20 x30 0
    126c4:        00060a93        addi x21 x12 0
    126c8:        ecfc9ae3        bne x25 x15 -300
    126cc:        07012303        lw x6 112 x2
    126d0:        05812583        lw x11 88 x2
    126d4:        00090293        addi x5 x18 0
    126d8:        3ffe0db7        lui x27 0x3ffe0
    126dc:        000c0513        addi x10 x24 0
    126e0:        00612c23        sw x6 24 x2
    126e4:        06012483        lw x9 96 x2
    126e8:        0a512823        sw x5 176 x2
    126ec:        06512023        sw x5 96 x2
    126f0:        0bf12a23        sw x31 180 x2
    126f4:        05f12623        sw x31 76 x2
    126f8:        0be12c23        sw x30 184 x2
    126fc:        03e12223        sw x30 36 x2
    12700:        0ac12e23        sw x12 188 x2
    12704:        02c12023        sw x12 32 x2
    12708:        0a012023        sw x0 160 x2
    1270c:        0a012223        sw x0 164 x2
    12710:        0a012423        sw x0 168 x2
    12714:        0bb12623        sw x27 172 x2
    12718:        7b80e0ef        jal x1 59320 <__gttf2>
    1271c:        06412a83        lw x21 100 x2
    12720:        06c12403        lw x8 108 x2
    12724:        07412d03        lw x26 116 x2
    12728:        07812a03        lw x20 120 x2
    1272c:        07c12c83        lw x25 124 x2
    12730:        06812903        lw x18 104 x2
    12734:        01812303        lw x6 24 x2
    12738:        48a04e63        blt x0 x10 1180
    1273c:        06012283        lw x5 96 x2
    12740:        04c12f83        lw x31 76 x2
    12744:        02412f03        lw x30 36 x2
    12748:        02012603        lw x12 32 x2
    1274c:        05812583        lw x11 88 x2
    12750:        000c0513        addi x10 x24 0
    12754:        0a512823        sw x5 176 x2
    12758:        0bf12a23        sw x31 180 x2
    1275c:        0be12c23        sw x30 184 x2
    12760:        0ac12e23        sw x12 188 x2
    12764:        0a012023        sw x0 160 x2
    12768:        0a012223        sw x0 164 x2
    1276c:        0a012423        sw x0 168 x2
    12770:        0bb12623        sw x27 172 x2
    12774:        6900e0ef        jal x1 59024 <__netf2>
    12778:        01812303        lw x6 24 x2
    1277c:        00051663        bne x10 x0 12
    12780:        0019f993        andi x19 x19 1
    12784:        44099863        bne x19 x0 1104
    12788:        05012783        lw x15 80 x2
    1278c:        03000693        addi x13 x0 48
    12790:        00178713        addi x14 x15 1
    12794:        00eb0733        add x14 x22 x14
    12798:        0007c863        blt x15 x0 16
    1279c:        001b0b13        addi x22 x22 1
    127a0:        fedb0fa3        sb x13 -1 x22
    127a4:        ff671ce3        bne x14 x22 -8
    127a8:        419b07b3        sub x15 x22 x25
    127ac:        00f12c23        sw x15 24 x2
    127b0:        ef0fe06f        jal x0 -6416
    127b4:        00090993        addi x19 x18 0
    127b8:        ac5fe06f        jal x0 -5436
    127bc:        02412c83        lw x25 36 x2
    127c0:        01812783        lw x15 24 x2
    127c4:        02812e23        sw x8 60 x2
    127c8:        00068d13        addi x26 x13 0
    127cc:        00fc86b3        add x13 x25 x15
    127d0:        01412483        lw x9 20 x2
    127d4:        03412903        lw x18 52 x2
    127d8:        04812403        lw x8 72 x2
    127dc:        02012983        lw x19 32 x2
    127e0:        9756f863        bgeu x13 x21 -3728
    127e4:        00068a93        addi x21 x13 0
    127e8:        968ff06f        jal x0 -3736
    127ec:        01412783        lw x15 20 x2
    127f0:        ffd00713        addi x14 x0 -3
    127f4:        00e7c463        blt x15 x14 8
    127f8:        00f35a63        bge x6 x15 20
    127fc:        ffea8a93        addi x21 x21 -2
    12800:        fdfaf793        andi x15 x21 -33
    12804:        04f12423        sw x15 72 x2
    12808:        ec0fe06f        jal x0 -6464
    1280c:        01812703        lw x14 24 x2
    12810:        01412783        lw x15 20 x2
    12814:        22e7c863        blt x15 x14 560
    12818:        05412703        lw x14 84 x2
    1281c:        00078b13        addi x22 x15 0
    12820:        00177713        andi x14 x14 1
    12824:        00070663        beq x14 x0 12
    12828:        02812703        lw x14 40 x2
    1282c:        00e78b33        add x22 x15 x14
    12830:        05412783        lw x15 84 x2
    12834:        4007f713        andi x14 x15 1024
    12838:        00070663        beq x14 x0 12
    1283c:        01412783        lw x15 20 x2
    12840:        40f04663        blt x0 x15 1036
    12844:        fffb4993        xori x19 x22 -1
    12848:        41f9d993        srai x19 x19 31
    1284c:        013b79b3        and x19 x22 x19
    12850:        06700a93        addi x21 x0 103
    12854:        02012223        sw x0 36 x2
    12858:        02012023        sw x0 32 x2
    1285c:        f8cfe06f        jal x0 -6260
    12860:        0c714703        lbu x14 199 x2
    12864:        00000313        addi x6 x0 0
    12868:        00070463        beq x14 x0 8
    1286c:        f89fd06f        jal x0 -8312
    12870:        ac0fe06f        jal x0 -7488
    12874:        00012823        sw x0 16 x2
    12878:        00070913        addi x18 x14 0
    1287c:        80000737        lui x14 0x80000
    12880:        02d00793        addi x15 x0 45
    12884:        01674b33        xor x22 x14 x22
    12888:        04f12e23        sw x15 92 x2
    1288c:        badff06f        jal x0 -1108
    12890:        0e410613        addi x12 x2 228
    12894:        00098593        addi x11 x19 0
    12898:        000a0513        addi x10 x20 0
    1289c:        7fd080ef        jal x1 36860 <__sprint_r>
    128a0:        00050463        beq x10 x0 8
    128a4:        e41fd06f        jal x0 -8640
    128a8:        00044603        lbu x12 0 x8
    128ac:        0ec12703        lw x14 236 x2
    128b0:        10c10693        addi x13 x2 268
    128b4:        00ca8ab3        add x21 x21 x12
    128b8:        915ff06f        jal x0 -1772
    128bc:        04012783        lw x15 64 x2
    128c0:        04412583        lw x11 68 x2
    128c4:        00000413        addi x8 x0 0
    128c8:        40f989b3        sub x19 x19 x15
    128cc:        00078613        addi x12 x15 0
    128d0:        00098513        addi x10 x19 0
    128d4:        33c060ef        jal x1 25404 <strncpy>
    128d8:        0014c803        lbu x16 1 x9
    128dc:        00a00613        addi x12 x0 10
    128e0:        00000693        addi x13 x0 0
    128e4:        01003833        sltu x16 x0 x16
    128e8:        000c0513        addi x10 x24 0
    128ec:        000a0593        addi x11 x20 0
    128f0:        010484b3        add x9 x9 x16
    128f4:        0440d0ef        jal x1 53316 <__udivdi3>
    128f8:        d2cff06f        jal x0 -2772
    128fc:        00900793        addi x15 x0 9
    12900:        d387e263        bltu x15 x24 -2780
    12904:        d68ff06f        jal x0 -2712
    12908:        0b010c13        addi x24 x2 176
    1290c:        00030693        addi x13 x6 0
    12910:        0cc10713        addi x14 x2 204
    12914:        0dc10813        addi x16 x2 220
    12918:        0d010793        addi x15 x2 208
    1291c:        00300613        addi x12 x0 3
    12920:        000c0593        addi x11 x24 0
    12924:        000a0513        addi x10 x20 0
    12928:        02612023        sw x6 32 x2
    1292c:        0be12823        sw x30 176 x2
    12930:        01e12c23        sw x30 24 x2
    12934:        0bd12c23        sw x29 184 x2
    12938:        01d12a23        sw x29 20 x2
    1293c:        0bb12a23        sw x27 180 x2
    12940:        0b612e23        sw x22 188 x2
    12944:        5a9020ef        jal x1 11688 <_ldtoa_r>
    12948:        00054683        lbu x13 0 x10
    1294c:        03000713        addi x14 x0 48
    12950:        00050c93        addi x25 x10 0
    12954:        01412e83        lw x29 20 x2
    12958:        01812f03        lw x30 24 x2
    1295c:        02012303        lw x6 32 x2
    12960:        4ce68c63        beq x13 x14 1240
    12964:        0a010793        addi x15 x2 160
    12968:        04f12c23        sw x15 88 x2
    1296c:        0cc12703        lw x14 204 x2
    12970:        006709b3        add x19 x14 x6
    12974:        013c89b3        add x19 x25 x19
    12978:        05812583        lw x11 88 x2
    1297c:        000c0513        addi x10 x24 0
    12980:        00612a23        sw x6 20 x2
    12984:        0be12823        sw x30 176 x2
    12988:        0bb12a23        sw x27 180 x2
    1298c:        0bd12c23        sw x29 184 x2
    12990:        0b612e23        sw x22 188 x2
    12994:        0a012023        sw x0 160 x2
    12998:        0a012223        sw x0 164 x2
    1299c:        0a012423        sw x0 168 x2
    129a0:        0a012623        sw x0 172 x2
    129a4:        4600e0ef        jal x1 58464 <__netf2>
    129a8:        00098713        addi x14 x19 0
    129ac:        01412303        lw x6 20 x2
    129b0:        00051463        bne x10 x0 8
    129b4:        ce4fe06f        jal x0 -6940
    129b8:        0dc12703        lw x14 220 x2
    129bc:        03000613        addi x12 x0 48
    129c0:        01376463        bltu x14 x19 8
    129c4:        cd4fe06f        jal x0 -6956
    129c8:        00170793        addi x15 x14 1
    129cc:        0cf12e23        sw x15 220 x2
    129d0:        00c70023        sb x12 0 x14
    129d4:        0dc12703        lw x14 220 x2
    129d8:        ff3768e3        bltu x14 x19 -16
    129dc:        cbcfe06f        jal x0 -6980
    129e0:        02d00793        addi x15 x0 45
    129e4:        0cf103a3        sb x15 199 x2
    129e8:        02d00713        addi x14 x0 45
    129ec:        d30ff06f        jal x0 -2768
    129f0:        00412583        lw x11 4 x2
    129f4:        0e410613        addi x12 x2 228
    129f8:        000a0513        addi x10 x20 0
    129fc:        69d080ef        jal x1 36508 <__sprint_r>
    12a00:        00050463        beq x10 x0 8
    12a04:        ce1fd06f        jal x0 -8992
    12a08:        0cc12b03        lw x22 204 x2
    12a0c:        0ec12703        lw x14 236 x2
    12a10:        10c10d13        addi x26 x2 268
    12a14:        f85fe06f        jal x0 -4220
    12a18:        0c714703        lbu x14 199 x2
    12a1c:        01812623        sw x24 12 x2
    12a20:        02012223        sw x0 36 x2
    12a24:        02012023        sw x0 32 x2
    12a28:        00012a23        sw x0 20 x2
    12a2c:        00030993        addi x19 x6 0
    12a30:        00030b13        addi x22 x6 0
    12a34:        00000313        addi x6 x0 0
    12a38:        00070463        beq x14 x0 8
    12a3c:        db9fd06f        jal x0 -8776
    12a40:        8f0fe06f        jal x0 -7952
    12a44:        01812783        lw x15 24 x2
    12a48:        02812703        lw x14 40 x2
    12a4c:        06700a93        addi x21 x0 103
    12a50:        00e78b33        add x22 x15 x14
    12a54:        01412783        lw x15 20 x2
    12a58:        42f05e63        bge x0 x15 1084
    12a5c:        05412783        lw x15 84 x2
    12a60:        4007f713        andi x14 x15 1024
    12a64:        1e071663        bne x14 x0 492
    12a68:        fffb4993        xori x19 x22 -1
    12a6c:        41f9d993        srai x19 x19 31
    12a70:        013b79b3        and x19 x22 x19
    12a74:        de1ff06f        jal x0 -544
    12a78:        00412583        lw x11 4 x2
    12a7c:        0e410613        addi x12 x2 228
    12a80:        000a0513        addi x10 x20 0
    12a84:        615080ef        jal x1 36372 <__sprint_r>
    12a88:        00050463        beq x10 x0 8
    12a8c:        c59fd06f        jal x0 -9128
    12a90:        0cc12b03        lw x22 204 x2
    12a94:        01812783        lw x15 24 x2
    12a98:        0ec12703        lw x14 236 x2
    12a9c:        10c10d13        addi x26 x2 268
    12aa0:        41678b33        sub x22 x15 x22
    12aa4:        f41fe06f        jal x0 -4288
    12aa8:        05412783        lw x15 84 x2
    12aac:        0017f713        andi x14 x15 1
    12ab0:        01412783        lw x15 20 x2
    12ab4:        00676733        or x14 x14 x6
    12ab8:        3ef05a63        bge x0 x15 1012
    12abc:        24071463        bne x14 x0 584
    12ac0:        01412b03        lw x22 20 x2
    12ac4:        06600a93        addi x21 x0 102
    12ac8:        f95ff06f        jal x0 -108
    12acc:        fff00793        addi x15 x0 -1
    12ad0:        00f12423        sw x15 8 x2
    12ad4:        c39fd06f        jal x0 -9160
    12ad8:        01670733        add x14 x14 x22
    12adc:        00168693        addi x13 x13 1
    12ae0:        00011797        auipc x15 0x11
    12ae4:        59078793        addi x15 x15 1424
    12ae8:        00f8a023        sw x15 0 x17
    12aec:        0168a223        sw x22 4 x17
    12af0:        0ee12623        sw x14 236 x2
    12af4:        0ed12423        sw x13 232 x2
    12af8:        00700613        addi x12 x0 7
    12afc:        00888893        addi x17 x17 8
    12b00:        aad65063        bge x12 x13 -3424
    12b04:        00412583        lw x11 4 x2
    12b08:        0e410613        addi x12 x2 228
    12b0c:        000a0513        addi x10 x20 0
    12b10:        589080ef        jal x1 36232 <__sprint_r>
    12b14:        00050463        beq x10 x0 8
    12b18:        bcdfd06f        jal x0 -9268
    12b1c:        0ec12703        lw x14 236 x2
    12b20:        0e812683        lw x13 232 x2
    12b24:        10c10893        addi x17 x2 268
    12b28:        a78ff06f        jal x0 -3464
    12b2c:        0a010793        addi x15 x2 160
    12b30:        006c89b3        add x19 x25 x6
    12b34:        04f12c23        sw x15 88 x2
    12b38:        e41ff06f        jal x0 -448
    12b3c:        00130993        addi x19 x6 1
    12b40:        0b010c13        addi x24 x2 176
    12b44:        0dc10813        addi x16 x2 220
    12b48:        0d010793        addi x15 x2 208
    12b4c:        0cc10713        addi x14 x2 204
    12b50:        00098693        addi x13 x19 0
    12b54:        00200613        addi x12 x0 2
    12b58:        000c0593        addi x11 x24 0
    12b5c:        000a0513        addi x10 x20 0
    12b60:        02612023        sw x6 32 x2
    12b64:        0be12823        sw x30 176 x2
    12b68:        01e12c23        sw x30 24 x2
    12b6c:        0bd12c23        sw x29 184 x2
    12b70:        01d12a23        sw x29 20 x2
    12b74:        0bb12a23        sw x27 180 x2
    12b78:        0b612e23        sw x22 188 x2
    12b7c:        371020ef        jal x1 11120 <_ldtoa_r>
    12b80:        01412e83        lw x29 20 x2
    12b84:        01812f03        lw x30 24 x2
    12b88:        02012303        lw x6 32 x2
    12b8c:        00050c93        addi x25 x10 0
    12b90:        0a010793        addi x15 x2 160
    12b94:        013c89b3        add x19 x25 x19
    12b98:        04f12c23        sw x15 88 x2
    12b9c:        dddff06f        jal x0 -548
    12ba0:        03000793        addi x15 x0 48
    12ba4:        0cf10423        sb x15 200 x2
    12ba8:        07800793        addi x15 x0 120
    12bac:        84dff06f        jal x0 -1972
    12bb0:        00130593        addi x11 x6 1
    12bb4:        000a0513        addi x10 x20 0
    12bb8:        00612823        sw x6 16 x2
    12bbc:        128040ef        jal x1 16680 <_malloc_r>
    12bc0:        00050c93        addi x25 x10 0
    12bc4:        01012303        lw x6 16 x2
    12bc8:        34050c63        beq x10 x0 856
    12bcc:        00a12823        sw x10 16 x2
    12bd0:        845ff06f        jal x0 -1980
    12bd4:        01412783        lw x15 20 x2
    12bd8:        000b0713        addi x14 x22 0
    12bdc:        0cf12e23        sw x15 220 x2
    12be0:        03412783        lw x15 52 x2
    12be4:        fffb4683        lbu x13 -1 x22
    12be8:        00f7c603        lbu x12 15 x15
    12bec:        02d61063        bne x12 x13 32
    12bf0:        03000593        addi x11 x0 48
    12bf4:        feb70fa3        sb x11 -1 x14
    12bf8:        0dc12703        lw x14 220 x2
    12bfc:        fff70793        addi x15 x14 -1
    12c00:        0cf12e23        sw x15 220 x2
    12c04:        fff74683        lbu x13 -1 x14
    12c08:        fed606e3        beq x12 x13 -20
    12c0c:        00168613        addi x12 x13 1
    12c10:        03900593        addi x11 x0 57
    12c14:        0ff67613        andi x12 x12 255
    12c18:        00b68663        beq x13 x11 12
    12c1c:        fec70fa3        sb x12 -1 x14
    12c20:        b89ff06f        jal x0 -1144
    12c24:        03412783        lw x15 52 x2
    12c28:        00a7c603        lbu x12 10 x15
    12c2c:        fec70fa3        sb x12 -1 x14
    12c30:        b79ff06f        jal x0 -1160
    12c34:        00030463        beq x6 x0 8
    12c38:        9a4fe06f        jal x0 -7772
    12c3c:        00100313        addi x6 x0 1
    12c40:        99cfe06f        jal x0 -7780
    12c44:        00600313        addi x6 x0 6
    12c48:        994fe06f        jal x0 -7788
    12c4c:        06700a93        addi x21 x0 103
    12c50:        03c12583        lw x11 60 x2
    12c54:        01412783        lw x15 20 x2
    12c58:        02012223        sw x0 36 x2
    12c5c:        0005c703        lbu x14 0 x11
    12c60:        02012023        sw x0 32 x2
    12c64:        0ff00613        addi x12 x0 255
    12c68:        02c70e63        beq x14 x12 60
    12c6c:        02f75c63        bge x14 x15 56
    12c70:        0015c683        lbu x13 1 x11
    12c74:        40e787b3        sub x15 x15 x14
    12c78:        00068e63        beq x13 x0 28
    12c7c:        02012703        lw x14 32 x2
    12c80:        00158593        addi x11 x11 1
    12c84:        00170713        addi x14 x14 1
    12c88:        02e12023        sw x14 32 x2
    12c8c:        00068713        addi x14 x13 0
    12c90:        fd9ff06f        jal x0 -40
    12c94:        02412683        lw x13 36 x2
    12c98:        00168693        addi x13 x13 1
    12c9c:        02d12223        sw x13 36 x2
    12ca0:        fc9ff06f        jal x0 -56
    12ca4:        00f12a23        sw x15 20 x2
    12ca8:        02412703        lw x14 36 x2
    12cac:        02012783        lw x15 32 x2
    12cb0:        02b12e23        sw x11 60 x2
    12cb4:        00e78733        add x14 x15 x14
    12cb8:        04012783        lw x15 64 x2
    12cbc:        02f70733        mul x14 x14 x15
    12cc0:        01670b33        add x22 x14 x22
    12cc4:        fffb4993        xori x19 x22 -1
    12cc8:        41f9d993        srai x19 x19 31
    12ccc:        013b79b3        and x19 x22 x19
    12cd0:        b18fe06f        jal x0 -7400
    12cd4:        0d610693        addi x13 x2 214
    12cd8:        00061863        bne x12 x0 16
    12cdc:        03000693        addi x13 x0 48
    12ce0:        0cd10b23        sb x13 214 x2
    12ce4:        0d710693        addi x13 x2 215
    12ce8:        1b010793        addi x15 x2 432
    12cec:        40f68633        sub x12 x13 x15
    12cf0:        03070713        addi x14 x14 48
    12cf4:        0dd60793        addi x15 x12 221
    12cf8:        00e68023        sb x14 0 x13
    12cfc:        02f12c23        sw x15 56 x2
    12d00:        aa4fe06f        jal x0 -7516
    12d04:        02812703        lw x14 40 x2
    12d08:        06600a93        addi x21 x0 102
    12d0c:        00e78b33        add x22 x15 x14
    12d10:        006b0b33        add x22 x22 x6
    12d14:        d49ff06f        jal x0 -696
    12d18:        0b010c13        addi x24 x2 176
    12d1c:        000c0513        addi x10 x24 0
    12d20:        02612a23        sw x6 52 x2
    12d24:        0be12823        sw x30 176 x2
    12d28:        0bd12c23        sw x29 184 x2
    12d2c:        0b612e23        sw x22 188 x2
    12d30:        0bb12a23        sw x27 180 x2
    12d34:        635100ef        jal x1 69172 <__trunctfdf2>
    12d38:        0cc10613        addi x12 x2 204
    12d3c:        129050ef        jal x1 22824 <frexp>
    12d40:        00058613        addi x12 x11 0
    12d44:        00050593        addi x11 x10 0
    12d48:        000c0513        addi x10 x24 0
    12d4c:        411100ef        jal x1 68624 <__extenddftf2>
    12d50:        0b012703        lw x14 176 x2
    12d54:        09010793        addi x15 x2 144
    12d58:        0a010993        addi x19 x2 160
    12d5c:        08e12823        sw x14 144 x2
    12d60:        0b412703        lw x14 180 x2
    12d64:        08010613        addi x12 x2 128
    12d68:        00078593        addi x11 x15 0
    12d6c:        08e12a23        sw x14 148 x2
    12d70:        0b812703        lw x14 184 x2
    12d74:        00098513        addi x10 x19 0
    12d78:        00078b13        addi x22 x15 0
    12d7c:        08e12c23        sw x14 152 x2
    12d80:        0bc12703        lw x14 188 x2
    12d84:        04c12623        sw x12 76 x2
    12d88:        05312c23        sw x19 88 x2
    12d8c:        08e12e23        sw x14 156 x2
    12d90:        3ffc0737        lui x14 0x3ffc0
    12d94:        08e12623        sw x14 140 x2
    12d98:        08012023        sw x0 128 x2
    12d9c:        08012223        sw x0 132 x2
    12da0:        08012423        sw x0 136 x2
    12da4:        3b40e0ef        jal x1 58292 <__multf3>
    12da8:        0a012703        lw x14 160 x2
    12dac:        0a412683        lw x13 164 x2
    12db0:        0a812803        lw x16 168 x2
    12db4:        0ac12e83        lw x29 172 x2
    12db8:        00098593        addi x11 x19 0
    12dbc:        000c0513        addi x10 x24 0
    12dc0:        0ae12823        sw x14 176 x2
    12dc4:        02e12223        sw x14 36 x2
    12dc8:        0ad12a23        sw x13 180 x2
    12dcc:        02d12023        sw x13 32 x2
    12dd0:        0b012c23        sw x16 184 x2
    12dd4:        01012c23        sw x16 24 x2
    12dd8:        0bd12e23        sw x29 188 x2
    12ddc:        01d12a23        sw x29 20 x2
    12de0:        0a012023        sw x0 160 x2
    12de4:        0a012223        sw x0 164 x2
    12de8:        0a012423        sw x0 168 x2
    12dec:        0a012623        sw x0 172 x2
    12df0:        0140e0ef        jal x1 57364 <__netf2>
    12df4:        01412e83        lw x29 20 x2
    12df8:        01812803        lw x16 24 x2
    12dfc:        02012683        lw x13 32 x2
    12e00:        02412703        lw x14 36 x2
    12e04:        03412303        lw x6 52 x2
    12e08:        00051663        bne x10 x0 12
    12e0c:        00100613        addi x12 x0 1
    12e10:        0cc12623        sw x12 204 x2
    12e14:        00011797        auipc x15 0x11
    12e18:        27c78793        addi x15 x15 636
    12e1c:        02f12a23        sw x15 52 x2
    12e20:        f34ff06f        jal x0 -2252
    12e24:        05412783        lw x15 84 x2
    12e28:        0017f713        andi x14 x15 1
    12e2c:        00071463        bne x14 x0 8
    12e30:        994fe06f        jal x0 -7788
    12e34:        988fe06f        jal x0 -7800
    12e38:        0a010593        addi x11 x2 160
    12e3c:        000c0513        addi x10 x24 0
    12e40:        02612023        sw x6 32 x2
    12e44:        0be12823        sw x30 176 x2
    12e48:        01e12c23        sw x30 24 x2
    12e4c:        0bd12c23        sw x29 184 x2
    12e50:        01d12a23        sw x29 20 x2
    12e54:        04b12c23        sw x11 88 x2
    12e58:        0bb12a23        sw x27 180 x2
    12e5c:        0b612e23        sw x22 188 x2
    12e60:        0a012023        sw x0 160 x2
    12e64:        0a012223        sw x0 164 x2
    12e68:        0a012423        sw x0 168 x2
    12e6c:        0a012623        sw x0 172 x2
    12e70:        7950d0ef        jal x1 57236 <__netf2>
    12e74:        01412e83        lw x29 20 x2
    12e78:        01812f03        lw x30 24 x2
    12e7c:        02012303        lw x6 32 x2
    12e80:        ae0506e3        beq x10 x0 -1300
    12e84:        00100713        addi x14 x0 1
    12e88:        40670733        sub x14 x14 x6
    12e8c:        0ce12623        sw x14 204 x2
    12e90:        ae1ff06f        jal x0 -1312
    12e94:        40fb0b33        sub x22 x22 x15
    12e98:        001b0b13        addi x22 x22 1
    12e9c:        fffb4993        xori x19 x22 -1
    12ea0:        41f9d993        srai x19 x19 31
    12ea4:        013b79b3        and x19 x22 x19
    12ea8:        9adff06f        jal x0 -1620
    12eac:        00071a63        bne x14 x0 20
    12eb0:        00100993        addi x19 x0 1
    12eb4:        06600a93        addi x21 x0 102
    12eb8:        00100b13        addi x22 x0 1
    12ebc:        999ff06f        jal x0 -1640
    12ec0:        02812783        lw x15 40 x2
    12ec4:        06600a93        addi x21 x0 102
    12ec8:        00178b13        addi x22 x15 1
    12ecc:        006b0b33        add x22 x22 x6
    12ed0:        fffb4993        xori x19 x22 -1
    12ed4:        41f9d993        srai x19 x19 31
    12ed8:        013b79b3        and x19 x22 x19
    12edc:        979ff06f        jal x0 -1672
    12ee0:        000d0793        addi x15 x26 0
    12ee4:        cc5fe06f        jal x0 -4924
    12ee8:        00c12703        lw x14 12 x2
    12eec:        00072c03        lw x24 0 x14
    12ef0:        00470713        addi x14 x14 4
    12ef4:        000c5463        bge x24 x0 8
    12ef8:        fff00c13        addi x24 x0 -1
    12efc:        0014ce03        lbu x28 1 x9
    12f00:        00e12623        sw x14 12 x2
    12f04:        00078493        addi x9 x15 0
    12f08:        ed4fd06f        jal x0 -10540
    12f0c:        00090993        addi x19 x18 0
    12f10:        b15fd06f        jal x0 -9452
    12f14:        00200793        addi x15 x0 2
    12f18:        02f12c23        sw x15 56 x2
    12f1c:        888fe06f        jal x0 -8056
    12f20:        00412703        lw x14 4 x2
    12f24:        00c75783        lhu x15 12 x14
    12f28:        0407e793        ori x15 x15 64
    12f2c:        00f71623        sh x15 12 x14
    12f30:        fc8fd06f        jal x0 -10296
    12f34:        00090993        addi x19 x18 0
    12f38:        8e8fe06f        jal x0 -7960
    12f3c:        00030993        addi x19 x6 0
    12f40:        c51ff06f        jal x0 -944

00012f44 <vfprintf>:
    12f44:        1c018793        addi x15 x3 448
    12f48:        00060693        addi x13 x12 0
    12f4c:        00058613        addi x12 x11 0
    12f50:        00050593        addi x11 x10 0
    12f54:        0007a503        lw x10 0 x15
    12f58:        cccfd06f        jal x0 -11060 <_vfprintf_r>

00012f5c <__sbprintf>:
    12f5c:        00c5d783        lhu x15 12 x11
    12f60:        0645ae03        lw x28 100 x11
    12f64:        00e5d303        lhu x6 14 x11
    12f68:        01c5a883        lw x17 28 x11
    12f6c:        0245a803        lw x16 36 x11
    12f70:        b8010113        addi x2 x2 -1152
    12f74:        ffd7f793        andi x15 x15 -3
    12f78:        40000713        addi x14 x0 1024
    12f7c:        46812c23        sw x8 1144 x2
    12f80:        00f11a23        sh x15 20 x2
    12f84:        00058413        addi x8 x11 0
    12f88:        07010793        addi x15 x2 112
    12f8c:        00810593        addi x11 x2 8
    12f90:        46912a23        sw x9 1140 x2
    12f94:        47212823        sw x18 1136 x2
    12f98:        46112e23        sw x1 1148 x2
    12f9c:        00050913        addi x18 x10 0
    12fa0:        07c12623        sw x28 108 x2
    12fa4:        00611b23        sh x6 22 x2
    12fa8:        03112223        sw x17 36 x2
    12fac:        03012623        sw x16 44 x2
    12fb0:        00f12423        sw x15 8 x2
    12fb4:        00f12c23        sw x15 24 x2
    12fb8:        00e12823        sw x14 16 x2
    12fbc:        00e12e23        sw x14 28 x2
    12fc0:        02012023        sw x0 32 x2
    12fc4:        c60fd0ef        jal x1 -11168 <_vfprintf_r>
    12fc8:        00050493        addi x9 x10 0
    12fcc:        02055c63        bge x10 x0 56
    12fd0:        01415783        lhu x15 20 x2
    12fd4:        0407f793        andi x15 x15 64
    12fd8:        00078863        beq x15 x0 16
    12fdc:        00c45783        lhu x15 12 x8
    12fe0:        0407e793        ori x15 x15 64
    12fe4:        00f41623        sh x15 12 x8
    12fe8:        47c12083        lw x1 1148 x2
    12fec:        47812403        lw x8 1144 x2
    12ff0:        00048513        addi x10 x9 0
    12ff4:        47012903        lw x18 1136 x2
    12ff8:        47412483        lw x9 1140 x2
    12ffc:        48010113        addi x2 x2 1152
    13000:        00008067        jalr x0 x1 0
    13004:        00810593        addi x11 x2 8
    13008:        00090513        addi x10 x18 0
    1300c:        58c000ef        jal x1 1420 <_fflush_r>
    13010:        fc0500e3        beq x10 x0 -64
    13014:        fff00493        addi x9 x0 -1
    13018:        fb9ff06f        jal x0 -72

0001301c <__swsetup_r>:
    1301c:        1c018793        addi x15 x3 448
    13020:        0007a783        lw x15 0 x15
    13024:        ff010113        addi x2 x2 -16
    13028:        00812423        sw x8 8 x2
    1302c:        00912223        sw x9 4 x2
    13030:        00112623        sw x1 12 x2
    13034:        00050493        addi x9 x10 0
    13038:        00058413        addi x8 x11 0
    1303c:        00078663        beq x15 x0 12
    13040:        0387a703        lw x14 56 x15
    13044:        08070663        beq x14 x0 140
    13048:        00c41703        lh x14 12 x8
    1304c:        01071793        slli x15 x14 16
    13050:        0107d793        srli x15 x15 16
    13054:        0087f693        andi x13 x15 8
    13058:        08068a63        beq x13 x0 148
    1305c:        01042683        lw x13 16 x8
    13060:        0a068a63        beq x13 x0 180
    13064:        0017f713        andi x14 x15 1
    13068:        02070863        beq x14 x0 48
    1306c:        01442783        lw x15 20 x8
    13070:        00042423        sw x0 8 x8
    13074:        00000513        addi x10 x0 0
    13078:        40f007b3        sub x15 x0 x15
    1307c:        00f42c23        sw x15 24 x8
    13080:        02068a63        beq x13 x0 52
    13084:        00c12083        lw x1 12 x2
    13088:        00812403        lw x8 8 x2
    1308c:        00412483        lw x9 4 x2
    13090:        01010113        addi x2 x2 16
    13094:        00008067        jalr x0 x1 0
    13098:        0027f793        andi x15 x15 2
    1309c:        00000713        addi x14 x0 0
    130a0:        00079463        bne x15 x0 8
    130a4:        01442703        lw x14 20 x8
    130a8:        00e42423        sw x14 8 x8
    130ac:        00000513        addi x10 x0 0
    130b0:        fc069ae3        bne x13 x0 -44
    130b4:        00c41783        lh x15 12 x8
    130b8:        0807f713        andi x14 x15 128
    130bc:        fc0704e3        beq x14 x0 -56
    130c0:        0407e793        ori x15 x15 64
    130c4:        00f41623        sh x15 12 x8
    130c8:        fff00513        addi x10 x0 -1
    130cc:        fb9ff06f        jal x0 -72
    130d0:        00078513        addi x10 x15 0
    130d4:        071000ef        jal x1 2160 <__sinit>
    130d8:        00c41703        lh x14 12 x8
    130dc:        01071793        slli x15 x14 16
    130e0:        0107d793        srli x15 x15 16
    130e4:        0087f693        andi x13 x15 8
    130e8:        f6069ae3        bne x13 x0 -140
    130ec:        0107f693        andi x13 x15 16
    130f0:        06068e63        beq x13 x0 124
    130f4:        0047f793        andi x15 x15 4
    130f8:        04079063        bne x15 x0 64
    130fc:        01042683        lw x13 16 x8
    13100:        00876793        ori x15 x14 8
    13104:        00f41623        sh x15 12 x8
    13108:        01079793        slli x15 x15 16
    1310c:        0107d793        srli x15 x15 16
    13110:        f4069ae3        bne x13 x0 -172
    13114:        2807f713        andi x14 x15 640
    13118:        20000613        addi x12 x0 512
    1311c:        f4c704e3        beq x14 x12 -184
    13120:        00040593        addi x11 x8 0
    13124:        00048513        addi x10 x9 0
    13128:        29d030ef        jal x1 15004 <__smakebuf_r>
    1312c:        00c45783        lhu x15 12 x8
    13130:        01042683        lw x13 16 x8
    13134:        f31ff06f        jal x0 -208
    13138:        03042583        lw x11 48 x8
    1313c:        00058e63        beq x11 x0 28
    13140:        04040793        addi x15 x8 64
    13144:        00f58863        beq x11 x15 16
    13148:        00048513        addi x10 x9 0
    1314c:        169000ef        jal x1 2408 <_free_r>
    13150:        00c41703        lh x14 12 x8
    13154:        02042823        sw x0 48 x8
    13158:        01042683        lw x13 16 x8
    1315c:        fdb77713        andi x14 x14 -37
    13160:        00042223        sw x0 4 x8
    13164:        00d42023        sw x13 0 x8
    13168:        f99ff06f        jal x0 -104
    1316c:        00900793        addi x15 x0 9
    13170:        00f4a023        sw x15 0 x9
    13174:        04076713        ori x14 x14 64
    13178:        00e41623        sh x14 12 x8
    1317c:        fff00513        addi x10 x0 -1
    13180:        f05ff06f        jal x0 -252

00013184 <__register_exitproc>:
    13184:        1b818793        addi x15 x3 440
    13188:        0007a703        lw x14 0 x15
    1318c:        14872783        lw x15 328 x14
    13190:        04078c63        beq x15 x0 88
    13194:        0047a703        lw x14 4 x15
    13198:        01f00813        addi x16 x0 31
    1319c:        06e84e63        blt x16 x14 124
    131a0:        00271813        slli x16 x14 2
    131a4:        02050663        beq x10 x0 44
    131a8:        01078333        add x6 x15 x16
    131ac:        08c32423        sw x12 136 x6
    131b0:        1887a883        lw x17 392 x15
    131b4:        00100613        addi x12 x0 1
    131b8:        00e61633        sll x12 x12 x14
    131bc:        00c8e8b3        or x17 x17 x12
    131c0:        1917a423        sw x17 392 x15
    131c4:        10d32423        sw x13 264 x6
    131c8:        00200693        addi x13 x0 2
    131cc:        02d50463        beq x10 x13 40
    131d0:        00170713        addi x14 x14 1
    131d4:        00e7a223        sw x14 4 x15
    131d8:        010787b3        add x15 x15 x16
    131dc:        00b7a423        sw x11 8 x15
    131e0:        00000513        addi x10 x0 0
    131e4:        00008067        jalr x0 x1 0
    131e8:        14c70793        addi x15 x14 332
    131ec:        14f72423        sw x15 328 x14
    131f0:        fa5ff06f        jal x0 -92
    131f4:        18c7a683        lw x13 396 x15
    131f8:        00170713        addi x14 x14 1
    131fc:        00e7a223        sw x14 4 x15
    13200:        00c6e633        or x12 x13 x12
    13204:        18c7a623        sw x12 396 x15
    13208:        010787b3        add x15 x15 x16
    1320c:        00b7a423        sw x11 8 x15
    13210:        00000513        addi x10 x0 0
    13214:        00008067        jalr x0 x1 0
    13218:        fff00513        addi x10 x0 -1
    1321c:        00008067        jalr x0 x1 0

00013220 <__call_exitprocs>:
    13220:        fd010113        addi x2 x2 -48
    13224:        1b818793        addi x15 x3 440
    13228:        01812423        sw x24 8 x2
    1322c:        0007ac03        lw x24 0 x15
    13230:        01312e23        sw x19 28 x2
    13234:        01412c23        sw x20 24 x2
    13238:        01512a23        sw x21 20 x2
    1323c:        01612823        sw x22 16 x2
    13240:        02112623        sw x1 44 x2
    13244:        02812423        sw x8 40 x2
    13248:        02912223        sw x9 36 x2
    1324c:        03212023        sw x18 32 x2
    13250:        01712623        sw x23 12 x2
    13254:        00050a93        addi x21 x10 0
    13258:        00058b13        addi x22 x11 0
    1325c:        00100a13        addi x20 x0 1
    13260:        fff00993        addi x19 x0 -1
    13264:        148c2903        lw x18 328 x24
    13268:        02090863        beq x18 x0 48
    1326c:        00492483        lw x9 4 x18
    13270:        fff48413        addi x8 x9 -1
    13274:        02044263        blt x8 x0 36
    13278:        00249493        slli x9 x9 2
    1327c:        009904b3        add x9 x18 x9
    13280:        040b0463        beq x22 x0 72
    13284:        1044a783        lw x15 260 x9
    13288:        05678063        beq x15 x22 64
    1328c:        fff40413        addi x8 x8 -1
    13290:        ffc48493        addi x9 x9 -4
    13294:        ff3416e3        bne x8 x19 -20
    13298:        02c12083        lw x1 44 x2
    1329c:        02812403        lw x8 40 x2
    132a0:        02412483        lw x9 36 x2
    132a4:        02012903        lw x18 32 x2
    132a8:        01c12983        lw x19 28 x2
    132ac:        01812a03        lw x20 24 x2
    132b0:        01412a83        lw x21 20 x2
    132b4:        01012b03        lw x22 16 x2
    132b8:        00c12b83        lw x23 12 x2
    132bc:        00812c03        lw x24 8 x2
    132c0:        03010113        addi x2 x2 48
    132c4:        00008067        jalr x0 x1 0
    132c8:        00492783        lw x15 4 x18
    132cc:        0044a683        lw x13 4 x9
    132d0:        fff78793        addi x15 x15 -1
    132d4:        04878a63        beq x15 x8 84
    132d8:        0004a223        sw x0 4 x9
    132dc:        fa0688e3        beq x13 x0 -80
    132e0:        18892783        lw x15 392 x18
    132e4:        008a1733        sll x14 x20 x8
    132e8:        00492b83        lw x23 4 x18
    132ec:        00f777b3        and x15 x14 x15
    132f0:        00079e63        bne x15 x0 28
    132f4:        000680e7        jalr x1 x13 0
    132f8:        00492783        lw x15 4 x18
    132fc:        f77794e3        bne x15 x23 -152
    13300:        148c2783        lw x15 328 x24
    13304:        f92784e3        beq x15 x18 -120
    13308:        f5dff06f        jal x0 -164
    1330c:        18c92783        lw x15 396 x18
    13310:        0844a583        lw x11 132 x9
    13314:        00f77733        and x14 x14 x15
    13318:        00071c63        bne x14 x0 24
    1331c:        000a8513        addi x10 x21 0
    13320:        000680e7        jalr x1 x13 0
    13324:        fd5ff06f        jal x0 -44
    13328:        00892223        sw x8 4 x18
    1332c:        fb1ff06f        jal x0 -80
    13330:        00058513        addi x10 x11 0
    13334:        000680e7        jalr x1 x13 0
    13338:        fc1ff06f        jal x0 -64

0001333c <__sflush_r>:
    1333c:        00c59783        lh x15 12 x11
    13340:        fe010113        addi x2 x2 -32
    13344:        00812c23        sw x8 24 x2
    13348:        01079713        slli x14 x15 16
    1334c:        01075713        srli x14 x14 16
    13350:        01312623        sw x19 12 x2
    13354:        00112e23        sw x1 28 x2
    13358:        00912a23        sw x9 20 x2
    1335c:        01212823        sw x18 16 x2
    13360:        00877693        andi x13 x14 8
    13364:        00058413        addi x8 x11 0
    13368:        00050993        addi x19 x10 0
    1336c:        10069a63        bne x13 x0 276
    13370:        00001737        lui x14 0x1
    13374:        80070713        addi x14 x14 -2048
    13378:        0045a683        lw x13 4 x11
    1337c:        00e7e7b3        or x15 x15 x14
    13380:        00f59623        sh x15 12 x11
    13384:        18d05063        bge x0 x13 384
    13388:        02842703        lw x14 40 x8
    1338c:        0c070a63        beq x14 x0 212
    13390:        01079793        slli x15 x15 16
    13394:        0107d793        srli x15 x15 16
    13398:        0009a483        lw x9 0 x19
    1339c:        01379693        slli x13 x15 19
    133a0:        0009a023        sw x0 0 x19
    133a4:        01c42583        lw x11 28 x8
    133a8:        1606c463        blt x13 x0 360
    133ac:        00100693        addi x13 x0 1
    133b0:        00000613        addi x12 x0 0
    133b4:        00098513        addi x10 x19 0
    133b8:        000700e7        jalr x1 x14 0
    133bc:        fff00793        addi x15 x0 -1
    133c0:        18f50863        beq x10 x15 400
    133c4:        00c45783        lhu x15 12 x8
    133c8:        02842703        lw x14 40 x8
    133cc:        01c42583        lw x11 28 x8
    133d0:        0047f793        andi x15 x15 4
    133d4:        00078e63        beq x15 x0 28
    133d8:        00442683        lw x13 4 x8
    133dc:        03042783        lw x15 48 x8
    133e0:        40d50533        sub x10 x10 x13
    133e4:        00078663        beq x15 x0 12
    133e8:        03c42783        lw x15 60 x8
    133ec:        40f50533        sub x10 x10 x15
    133f0:        00050613        addi x12 x10 0
    133f4:        00000693        addi x13 x0 0
    133f8:        00098513        addi x10 x19 0
    133fc:        000700e7        jalr x1 x14 0
    13400:        fff00793        addi x15 x0 -1
    13404:        10f51a63        bne x10 x15 276
    13408:        0009a703        lw x14 0 x19
    1340c:        00c41783        lh x15 12 x8
    13410:        16070463        beq x14 x0 360
    13414:        01d00693        addi x13 x0 29
    13418:        00d70663        beq x14 x13 12
    1341c:        01600693        addi x13 x0 22
    13420:        0cd71063        bne x14 x13 192
    13424:        01042683        lw x13 16 x8
    13428:        fffff737        lui x14 0xfffff
    1342c:        7ff70713        addi x14 x14 2047
    13430:        00e7f7b3        and x15 x15 x14
    13434:        00f41623        sh x15 12 x8
    13438:        00042223        sw x0 4 x8
    1343c:        00d42023        sw x13 0 x8
    13440:        03042583        lw x11 48 x8
    13444:        0099a023        sw x9 0 x19
    13448:        00058c63        beq x11 x0 24
    1344c:        04040793        addi x15 x8 64
    13450:        00f58663        beq x11 x15 12
    13454:        00098513        addi x10 x19 0
    13458:        65c000ef        jal x1 1628 <_free_r>
    1345c:        02042823        sw x0 48 x8
    13460:        00000513        addi x10 x0 0
    13464:        01c12083        lw x1 28 x2
    13468:        01812403        lw x8 24 x2
    1346c:        01412483        lw x9 20 x2
    13470:        01012903        lw x18 16 x2
    13474:        00c12983        lw x19 12 x2
    13478:        02010113        addi x2 x2 32
    1347c:        00008067        jalr x0 x1 0
    13480:        0105a903        lw x18 16 x11
    13484:        fc090ee3        beq x18 x0 -36
    13488:        0005a483        lw x9 0 x11
    1348c:        00377713        andi x14 x14 3
    13490:        0125a023        sw x18 0 x11
    13494:        412484b3        sub x9 x9 x18
    13498:        00000793        addi x15 x0 0
    1349c:        00071463        bne x14 x0 8
    134a0:        0145a783        lw x15 20 x11
    134a4:        00f42423        sw x15 8 x8
    134a8:        00904863        blt x0 x9 16
    134ac:        fb5ff06f        jal x0 -76
    134b0:        00a90933        add x18 x18 x10
    134b4:        fa9056e3        bge x0 x9 -84
    134b8:        02442783        lw x15 36 x8
    134bc:        01c42583        lw x11 28 x8
    134c0:        00048693        addi x13 x9 0
    134c4:        00090613        addi x12 x18 0
    134c8:        00098513        addi x10 x19 0
    134cc:        000780e7        jalr x1 x15 0
    134d0:        40a484b3        sub x9 x9 x10
    134d4:        fca04ee3        blt x0 x10 -36
    134d8:        00c45783        lhu x15 12 x8
    134dc:        fff00513        addi x10 x0 -1
    134e0:        0407e793        ori x15 x15 64
    134e4:        00f41623        sh x15 12 x8
    134e8:        01c12083        lw x1 28 x2
    134ec:        01812403        lw x8 24 x2
    134f0:        01412483        lw x9 20 x2
    134f4:        01012903        lw x18 16 x2
    134f8:        00c12983        lw x19 12 x2
    134fc:        02010113        addi x2 x2 32
    13500:        00008067        jalr x0 x1 0
    13504:        03c5a703        lw x14 60 x11
    13508:        e8e040e3        blt x0 x14 -384
    1350c:        f55ff06f        jal x0 -172
    13510:        05042503        lw x10 80 x8
    13514:        ebdff06f        jal x0 -324
    13518:        00c45783        lhu x15 12 x8
    1351c:        fffff737        lui x14 0xfffff
    13520:        7ff70713        addi x14 x14 2047
    13524:        00e7f7b3        and x15 x15 x14
    13528:        01042683        lw x13 16 x8
    1352c:        01079793        slli x15 x15 16
    13530:        4107d793        srai x15 x15 16
    13534:        00f41623        sh x15 12 x8
    13538:        00042223        sw x0 4 x8
    1353c:        00d42023        sw x13 0 x8
    13540:        01379713        slli x14 x15 19
    13544:        ee075ee3        bge x14 x0 -260
    13548:        04a42823        sw x10 80 x8
    1354c:        ef5ff06f        jal x0 -268
    13550:        0009a783        lw x15 0 x19
    13554:        e60788e3        beq x15 x0 -400
    13558:        01d00713        addi x14 x0 29
    1355c:        02e78863        beq x15 x14 48
    13560:        01600713        addi x14 x0 22
    13564:        02e78463        beq x15 x14 40
    13568:        00c45783        lhu x15 12 x8
    1356c:        0407e793        ori x15 x15 64
    13570:        00f41623        sh x15 12 x8
    13574:        ef1ff06f        jal x0 -272
    13578:        fffff737        lui x14 0xfffff
    1357c:        7ff70713        addi x14 x14 2047
    13580:        01042683        lw x13 16 x8
    13584:        00e7f7b3        and x15 x15 x14
    13588:        fadff06f        jal x0 -84
    1358c:        0099a023        sw x9 0 x19
    13590:        00000513        addi x10 x0 0
    13594:        ed1ff06f        jal x0 -304

00013598 <_fflush_r>:
    13598:        fe010113        addi x2 x2 -32
    1359c:        00812c23        sw x8 24 x2
    135a0:        00112e23        sw x1 28 x2
    135a4:        00050413        addi x8 x10 0
    135a8:        00050663        beq x10 x0 12
    135ac:        03852783        lw x15 56 x10
    135b0:        02078063        beq x15 x0 32
    135b4:        00c59783        lh x15 12 x11
    135b8:        02079663        bne x15 x0 44
    135bc:        01c12083        lw x1 28 x2
    135c0:        01812403        lw x8 24 x2
    135c4:        00000513        addi x10 x0 0
    135c8:        02010113        addi x2 x2 32
    135cc:        00008067        jalr x0 x1 0
    135d0:        00b12623        sw x11 12 x2
    135d4:        370000ef        jal x1 880 <__sinit>
    135d8:        00c12583        lw x11 12 x2
    135dc:        00c59783        lh x15 12 x11
    135e0:        fc078ee3        beq x15 x0 -36
    135e4:        00040513        addi x10 x8 0
    135e8:        01812403        lw x8 24 x2
    135ec:        01c12083        lw x1 28 x2
    135f0:        02010113        addi x2 x2 32
    135f4:        d49ff06f        jal x0 -696 <__sflush_r>

000135f8 <fflush>:
    135f8:        00050593        addi x11 x10 0
    135fc:        00050863        beq x10 x0 16
    13600:        1c018793        addi x15 x3 448
    13604:        0007a503        lw x10 0 x15
    13608:        f91ff06f        jal x0 -112 <_fflush_r>
    1360c:        1b818793        addi x15 x3 440
    13610:        0007a503        lw x10 0 x15
    13614:        00000597        auipc x11 0x0
    13618:        f8458593        addi x11 x11 -124
    1361c:        0410006f        jal x0 2112 <_fwalk_reent>

00013620 <__fp_lock>:
    13620:        00000513        addi x10 x0 0
    13624:        00008067        jalr x0 x1 0

00013628 <_cleanup_r>:
    13628:        00009597        auipc x11 0x9
    1362c:        7d058593        addi x11 x11 2000
    13630:        02d0006f        jal x0 2092 <_fwalk_reent>

00013634 <__sinit.part.0>:
    13634:        fe010113        addi x2 x2 -32
    13638:        00112e23        sw x1 28 x2
    1363c:        00812c23        sw x8 24 x2
    13640:        00912a23        sw x9 20 x2
    13644:        01212823        sw x18 16 x2
    13648:        01312623        sw x19 12 x2
    1364c:        01412423        sw x20 8 x2
    13650:        01512223        sw x21 4 x2
    13654:        01612023        sw x22 0 x2
    13658:        00452403        lw x8 4 x10
    1365c:        00000717        auipc x14 0x0
    13660:        fcc70713        addi x14 x14 -52
    13664:        02e52e23        sw x14 60 x10
    13668:        2ec50793        addi x15 x10 748
    1366c:        00300713        addi x14 x0 3
    13670:        2ee52223        sw x14 740 x10
    13674:        2ef52423        sw x15 744 x10
    13678:        2e052023        sw x0 736 x10
    1367c:        00400793        addi x15 x0 4
    13680:        00050913        addi x18 x10 0
    13684:        00f42623        sw x15 12 x8
    13688:        00800613        addi x12 x0 8
    1368c:        00000593        addi x11 x0 0
    13690:        06042223        sw x0 100 x8
    13694:        00042023        sw x0 0 x8
    13698:        00042223        sw x0 4 x8
    1369c:        00042423        sw x0 8 x8
    136a0:        00042823        sw x0 16 x8
    136a4:        00042a23        sw x0 20 x8
    136a8:        00042c23        sw x0 24 x8
    136ac:        05c40513        addi x10 x8 92
    136b0:        c01fc0ef        jal x1 -13312 <memset>
    136b4:        00892483        lw x9 8 x18
    136b8:        00005b17        auipc x22 0x5
    136bc:        144b0b13        addi x22 x22 324
    136c0:        00005a97        auipc x21 0x5
    136c4:        1a0a8a93        addi x21 x21 416
    136c8:        00005a17        auipc x20 0x5
    136cc:        220a0a13        addi x20 x20 544
    136d0:        00005997        auipc x19 0x5
    136d4:        28098993        addi x19 x19 640
    136d8:        000107b7        lui x15 0x10
    136dc:        03642023        sw x22 32 x8
    136e0:        03542223        sw x21 36 x8
    136e4:        03442423        sw x20 40 x8
    136e8:        03342623        sw x19 44 x8
    136ec:        00842e23        sw x8 28 x8
    136f0:        00978793        addi x15 x15 9
    136f4:        00f4a623        sw x15 12 x9
    136f8:        00800613        addi x12 x0 8
    136fc:        00000593        addi x11 x0 0
    13700:        0604a223        sw x0 100 x9
    13704:        0004a023        sw x0 0 x9
    13708:        0004a223        sw x0 4 x9
    1370c:        0004a423        sw x0 8 x9
    13710:        0004a823        sw x0 16 x9
    13714:        0004aa23        sw x0 20 x9
    13718:        0004ac23        sw x0 24 x9
    1371c:        05c48513        addi x10 x9 92
    13720:        b91fc0ef        jal x1 -13424 <memset>
    13724:        00c92403        lw x8 12 x18
    13728:        000207b7        lui x15 0x20
    1372c:        0364a023        sw x22 32 x9
    13730:        0354a223        sw x21 36 x9
    13734:        0344a423        sw x20 40 x9
    13738:        0334a623        sw x19 44 x9
    1373c:        0094ae23        sw x9 28 x9
    13740:        01278793        addi x15 x15 18
    13744:        00f42623        sw x15 12 x8
    13748:        06042223        sw x0 100 x8
    1374c:        00042023        sw x0 0 x8
    13750:        00042223        sw x0 4 x8
    13754:        00042423        sw x0 8 x8
    13758:        00042823        sw x0 16 x8
    1375c:        00042a23        sw x0 20 x8
    13760:        00042c23        sw x0 24 x8
    13764:        05c40513        addi x10 x8 92
    13768:        00800613        addi x12 x0 8
    1376c:        00000593        addi x11 x0 0
    13770:        b41fc0ef        jal x1 -13504 <memset>
    13774:        01c12083        lw x1 28 x2
    13778:        03642023        sw x22 32 x8
    1377c:        03542223        sw x21 36 x8
    13780:        03442423        sw x20 40 x8
    13784:        03342623        sw x19 44 x8
    13788:        00842e23        sw x8 28 x8
    1378c:        01812403        lw x8 24 x2
    13790:        00100793        addi x15 x0 1
    13794:        02f92c23        sw x15 56 x18
    13798:        01412483        lw x9 20 x2
    1379c:        01012903        lw x18 16 x2
    137a0:        00c12983        lw x19 12 x2
    137a4:        00812a03        lw x20 8 x2
    137a8:        00412a83        lw x21 4 x2
    137ac:        00012b03        lw x22 0 x2
    137b0:        02010113        addi x2 x2 32
    137b4:        00008067        jalr x0 x1 0

000137b8 <__fp_unlock>:
    137b8:        00000513        addi x10 x0 0
    137bc:        00008067        jalr x0 x1 0

000137c0 <__sfmoreglue>:
    137c0:        ff010113        addi x2 x2 -16
    137c4:        00912223        sw x9 4 x2
    137c8:        06800613        addi x12 x0 104
    137cc:        fff58493        addi x9 x11 -1
    137d0:        02c484b3        mul x9 x9 x12
    137d4:        01212023        sw x18 0 x2
    137d8:        00058913        addi x18 x11 0
    137dc:        00812423        sw x8 8 x2
    137e0:        00112623        sw x1 12 x2
    137e4:        07448593        addi x11 x9 116
    137e8:        4fc030ef        jal x1 13564 <_malloc_r>
    137ec:        00050413        addi x8 x10 0
    137f0:        02050063        beq x10 x0 32
    137f4:        00c50513        addi x10 x10 12
    137f8:        00042023        sw x0 0 x8
    137fc:        01242223        sw x18 4 x8
    13800:        00a42423        sw x10 8 x8
    13804:        06848613        addi x12 x9 104
    13808:        00000593        addi x11 x0 0
    1380c:        aa5fc0ef        jal x1 -13660 <memset>
    13810:        00040513        addi x10 x8 0
    13814:        00c12083        lw x1 12 x2
    13818:        00812403        lw x8 8 x2
    1381c:        00412483        lw x9 4 x2
    13820:        00012903        lw x18 0 x2
    13824:        01010113        addi x2 x2 16
    13828:        00008067        jalr x0 x1 0

0001382c <__sfp>:
    1382c:        fe010113        addi x2 x2 -32
    13830:        1b818793        addi x15 x3 440
    13834:        01212823        sw x18 16 x2
    13838:        0007a903        lw x18 0 x15
    1383c:        01312623        sw x19 12 x2
    13840:        00112e23        sw x1 28 x2
    13844:        03892783        lw x15 56 x18
    13848:        00812c23        sw x8 24 x2
    1384c:        00912a23        sw x9 20 x2
    13850:        00050993        addi x19 x10 0
    13854:        0a078663        beq x15 x0 172
    13858:        2e090913        addi x18 x18 736
    1385c:        fff00493        addi x9 x0 -1
    13860:        00492783        lw x15 4 x18
    13864:        00892403        lw x8 8 x18
    13868:        fff78793        addi x15 x15 -1
    1386c:        0007da63        bge x15 x0 20
    13870:        0800006f        jal x0 128
    13874:        fff78793        addi x15 x15 -1
    13878:        06840413        addi x8 x8 104
    1387c:        06978a63        beq x15 x9 116
    13880:        00c41703        lh x14 12 x8
    13884:        fe0718e3        bne x14 x0 -16
    13888:        ffff07b7        lui x15 0xffff0
    1388c:        00178793        addi x15 x15 1
    13890:        06042223        sw x0 100 x8
    13894:        00042023        sw x0 0 x8
    13898:        00042223        sw x0 4 x8
    1389c:        00042423        sw x0 8 x8
    138a0:        00f42623        sw x15 12 x8
    138a4:        00042823        sw x0 16 x8
    138a8:        00042a23        sw x0 20 x8
    138ac:        00042c23        sw x0 24 x8
    138b0:        00800613        addi x12 x0 8
    138b4:        00000593        addi x11 x0 0
    138b8:        05c40513        addi x10 x8 92
    138bc:        9f5fc0ef        jal x1 -13836 <memset>
    138c0:        02042823        sw x0 48 x8
    138c4:        02042a23        sw x0 52 x8
    138c8:        04042223        sw x0 68 x8
    138cc:        04042423        sw x0 72 x8
    138d0:        00040513        addi x10 x8 0
    138d4:        01c12083        lw x1 28 x2
    138d8:        01812403        lw x8 24 x2
    138dc:        01412483        lw x9 20 x2
    138e0:        01012903        lw x18 16 x2
    138e4:        00c12983        lw x19 12 x2
    138e8:        02010113        addi x2 x2 32
    138ec:        00008067        jalr x0 x1 0
    138f0:        00092403        lw x8 0 x18
    138f4:        00040c63        beq x8 x0 24
    138f8:        00040913        addi x18 x8 0
    138fc:        f65ff06f        jal x0 -156
    13900:        00090513        addi x10 x18 0
    13904:        d31ff0ef        jal x1 -720 <__sinit.part.0>
    13908:        f51ff06f        jal x0 -176
    1390c:        00400593        addi x11 x0 4
    13910:        00098513        addi x10 x19 0
    13914:        eadff0ef        jal x1 -340 <__sfmoreglue>
    13918:        00a92023        sw x10 0 x18
    1391c:        00050413        addi x8 x10 0
    13920:        fc051ce3        bne x10 x0 -40
    13924:        00c00793        addi x15 x0 12
    13928:        00f9a023        sw x15 0 x19
    1392c:        fa5ff06f        jal x0 -92

00013930 <_cleanup>:
    13930:        1b818793        addi x15 x3 440
    13934:        0007a503        lw x10 0 x15
    13938:        00009597        auipc x11 0x9
    1393c:        4c058593        addi x11 x11 1216
    13940:        51c0006f        jal x0 1308 <_fwalk_reent>

00013944 <__sinit>:
    13944:        03852783        lw x15 56 x10
    13948:        00078463        beq x15 x0 8
    1394c:        00008067        jalr x0 x1 0
    13950:        ce5ff06f        jal x0 -796 <__sinit.part.0>

00013954 <__sfp_lock_acquire>:
    13954:        00008067        jalr x0 x1 0

00013958 <__sfp_lock_release>:
    13958:        00008067        jalr x0 x1 0

0001395c <__sinit_lock_acquire>:
    1395c:        00008067        jalr x0 x1 0

00013960 <__sinit_lock_release>:
    13960:        00008067        jalr x0 x1 0

00013964 <__fp_lock_all>:
    13964:        1c018793        addi x15 x3 448
    13968:        0007a503        lw x10 0 x15
    1396c:        00000597        auipc x11 0x0
    13970:        cb458593        addi x11 x11 -844
    13974:        4380006f        jal x0 1080 <_fwalk>

00013978 <__fp_unlock_all>:
    13978:        1c018793        addi x15 x3 448
    1397c:        0007a503        lw x10 0 x15
    13980:        00000597        auipc x11 0x0
    13984:        e3858593        addi x11 x11 -456
    13988:        4240006f        jal x0 1060 <_fwalk>

0001398c <_malloc_trim_r>:
    1398c:        fe010113        addi x2 x2 -32
    13990:        00812c23        sw x8 24 x2
    13994:        00912a23        sw x9 20 x2
    13998:        01212823        sw x18 16 x2
    1399c:        01312623        sw x19 12 x2
    139a0:        00058413        addi x8 x11 0
    139a4:        00112e23        sw x1 28 x2
    139a8:        d9418993        addi x19 x3 -620
    139ac:        00050913        addi x18 x10 0
    139b0:        451030ef        jal x1 15440 <__malloc_lock>
    139b4:        0089a683        lw x13 8 x19
    139b8:        00001737        lui x14 0x1
    139bc:        fef70793        addi x15 x14 -17
    139c0:        0046a483        lw x9 4 x13
    139c4:        40878433        sub x8 x15 x8
    139c8:        ffc4f493        andi x9 x9 -4
    139cc:        00940433        add x8 x8 x9
    139d0:        00c45413        srli x8 x8 12
    139d4:        fff40413        addi x8 x8 -1
    139d8:        00c41413        slli x8 x8 12
    139dc:        00e44e63        blt x8 x14 28
    139e0:        00000593        addi x11 x0 0
    139e4:        00090513        addi x10 x18 0
    139e8:        429040ef        jal x1 19496 <_sbrk_r>
    139ec:        0089a783        lw x15 8 x19
    139f0:        009787b3        add x15 x15 x9
    139f4:        02f50663        beq x10 x15 44
    139f8:        00090513        addi x10 x18 0
    139fc:        409030ef        jal x1 15368 <__malloc_unlock>
    13a00:        01c12083        lw x1 28 x2
    13a04:        01812403        lw x8 24 x2
    13a08:        01412483        lw x9 20 x2
    13a0c:        01012903        lw x18 16 x2
    13a10:        00c12983        lw x19 12 x2
    13a14:        00000513        addi x10 x0 0
    13a18:        02010113        addi x2 x2 32
    13a1c:        00008067        jalr x0 x1 0
    13a20:        408005b3        sub x11 x0 x8
    13a24:        00090513        addi x10 x18 0
    13a28:        3e9040ef        jal x1 19432 <_sbrk_r>
    13a2c:        fff00793        addi x15 x0 -1
    13a30:        04f50663        beq x10 x15 76
    13a34:        1fc18793        addi x15 x3 508
    13a38:        0007a783        lw x15 0 x15
    13a3c:        0089a703        lw x14 8 x19
    13a40:        408484b3        sub x9 x9 x8
    13a44:        0014e493        ori x9 x9 1
    13a48:        40878433        sub x8 x15 x8
    13a4c:        00090513        addi x10 x18 0
    13a50:        00972223        sw x9 4 x14
    13a54:        1e81ae23        sw x8 508 x3
    13a58:        3ad030ef        jal x1 15276 <__malloc_unlock>
    13a5c:        01c12083        lw x1 28 x2
    13a60:        01812403        lw x8 24 x2
    13a64:        01412483        lw x9 20 x2
    13a68:        01012903        lw x18 16 x2
    13a6c:        00c12983        lw x19 12 x2
    13a70:        00100513        addi x10 x0 1
    13a74:        02010113        addi x2 x2 32
    13a78:        00008067        jalr x0 x1 0
    13a7c:        00000593        addi x11 x0 0
    13a80:        00090513        addi x10 x18 0
    13a84:        38d040ef        jal x1 19340 <_sbrk_r>
    13a88:        0089a703        lw x14 8 x19
    13a8c:        00f00693        addi x13 x0 15
    13a90:        40e507b3        sub x15 x10 x14
    13a94:        f6f6d2e3        bge x13 x15 -156
    13a98:        1c418693        addi x13 x3 452
    13a9c:        0006a683        lw x13 0 x13
    13aa0:        0017e793        ori x15 x15 1
    13aa4:        00f72223        sw x15 4 x14
    13aa8:        40d50533        sub x10 x10 x13
    13aac:        1ea1ae23        sw x10 508 x3
    13ab0:        f49ff06f        jal x0 -184

00013ab4 <_free_r>:
    13ab4:        12058663        beq x11 x0 300
    13ab8:        ff010113        addi x2 x2 -16
    13abc:        00812423        sw x8 8 x2
    13ac0:        00912223        sw x9 4 x2
    13ac4:        00058413        addi x8 x11 0
    13ac8:        00050493        addi x9 x10 0
    13acc:        00112623        sw x1 12 x2
    13ad0:        331030ef        jal x1 15152 <__malloc_lock>
    13ad4:        ffc42583        lw x11 -4 x8
    13ad8:        ff840713        addi x14 x8 -8
    13adc:        d9418513        addi x10 x3 -620
    13ae0:        ffe5f793        andi x15 x11 -2
    13ae4:        00f70633        add x12 x14 x15
    13ae8:        00462683        lw x13 4 x12
    13aec:        00852803        lw x16 8 x10
    13af0:        ffc6f693        andi x13 x13 -4
    13af4:        18c80e63        beq x16 x12 412
    13af8:        00d62223        sw x13 4 x12
    13afc:        0015f593        andi x11 x11 1
    13b00:        00d60833        add x16 x12 x13
    13b04:        0a059063        bne x11 x0 160
    13b08:        ff842303        lw x6 -8 x8
    13b0c:        00482583        lw x11 4 x16
    13b10:        d9c18893        addi x17 x3 -612
    13b14:        40670733        sub x14 x14 x6
    13b18:        00872803        lw x16 8 x14
    13b1c:        006787b3        add x15 x15 x6
    13b20:        0015f593        andi x11 x11 1
    13b24:        15180063        beq x16 x17 320
    13b28:        00c72303        lw x6 12 x14
    13b2c:        00682623        sw x6 12 x16
    13b30:        01032423        sw x16 8 x6
    13b34:        1c058a63        beq x11 x0 468
    13b38:        0017e693        ori x13 x15 1
    13b3c:        00d72223        sw x13 4 x14
    13b40:        00f62023        sw x15 0 x12
    13b44:        1ff00693        addi x13 x0 511
    13b48:        0af6e863        bltu x13 x15 176
    13b4c:        0037d793        srli x15 x15 3
    13b50:        00178693        addi x13 x15 1
    13b54:        00369693        slli x13 x13 3
    13b58:        00452583        lw x11 4 x10
    13b5c:        00d50533        add x10 x10 x13
    13b60:        00052603        lw x12 0 x10
    13b64:        4027d693        srai x13 x15 2
    13b68:        00100793        addi x15 x0 1
    13b6c:        00d797b3        sll x15 x15 x13
    13b70:        00b7e7b3        or x15 x15 x11
    13b74:        ff850693        addi x13 x10 -8
    13b78:        00d72623        sw x13 12 x14
    13b7c:        00c72423        sw x12 8 x14
    13b80:        d8f1ac23        sw x15 -616 x3
    13b84:        00e52023        sw x14 0 x10
    13b88:        00e62623        sw x14 12 x12
    13b8c:        00812403        lw x8 8 x2
    13b90:        00c12083        lw x1 12 x2
    13b94:        00048513        addi x10 x9 0
    13b98:        00412483        lw x9 4 x2
    13b9c:        01010113        addi x2 x2 16
    13ba0:        2650306f        jal x0 14948 <__malloc_unlock>
    13ba4:        00482583        lw x11 4 x16
    13ba8:        0015f593        andi x11 x11 1
    13bac:        02059c63        bne x11 x0 56
    13bb0:        00d787b3        add x15 x15 x13
    13bb4:        d9c18893        addi x17 x3 -612
    13bb8:        00862683        lw x13 8 x12
    13bbc:        0017e813        ori x16 x15 1
    13bc0:        00f705b3        add x11 x14 x15
    13bc4:        15168e63        beq x13 x17 348
    13bc8:        00c62603        lw x12 12 x12
    13bcc:        00c6a623        sw x12 12 x13
    13bd0:        00d62423        sw x13 8 x12
    13bd4:        01072223        sw x16 4 x14
    13bd8:        00f5a023        sw x15 0 x11
    13bdc:        f69ff06f        jal x0 -152
    13be0:        00008067        jalr x0 x1 0
    13be4:        0017e693        ori x13 x15 1
    13be8:        fed42e23        sw x13 -4 x8
    13bec:        00f62023        sw x15 0 x12
    13bf0:        1ff00693        addi x13 x0 511
    13bf4:        f4f6fce3        bgeu x13 x15 -168
    13bf8:        0097d693        srli x13 x15 9
    13bfc:        00400613        addi x12 x0 4
    13c00:        0ed66263        bltu x12 x13 228
    13c04:        0067d693        srli x13 x15 6
    13c08:        03968593        addi x11 x13 57
    13c0c:        03868613        addi x12 x13 56
    13c10:        00359593        slli x11 x11 3
    13c14:        00b505b3        add x11 x10 x11
    13c18:        0005a683        lw x13 0 x11
    13c1c:        ff858593        addi x11 x11 -8
    13c20:        10d58e63        beq x11 x13 284
    13c24:        0046a603        lw x12 4 x13
    13c28:        ffc67613        andi x12 x12 -4
    13c2c:        00c7f663        bgeu x15 x12 12
    13c30:        0086a683        lw x13 8 x13
    13c34:        fed598e3        bne x11 x13 -16
    13c38:        00c6a583        lw x11 12 x13
    13c3c:        00b72623        sw x11 12 x14
    13c40:        00d72423        sw x13 8 x14
    13c44:        00812403        lw x8 8 x2
    13c48:        00e5a423        sw x14 8 x11
    13c4c:        00c12083        lw x1 12 x2
    13c50:        00048513        addi x10 x9 0
    13c54:        00412483        lw x9 4 x2
    13c58:        00e6a623        sw x14 12 x13
    13c5c:        01010113        addi x2 x2 16
    13c60:        1a50306f        jal x0 14756 <__malloc_unlock>
    13c64:        12059c63        bne x11 x0 312
    13c68:        00862583        lw x11 8 x12
    13c6c:        00c62603        lw x12 12 x12
    13c70:        00f687b3        add x15 x13 x15
    13c74:        0017e693        ori x13 x15 1
    13c78:        00c5a623        sw x12 12 x11
    13c7c:        00b62423        sw x11 8 x12
    13c80:        00d72223        sw x13 4 x14
    13c84:        00f70733        add x14 x14 x15
    13c88:        00f72023        sw x15 0 x14
    13c8c:        f01ff06f        jal x0 -256
    13c90:        0015f593        andi x11 x11 1
    13c94:        00d787b3        add x15 x15 x13
    13c98:        02059063        bne x11 x0 32
    13c9c:        ff842583        lw x11 -8 x8
    13ca0:        40b70733        sub x14 x14 x11
    13ca4:        00c72683        lw x13 12 x14
    13ca8:        00872603        lw x12 8 x14
    13cac:        00b787b3        add x15 x15 x11
    13cb0:        00d62623        sw x13 12 x12
    13cb4:        00c6a423        sw x12 8 x13
    13cb8:        1c818693        addi x13 x3 456
    13cbc:        0017e613        ori x12 x15 1
    13cc0:        0006a683        lw x13 0 x13
    13cc4:        00c72223        sw x12 4 x14
    13cc8:        d8e1ae23        sw x14 -612 x3
    13ccc:        ecd7e0e3        bltu x15 x13 -320
    13cd0:        1d818793        addi x15 x3 472
    13cd4:        0007a583        lw x11 0 x15
    13cd8:        00048513        addi x10 x9 0
    13cdc:        cb1ff0ef        jal x1 -848 <_malloc_trim_r>
    13ce0:        eadff06f        jal x0 -340
    13ce4:        01400613        addi x12 x0 20
    13ce8:        02d67463        bgeu x12 x13 40
    13cec:        05400613        addi x12 x0 84
    13cf0:        06d66463        bltu x12 x13 104
    13cf4:        00c7d693        srli x13 x15 12
    13cf8:        06f68593        addi x11 x13 111
    13cfc:        06e68613        addi x12 x13 110
    13d00:        00359593        slli x11 x11 3
    13d04:        f11ff06f        jal x0 -240
    13d08:        00d787b3        add x15 x15 x13
    13d0c:        eadff06f        jal x0 -340
    13d10:        05c68593        addi x11 x13 92
    13d14:        05b68613        addi x12 x13 91
    13d18:        00359593        slli x11 x11 3
    13d1c:        ef9ff06f        jal x0 -264
    13d20:        dae1a423        sw x14 -600 x3
    13d24:        dae1a223        sw x14 -604 x3
    13d28:        01172623        sw x17 12 x14
    13d2c:        01172423        sw x17 8 x14
    13d30:        01072223        sw x16 4 x14
    13d34:        00f5a023        sw x15 0 x11
    13d38:        e55ff06f        jal x0 -428
    13d3c:        00452503        lw x10 4 x10
    13d40:        00100793        addi x15 x0 1
    13d44:        40265613        srai x12 x12 2
    13d48:        00c79633        sll x12 x15 x12
    13d4c:        00a66633        or x12 x12 x10
    13d50:        d8c1ac23        sw x12 -616 x3
    13d54:        ee9ff06f        jal x0 -280
    13d58:        15400613        addi x12 x0 340
    13d5c:        00d66c63        bltu x12 x13 24
    13d60:        00f7d693        srli x13 x15 15
    13d64:        07868593        addi x11 x13 120
    13d68:        07768613        addi x12 x13 119
    13d6c:        00359593        slli x11 x11 3
    13d70:        ea5ff06f        jal x0 -348
    13d74:        55400613        addi x12 x0 1364
    13d78:        00d66c63        bltu x12 x13 24
    13d7c:        0127d693        srli x13 x15 18
    13d80:        07d68593        addi x11 x13 125
    13d84:        07c68613        addi x12 x13 124
    13d88:        00359593        slli x11 x11 3
    13d8c:        e89ff06f        jal x0 -376
    13d90:        3f800593        addi x11 x0 1016
    13d94:        07e00613        addi x12 x0 126
    13d98:        e7dff06f        jal x0 -388
    13d9c:        0017e693        ori x13 x15 1
    13da0:        00d72223        sw x13 4 x14
    13da4:        00f62023        sw x15 0 x12
    13da8:        de5ff06f        jal x0 -540

00013dac <_fwalk>:
    13dac:        fe010113        addi x2 x2 -32
    13db0:        01512223        sw x21 4 x2
    13db4:        00112e23        sw x1 28 x2
    13db8:        00812c23        sw x8 24 x2
    13dbc:        00912a23        sw x9 20 x2
    13dc0:        01212823        sw x18 16 x2
    13dc4:        01312623        sw x19 12 x2
    13dc8:        01412423        sw x20 8 x2
    13dcc:        01612023        sw x22 0 x2
    13dd0:        2e050a93        addi x21 x10 736
    13dd4:        080a8063        beq x21 x0 128
    13dd8:        00058b13        addi x22 x11 0
    13ddc:        00000a13        addi x20 x0 0
    13de0:        00100993        addi x19 x0 1
    13de4:        fff00913        addi x18 x0 -1
    13de8:        004aa483        lw x9 4 x21
    13dec:        008aa403        lw x8 8 x21
    13df0:        fff48493        addi x9 x9 -1
    13df4:        0204c663        blt x9 x0 44
    13df8:        00c45783        lhu x15 12 x8
    13dfc:        fff48493        addi x9 x9 -1
    13e00:        00f9fc63        bgeu x19 x15 24
    13e04:        00e41783        lh x15 14 x8
    13e08:        00040513        addi x10 x8 0
    13e0c:        01278663        beq x15 x18 12
    13e10:        000b00e7        jalr x1 x22 0
    13e14:        00aa6a33        or x20 x20 x10
    13e18:        06840413        addi x8 x8 104
    13e1c:        fd249ee3        bne x9 x18 -36
    13e20:        000aaa83        lw x21 0 x21
    13e24:        fc0a92e3        bne x21 x0 -60
    13e28:        01c12083        lw x1 28 x2
    13e2c:        01812403        lw x8 24 x2
    13e30:        000a0513        addi x10 x20 0
    13e34:        01412483        lw x9 20 x2
    13e38:        01012903        lw x18 16 x2
    13e3c:        00c12983        lw x19 12 x2
    13e40:        00812a03        lw x20 8 x2
    13e44:        00412a83        lw x21 4 x2
    13e48:        00012b03        lw x22 0 x2
    13e4c:        02010113        addi x2 x2 32
    13e50:        00008067        jalr x0 x1 0
    13e54:        00000a13        addi x20 x0 0
    13e58:        fd1ff06f        jal x0 -48

00013e5c <_fwalk_reent>:
    13e5c:        fd010113        addi x2 x2 -48
    13e60:        01512a23        sw x21 20 x2
    13e64:        02112623        sw x1 44 x2
    13e68:        02812423        sw x8 40 x2
    13e6c:        02912223        sw x9 36 x2
    13e70:        03212023        sw x18 32 x2
    13e74:        01312e23        sw x19 28 x2
    13e78:        01412c23        sw x20 24 x2
    13e7c:        01612823        sw x22 16 x2
    13e80:        01712623        sw x23 12 x2
    13e84:        2e050a93        addi x21 x10 736
    13e88:        080a8663        beq x21 x0 140
    13e8c:        00058b93        addi x23 x11 0
    13e90:        00050b13        addi x22 x10 0
    13e94:        00000a13        addi x20 x0 0
    13e98:        00100993        addi x19 x0 1
    13e9c:        fff00913        addi x18 x0 -1
    13ea0:        004aa483        lw x9 4 x21
    13ea4:        008aa403        lw x8 8 x21
    13ea8:        fff48493        addi x9 x9 -1
    13eac:        0204c863        blt x9 x0 48
    13eb0:        00c45783        lhu x15 12 x8
    13eb4:        fff48493        addi x9 x9 -1
    13eb8:        00f9fe63        bgeu x19 x15 28
    13ebc:        00e41783        lh x15 14 x8
    13ec0:        00040593        addi x11 x8 0
    13ec4:        000b0513        addi x10 x22 0
    13ec8:        01278663        beq x15 x18 12
    13ecc:        000b80e7        jalr x1 x23 0
    13ed0:        00aa6a33        or x20 x20 x10
    13ed4:        06840413        addi x8 x8 104
    13ed8:        fd249ce3        bne x9 x18 -40
    13edc:        000aaa83        lw x21 0 x21
    13ee0:        fc0a90e3        bne x21 x0 -64
    13ee4:        02c12083        lw x1 44 x2
    13ee8:        02812403        lw x8 40 x2
    13eec:        000a0513        addi x10 x20 0
    13ef0:        02412483        lw x9 36 x2
    13ef4:        02012903        lw x18 32 x2
    13ef8:        01c12983        lw x19 28 x2
    13efc:        01812a03        lw x20 24 x2
    13f00:        01412a83        lw x21 20 x2
    13f04:        01012b03        lw x22 16 x2
    13f08:        00c12b83        lw x23 12 x2
    13f0c:        03010113        addi x2 x2 48
    13f10:        00008067        jalr x0 x1 0
    13f14:        00000a13        addi x20 x0 0
    13f18:        fcdff06f        jal x0 -52

00013f1c <eshdn1>:
    13f1c:        00450693        addi x13 x10 4
    13f20:        00000793        addi x15 x0 0
    13f24:        01a50513        addi x10 x10 26
    13f28:        ffff8837        lui x16 0xffff8
    13f2c:        01c0006f        jal x0 28
    13f30:        00179793        slli x15 x15 1
    13f34:        00e69023        sh x14 0 x13
    13f38:        01079793        slli x15 x15 16
    13f3c:        00268693        addi x13 x13 2
    13f40:        0107d793        srli x15 x15 16
    13f44:        02d50e63        beq x10 x13 60
    13f48:        0006d703        lhu x14 0 x13
    13f4c:        00177613        andi x12 x14 1
    13f50:        00060463        beq x12 x0 8
    13f54:        0017e793        ori x15 x15 1
    13f58:        00175713        srli x14 x14 1
    13f5c:        0027f613        andi x12 x15 2
    13f60:        010765b3        or x11 x14 x16
    13f64:        fc0606e3        beq x12 x0 -52
    13f68:        00179793        slli x15 x15 1
    13f6c:        00b69023        sh x11 0 x13
    13f70:        01079793        slli x15 x15 16
    13f74:        00268693        addi x13 x13 2
    13f78:        0107d793        srli x15 x15 16
    13f7c:        fcd516e3        bne x10 x13 -52
    13f80:        00008067        jalr x0 x1 0

00013f84 <eshup1>:
    13f84:        01850693        addi x13 x10 24
    13f88:        00000713        addi x14 x0 0
    13f8c:        00250513        addi x10 x10 2
    13f90:        01c0006f        jal x0 28
    13f94:        00171713        slli x14 x14 1
    13f98:        00f69023        sh x15 0 x13
    13f9c:        01071713        slli x14 x14 16
    13fa0:        ffe68693        addi x13 x13 -2
    13fa4:        01075713        srli x14 x14 16
    13fa8:        04d50463        beq x10 x13 72
    13fac:        0006d783        lhu x15 0 x13
    13fb0:        01079613        slli x12 x15 16
    13fb4:        41065613        srai x12 x12 16
    13fb8:        00179793        slli x15 x15 1
    13fbc:        00065463        bge x12 x0 8
    13fc0:        00176713        ori x14 x14 1
    13fc4:        01079793        slli x15 x15 16
    13fc8:        0107d793        srli x15 x15 16
    13fcc:        00277613        andi x12 x14 2
    13fd0:        0017e593        ori x11 x15 1
    13fd4:        fc0600e3        beq x12 x0 -64
    13fd8:        00171713        slli x14 x14 1
    13fdc:        00b69023        sh x11 0 x13
    13fe0:        01071713        slli x14 x14 16
    13fe4:        ffe68693        addi x13 x13 -2
    13fe8:        01075713        srli x14 x14 16
    13fec:        fcd510e3        bne x10 x13 -64
    13ff0:        00008067        jalr x0 x1 0

00013ff4 <m16m>:
    13ff4:        fe010113        addi x2 x2 -32
    13ff8:        00010e37        lui x28 0x10
    13ffc:        00011d23        sh x0 26 x2
    14000:        00011e23        sh x0 28 x2
    14004:        01858593        addi x11 x11 24
    14008:        01c10793        addi x15 x2 28
    1400c:        00810813        addi x16 x2 8
    14010:        fffe0e13        addi x28 x28 -1
    14014:        0005d703        lhu x14 0 x11
    14018:        ffe78793        addi x15 x15 -2
    1401c:        ffe58593        addi x11 x11 -2
    14020:        02071863        bne x14 x0 48
    14024:        fe079f23        sh x0 -2 x15
    14028:        ff0796e3        bne x15 x16 -20
    1402c:        00460613        addi x12 x12 4
    14030:        01e10693        addi x13 x2 30
    14034:        0007d703        lhu x14 0 x15
    14038:        00260613        addi x12 x12 2
    1403c:        00278793        addi x15 x15 2
    14040:        fee61f23        sh x14 -2 x12
    14044:        fed798e3        bne x15 x13 -16
    14048:        02010113        addi x2 x2 32
    1404c:        00008067        jalr x0 x1 0
    14050:        02a70733        mul x14 x14 x10
    14054:        0027d883        lhu x17 2 x15
    14058:        0007d303        lhu x6 0 x15
    1405c:        01c776b3        and x13 x14 x28
    14060:        011686b3        add x13 x13 x17
    14064:        01075713        srli x14 x14 16
    14068:        0106d893        srli x17 x13 16
    1406c:        00670733        add x14 x14 x6
    14070:        01170733        add x14 x14 x17
    14074:        01075893        srli x17 x14 16
    14078:        00d79123        sh x13 2 x15
    1407c:        00e79023        sh x14 0 x15
    14080:        ff179f23        sh x17 -2 x15
    14084:        f90798e3        bne x15 x16 -112
    14088:        fa5ff06f        jal x0 -92

0001408c <eisnan.part.0>:
    1408c:        01250713        addi x14 x10 18
    14090:        00250513        addi x10 x10 2
    14094:        ffe55783        lhu x15 -2 x10
    14098:        00079863        bne x15 x0 16
    1409c:        fea71ae3        bne x14 x10 -12
    140a0:        00000513        addi x10 x0 0
    140a4:        00008067        jalr x0 x1 0
    140a8:        00100513        addi x10 x0 1
    140ac:        00008067        jalr x0 x1 0

000140b0 <eneg>:
    140b0:        ff010113        addi x2 x2 -16
    140b4:        00812423        sw x8 8 x2
    140b8:        01255403        lhu x8 18 x10
    140bc:        00912223        sw x9 4 x2
    140c0:        00112623        sw x1 12 x2
    140c4:        fff44793        xori x15 x8 -1
    140c8:        01179713        slli x14 x15 17
    140cc:        00050493        addi x9 x10 0
    140d0:        00071663        bne x14 x0 12
    140d4:        fb9ff0ef        jal x1 -72 <eisnan.part.0>
    140d8:        00051863        bne x10 x0 16
    140dc:        ffff87b7        lui x15 0xffff8
    140e0:        00f44433        xor x8 x8 x15
    140e4:        00849923        sh x8 18 x9
    140e8:        00c12083        lw x1 12 x2
    140ec:        00812403        lw x8 8 x2
    140f0:        00412483        lw x9 4 x2
    140f4:        01010113        addi x2 x2 16
    140f8:        00008067        jalr x0 x1 0

000140fc <eisneg>:
    140fc:        ff010113        addi x2 x2 -16
    14100:        00812423        sw x8 8 x2
    14104:        01255403        lhu x8 18 x10
    14108:        00112623        sw x1 12 x2
    1410c:        fff44793        xori x15 x8 -1
    14110:        01179713        slli x14 x15 17
    14114:        00071863        bne x14 x0 16
    14118:        f75ff0ef        jal x1 -140 <eisnan.part.0>
    1411c:        00000793        addi x15 x0 0
    14120:        00051463        bne x10 x0 8
    14124:        00f45793        srli x15 x8 15
    14128:        00c12083        lw x1 12 x2
    1412c:        00812403        lw x8 8 x2
    14130:        00078513        addi x10 x15 0
    14134:        01010113        addi x2 x2 16
    14138:        00008067        jalr x0 x1 0

0001413c <emovi>:
    1413c:        01255783        lhu x15 18 x10
    14140:        ff010113        addi x2 x2 -16
    14144:        00812423        sw x8 8 x2
    14148:        00f7d793        srli x15 x15 15
    1414c:        00912223        sw x9 4 x2
    14150:        00112623        sw x1 12 x2
    14154:        01212023        sw x18 0 x2
    14158:        40f007b3        sub x15 x0 x15
    1415c:        00f59023        sh x15 0 x11
    14160:        01255783        lhu x15 18 x10
    14164:        000086b7        lui x13 0x8
    14168:        fff68693        addi x13 x13 -1
    1416c:        00f6f7b3        and x15 x13 x15
    14170:        00f59123        sh x15 2 x11
    14174:        00050493        addi x9 x10 0
    14178:        01050413        addi x8 x10 16
    1417c:        04d78063        beq x15 x13 64
    14180:        00658793        addi x15 x11 6
    14184:        00059223        sh x0 4 x11
    14188:        ffe50513        addi x10 x10 -2
    1418c:        ffe40413        addi x8 x8 -2
    14190:        00245703        lhu x14 2 x8
    14194:        00278793        addi x15 x15 2
    14198:        fee79f23        sh x14 -2 x15
    1419c:        fea418e3        bne x8 x10 -16
    141a0:        00059c23        sh x0 24 x11
    141a4:        00c12083        lw x1 12 x2
    141a8:        00812403        lw x8 8 x2
    141ac:        00412483        lw x9 4 x2
    141b0:        00012903        lw x18 0 x2
    141b4:        01010113        addi x2 x2 16
    141b8:        00008067        jalr x0 x1 0
    141bc:        01255703        lhu x14 18 x10
    141c0:        00058913        addi x18 x11 0
    141c4:        00e7f733        and x14 x15 x14
    141c8:        02f71863        bne x14 x15 48
    141cc:        ec1ff0ef        jal x1 -320 <eisnan.part.0>
    141d0:        02050463        beq x10 x0 40
    141d4:        00690713        addi x14 x18 6
    141d8:        00091223        sh x0 4 x18
    141dc:        ffc48793        addi x15 x9 -4
    141e0:        ffe40413        addi x8 x8 -2
    141e4:        00245683        lhu x13 2 x8
    141e8:        00270713        addi x14 x14 2
    141ec:        fed71f23        sh x13 -2 x14
    141f0:        fe8798e3        bne x15 x8 -16
    141f4:        fb1ff06f        jal x0 -80
    141f8:        00490793        addi x15 x18 4
    141fc:        01a90593        addi x11 x18 26
    14200:        00278793        addi x15 x15 2
    14204:        fe079f23        sh x0 -2 x15
    14208:        fef59ce3        bne x11 x15 -8
    1420c:        00c12083        lw x1 12 x2
    14210:        00812403        lw x8 8 x2
    14214:        00412483        lw x9 4 x2
    14218:        00012903        lw x18 0 x2
    1421c:        01010113        addi x2 x2 16
    14220:        00008067        jalr x0 x1 0

00014224 <ecmp>:
    14224:        01255783        lhu x15 18 x10
    14228:        fb010113        addi x2 x2 -80
    1422c:        04812423        sw x8 72 x2
    14230:        fff7c793        xori x15 x15 -1
    14234:        04912223        sw x9 68 x2
    14238:        04112623        sw x1 76 x2
    1423c:        01179713        slli x14 x15 17
    14240:        00050493        addi x9 x10 0
    14244:        00058413        addi x8 x11 0
    14248:        00071663        bne x14 x0 12
    1424c:        e41ff0ef        jal x1 -448 <eisnan.part.0>
    14250:        08051263        bne x10 x0 132
    14254:        01245783        lhu x15 18 x8
    14258:        fff7c793        xori x15 x15 -1
    1425c:        01179713        slli x14 x15 17
    14260:        06070463        beq x14 x0 104
    14264:        00810593        addi x11 x2 8
    14268:        00048513        addi x10 x9 0
    1426c:        ed1ff0ef        jal x1 -304 <emovi>
    14270:        02410593        addi x11 x2 36
    14274:        00040513        addi x10 x8 0
    14278:        ec5ff0ef        jal x1 -316 <emovi>
    1427c:        00815583        lhu x11 8 x2
    14280:        02415503        lhu x10 36 x2
    14284:        04b50c63        beq x10 x11 88
    14288:        00a10793        addi x15 x2 10
    1428c:        02610713        addi x14 x2 38
    14290:        02010613        addi x12 x2 32
    14294:        0007d683        lhu x13 0 x15
    14298:        00278793        addi x15 x15 2
    1429c:        08069a63        bne x13 x0 148
    142a0:        00075683        lhu x13 0 x14
    142a4:        00270713        addi x14 x14 2
    142a8:        08069463        bne x13 x0 136
    142ac:        fec794e3        bne x15 x12 -24
    142b0:        00000513        addi x10 x0 0
    142b4:        04c12083        lw x1 76 x2
    142b8:        04812403        lw x8 72 x2
    142bc:        04412483        lw x9 68 x2
    142c0:        05010113        addi x2 x2 80
    142c4:        00008067        jalr x0 x1 0
    142c8:        00040513        addi x10 x8 0
    142cc:        dc1ff0ef        jal x1 -576 <eisnan.part.0>
    142d0:        f8050ae3        beq x10 x0 -108
    142d4:        ffe00513        addi x10 x0 -2
    142d8:        fddff06f        jal x0 -36
    142dc:        00a10713        addi x14 x2 10
    142e0:        02610793        addi x15 x2 38
    142e4:        00278793        addi x15 x15 2
    142e8:        00270713        addi x14 x14 2
    142ec:        00153513        sltiu x10 x10 1
    142f0:        ffe75603        lhu x12 -2 x14
    142f4:        ffe7d683        lhu x13 -2 x15
    142f8:        40a00533        sub x10 x0 x10
    142fc:        00257513        andi x10 x10 2
    14300:        fff50513        addi x10 x10 -1
    14304:        03c10593        addi x11 x2 60
    14308:        00d61e63        bne x12 x13 28
    1430c:        fab782e3        beq x15 x11 -92
    14310:        00278793        addi x15 x15 2
    14314:        00270713        addi x14 x14 2
    14318:        ffe75603        lhu x12 -2 x14
    1431c:        ffe7d683        lhu x13 -2 x15
    14320:        fed606e3        beq x12 x13 -20
    14324:        f8c6e8e3        bltu x13 x12 -112
    14328:        40a00533        sub x10 x0 x10
    1432c:        f89ff06f        jal x0 -120
    14330:        00100513        addi x10 x0 1
    14334:        f80580e3        beq x11 x0 -128
    14338:        fff00513        addi x10 x0 -1
    1433c:        f79ff06f        jal x0 -136

00014340 <eisinf.part.1>:
    14340:        ff010113        addi x2 x2 -16
    14344:        00112623        sw x1 12 x2
    14348:        d45ff0ef        jal x1 -700 <eisnan.part.0>
    1434c:        00c12083        lw x1 12 x2
    14350:        00153513        sltiu x10 x10 1
    14354:        01010113        addi x2 x2 16
    14358:        00008067        jalr x0 x1 0

0001435c <eshift.part.3>:
    1435c:        ff010113        addi x2 x2 -16
    14360:        00812423        sw x8 8 x2
    14364:        01212023        sw x18 0 x2
    14368:        00112623        sw x1 12 x2
    1436c:        00912223        sw x9 4 x2
    14370:        00058913        addi x18 x11 0
    14374:        00050413        addi x8 x10 0
    14378:        0a05c263        blt x11 x0 164
    1437c:        00f00793        addi x15 x0 15
    14380:        00058613        addi x12 x11 0
    14384:        00450513        addi x10 x10 4
    14388:        01840693        addi x13 x8 24
    1438c:        00f00593        addi x11 x0 15
    14390:        0327d463        bge x15 x18 40
    14394:        00050793        addi x15 x10 0
    14398:        00278793        addi x15 x15 2
    1439c:        0007d703        lhu x14 0 x15
    143a0:        fee79f23        sh x14 -2 x15
    143a4:        fed79ae3        bne x15 x13 -12
    143a8:        00041c23        sh x0 24 x8
    143ac:        ff060613        addi x12 x12 -16
    143b0:        fec5c2e3        blt x11 x12 -28
    143b4:        00f97913        andi x18 x18 15
    143b8:        00700793        addi x15 x0 7
    143bc:        0327d863        bge x15 x18 48
    143c0:        01840793        addi x15 x8 24
    143c4:        00240593        addi x11 x8 2
    143c8:        00000713        addi x14 x0 0
    143cc:        0007d683        lhu x13 0 x15
    143d0:        ffe78793        addi x15 x15 -2
    143d4:        00869613        slli x12 x13 8
    143d8:        00c76733        or x14 x14 x12
    143dc:        00e79123        sh x14 2 x15
    143e0:        0086d713        srli x14 x13 8
    143e4:        feb794e3        bne x15 x11 -24
    143e8:        ff890913        addi x18 x18 -8
    143ec:        00090a63        beq x18 x0 20
    143f0:        fff90913        addi x18 x18 -1
    143f4:        00040513        addi x10 x8 0
    143f8:        b8dff0ef        jal x1 -1140 <eshup1>
    143fc:        fe091ae3        bne x18 x0 -12
    14400:        00c12083        lw x1 12 x2
    14404:        00812403        lw x8 8 x2
    14408:        00412483        lw x9 4 x2
    1440c:        00012903        lw x18 0 x2
    14410:        00000513        addi x10 x0 0
    14414:        01010113        addi x2 x2 16
    14418:        00008067        jalr x0 x1 0
    1441c:        ff100793        addi x15 x0 -15
    14420:        40b004b3        sub x9 x0 x11
    14424:        0cf5d463        bge x11 x15 200
    14428:        01850593        addi x11 x10 24
    1442c:        00000913        addi x18 x0 0
    14430:        00450693        addi x13 x10 4
    14434:        00f00613        addi x12 x0 15
    14438:        01845703        lhu x14 24 x8
    1443c:        00058793        addi x15 x11 0
    14440:        00e96933        or x18 x18 x14
    14444:        ffe78793        addi x15 x15 -2
    14448:        0007d703        lhu x14 0 x15
    1444c:        00e79123        sh x14 2 x15
    14450:        fed79ae3        bne x15 x13 -12
    14454:        00041223        sh x0 4 x8
    14458:        ff048493        addi x9 x9 -16
    1445c:        fc964ee3        blt x12 x9 -36
    14460:        00700793        addi x15 x0 7
    14464:        0497d663        bge x15 x9 76
    14468:        01091913        slli x18 x18 16
    1446c:        41095913        srai x18 x18 16
    14470:        01844783        lbu x15 24 x8
    14474:        01a40593        addi x11 x8 26
    14478:        00000713        addi x14 x0 0
    1447c:        00f96933        or x18 x18 x15
    14480:        01091913        slli x18 x18 16
    14484:        01095913        srli x18 x18 16
    14488:        0006d783        lhu x15 0 x13
    1448c:        00268693        addi x13 x13 2
    14490:        0087d613        srli x12 x15 8
    14494:        00c76733        or x14 x14 x12
    14498:        00879793        slli x15 x15 8
    1449c:        fee69f23        sh x14 -2 x13
    144a0:        01079713        slli x14 x15 16
    144a4:        01075713        srli x14 x14 16
    144a8:        feb690e3        bne x13 x11 -32
    144ac:        ff848493        addi x9 x9 -8
    144b0:        02048063        beq x9 x0 32
    144b4:        01845783        lhu x15 24 x8
    144b8:        fff48493        addi x9 x9 -1
    144bc:        00040513        addi x10 x8 0
    144c0:        0017f793        andi x15 x15 1
    144c4:        0127e933        or x18 x15 x18
    144c8:        a55ff0ef        jal x1 -1452 <eshdn1>
    144cc:        fe0494e3        bne x9 x0 -24
    144d0:        00c12083        lw x1 12 x2
    144d4:        00812403        lw x8 8 x2
    144d8:        01203533        sltu x10 x0 x18
    144dc:        00412483        lw x9 4 x2
    144e0:        00012903        lw x18 0 x2
    144e4:        01010113        addi x2 x2 16
    144e8:        00008067        jalr x0 x1 0
    144ec:        ff900793        addi x15 x0 -7
    144f0:        00f5c663        blt x11 x15 12
    144f4:        00000913        addi x18 x0 0
    144f8:        fbdff06f        jal x0 -68
    144fc:        00000913        addi x18 x0 0
    14500:        00440693        addi x13 x8 4
    14504:        f6dff06f        jal x0 -148

00014508 <enormlz>:
    14508:        00455783        lhu x15 4 x10
    1450c:        ff010113        addi x2 x2 -16
    14510:        00912223        sw x9 4 x2
    14514:        00112623        sw x1 12 x2
    14518:        00812423        sw x8 8 x2
    1451c:        01212023        sw x18 0 x2
    14520:        00050493        addi x9 x10 0
    14524:        0c079c63        bne x15 x0 216
    14528:        00655703        lhu x14 6 x10
    1452c:        00000413        addi x8 x0 0
    14530:        01071793        slli x15 x14 16
    14534:        4107d793        srai x15 x15 16
    14538:        0a07c463        blt x15 x0 168
    1453c:        01a50693        addi x13 x10 26
    14540:        0a000613        addi x12 x0 160
    14544:        02071863        bne x14 x0 48
    14548:        00648793        addi x15 x9 6
    1454c:        0080006f        jal x0 8
    14550:        0007d703        lhu x14 0 x15
    14554:        00278793        addi x15 x15 2
    14558:        fee79e23        sh x14 -4 x15
    1455c:        fef69ae3        bne x13 x15 -12
    14560:        00049c23        sh x0 24 x9
    14564:        01040413        addi x8 x8 16
    14568:        06c40c63        beq x8 x12 120
    1456c:        0064d703        lhu x14 6 x9
    14570:        fc070ce3        beq x14 x0 -40
    14574:        f0077793        andi x15 x14 -256
    14578:        04079063        bne x15 x0 64
    1457c:        01848513        addi x10 x9 24
    14580:        00248593        addi x11 x9 2
    14584:        00000713        addi x14 x0 0
    14588:        00050793        addi x15 x10 0
    1458c:        0007d683        lhu x13 0 x15
    14590:        ffe78793        addi x15 x15 -2
    14594:        00869613        slli x12 x13 8
    14598:        00c76733        or x14 x14 x12
    1459c:        00e79123        sh x14 2 x15
    145a0:        0086d713        srli x14 x13 8
    145a4:        fef594e3        bne x11 x15 -24
    145a8:        0064d703        lhu x14 6 x9
    145ac:        00840413        addi x8 x8 8
    145b0:        f0077793        andi x15 x14 -256
    145b4:        fc0788e3        beq x15 x0 -48
    145b8:        0a000913        addi x18 x0 160
    145bc:        0140006f        jal x0 20
    145c0:        00140413        addi x8 x8 1
    145c4:        9c1ff0ef        jal x1 -1600 <eshup1>
    145c8:        00894c63        blt x18 x8 24
    145cc:        0064d703        lhu x14 6 x9
    145d0:        01071713        slli x14 x14 16
    145d4:        41075713        srai x14 x14 16
    145d8:        00048513        addi x10 x9 0
    145dc:        fe0752e3        bge x14 x0 -28
    145e0:        00040513        addi x10 x8 0
    145e4:        00c12083        lw x1 12 x2
    145e8:        00812403        lw x8 8 x2
    145ec:        00412483        lw x9 4 x2
    145f0:        00012903        lw x18 0 x2
    145f4:        01010113        addi x2 x2 16
    145f8:        00008067        jalr x0 x1 0
    145fc:        f007f713        andi x14 x15 -256
    14600:        00000413        addi x8 x0 0
    14604:        04071063        bne x14 x0 64
    14608:        f6f00913        addi x18 x0 -145
    1460c:        0140006f        jal x0 20
    14610:        fff40413        addi x8 x8 -1
    14614:        909ff0ef        jal x1 -1784 <eshdn1>
    14618:        fd2404e3        beq x8 x18 -56
    1461c:        0044d783        lhu x15 4 x9
    14620:        00048513        addi x10 x9 0
    14624:        fe0796e3        bne x15 x0 -20
    14628:        00040513        addi x10 x8 0
    1462c:        00c12083        lw x1 12 x2
    14630:        00812403        lw x8 8 x2
    14634:        00412483        lw x9 4 x2
    14638:        00012903        lw x18 0 x2
    1463c:        01010113        addi x2 x2 16
    14640:        00008067        jalr x0 x1 0
    14644:        00450693        addi x13 x10 4
    14648:        01a50593        addi x11 x10 26
    1464c:        00000713        addi x14 x0 0
    14650:        0080006f        jal x0 8
    14654:        0006d783        lhu x15 0 x13
    14658:        0087d613        srli x12 x15 8
    1465c:        00c76733        or x14 x14 x12
    14660:        00879793        slli x15 x15 8
    14664:        00e69023        sh x14 0 x13
    14668:        01079713        slli x14 x15 16
    1466c:        00268693        addi x13 x13 2
    14670:        01075713        srli x14 x14 16
    14674:        feb690e3        bne x13 x11 -32
    14678:        0044d783        lhu x15 4 x9
    1467c:        ff800413        addi x8 x0 -8
    14680:        f89ff06f        jal x0 -120

00014684 <emdnorm>:
    14684:        fe010113        addi x2 x2 -32
    14688:        00812c23        sw x8 24 x2
    1468c:        00912a23        sw x9 20 x2
    14690:        01212823        sw x18 16 x2
    14694:        01312623        sw x19 12 x2
    14698:        01412423        sw x20 8 x2
    1469c:        01512223        sw x21 4 x2
    146a0:        00068913        addi x18 x13 0
    146a4:        00078493        addi x9 x15 0
    146a8:        00112e23        sw x1 28 x2
    146ac:        00050413        addi x8 x10 0
    146b0:        00058993        addi x19 x11 0
    146b4:        00060a13        addi x20 x12 0
    146b8:        00070a93        addi x21 x14 0
    146bc:        e4dff0ef        jal x1 -436 <enormlz>
    146c0:        09000793        addi x15 x0 144
    146c4:        40a90933        sub x18 x18 x10
    146c8:        06a7de63        bge x15 x10 124
    146cc:        000087b7        lui x15 0x8
    146d0:        ffe78793        addi x15 x15 -2
    146d4:        2127da63        bge x15 x18 532
    146d8:        1e0a8463        beq x21 x0 488
    146dc:        0044a503        lw x10 4 x9
    146e0:        0004a783        lw x15 0 x9
    146e4:        0ea78a63        beq x15 x10 244
    146e8:        01a48713        addi x14 x9 26
    146ec:        03448793        addi x15 x9 52
    146f0:        00270713        addi x14 x14 2
    146f4:        fe071f23        sh x0 -2 x14
    146f8:        fef71ce3        bne x14 x15 -8
    146fc:        03800793        addi x15 x0 56
    14700:        36f50063        beq x10 x15 864
    14704:        06a7d263        bge x15 x10 100
    14708:        04000793        addi x15 x0 64
    1470c:        2ef50a63        beq x10 x15 756
    14710:        07100793        addi x15 x0 113
    14714:        30f51c63        bne x10 x15 792
    14718:        400087b7        lui x15 0x40008
    1471c:        fff78793        addi x15 x15 -1
    14720:        00a00713        addi x14 x0 10
    14724:        00f4aa23        sw x15 20 x9
    14728:        ffff87b7        lui x15 0xffff8
    1472c:        00e4a423        sw x14 8 x9
    14730:        00f49c23        sh x15 24 x9
    14734:        00e4a623        sw x14 12 x9
    14738:        00a00793        addi x15 x0 10
    1473c:        00008737        lui x14 0x8
    14740:        0600006f        jal x0 96
    14744:        1e095263        bge x18 x0 484
    14748:        f7000793        addi x15 x0 -144
    1474c:        1af95a63        bge x18 x15 436
    14750:        00240793        addi x15 x8 2
    14754:        01a40413        addi x8 x8 26
    14758:        00278793        addi x15 x15 2
    1475c:        fe079f23        sh x0 -2 x15
    14760:        fe879ce3        bne x15 x8 -8
    14764:        1380006f        jal x0 312
    14768:        01800793        addi x15 x0 24
    1476c:        26f50463        beq x10 x15 616
    14770:        03500793        addi x15 x0 53
    14774:        2af51c63        bne x10 x15 696
    14778:        00001737        lui x14 0x1
    1477c:        040007b7        lui x15 0x4000
    14780:        00600693        addi x13 x0 6
    14784:        7ff78793        addi x15 x15 2047
    14788:        80070713        addi x14 x14 -2048
    1478c:        00f4aa23        sw x15 20 x9
    14790:        00d4a423        sw x13 8 x9
    14794:        00e49c23        sh x14 24 x9
    14798:        00d4a623        sw x13 12 x9
    1479c:        00600793        addi x15 x0 6
    147a0:        00878793        addi x15 x15 8
    147a4:        00179793        slli x15 x15 1
    147a8:        00f487b3        add x15 x9 x15
    147ac:        00e79523        sh x14 10 x15
    147b0:        00a4a023        sw x10 0 x9
    147b4:        03204263        blt x0 x18 36
    147b8:        09000793        addi x15 x0 144
    147bc:        1ef50863        beq x10 x15 496
    147c0:        01845783        lhu x15 24 x8
    147c4:        00040513        addi x10 x8 0
    147c8:        0017f793        andi x15 x15 1
    147cc:        00f9e9b3        or x19 x19 x15
    147d0:        f4cff0ef        jal x1 -2228 <eshdn1>
    147d4:        0044a503        lw x10 4 x9
    147d8:        0084a583        lw x11 8 x9
    147dc:        0144d783        lhu x15 20 x9
    147e0:        08f00813        addi x16 x0 143
    147e4:        00159613        slli x12 x11 1
    147e8:        00c40633        add x12 x8 x12
    147ec:        00065703        lhu x14 0 x12
    147f0:        00f776b3        and x13 x14 x15
    147f4:        02a84a63        blt x16 x10 52
    147f8:        00b00813        addi x16 x0 11
    147fc:        02b84663        blt x16 x11 44
    14800:        00060713        addi x14 x12 0
    14804:        01840593        addi x11 x8 24
    14808:        00275783        lhu x15 2 x14
    1480c:        00078463        beq x15 x0 8
    14810:        0016e693        ori x13 x13 1
    14814:        00071123        sh x0 2 x14
    14818:        00270713        addi x14 x14 2
    1481c:        fee596e3        bne x11 x14 -20
    14820:        00065703        lhu x14 0 x12
    14824:        0144d783        lhu x15 20 x9
    14828:        fff7c793        xori x15 x15 -1
    1482c:        00e7f7b3        and x15 x15 x14
    14830:        00f61023        sh x15 0 x12
    14834:        0164d783        lhu x15 22 x9
    14838:        00d7f733        and x14 x15 x13
    1483c:        04070063        beq x14 x0 64
    14840:        12d78263        beq x15 x13 292
    14844:        03248613        addi x12 x9 50
    14848:        01840713        addi x14 x8 24
    1484c:        01c48493        addi x9 x9 28
    14850:        00000693        addi x13 x0 0
    14854:        00065783        lhu x15 0 x12
    14858:        00075583        lhu x11 0 x14
    1485c:        ffe70713        addi x14 x14 -2
    14860:        ffe60613        addi x12 x12 -2
    14864:        00b787b3        add x15 x15 x11
    14868:        00d787b3        add x15 x15 x13
    1486c:        00f71123        sh x15 2 x14
    14870:        0107d793        srli x15 x15 16
    14874:        0017f693        andi x13 x15 1
    14878:        fc961ee3        bne x12 x9 -36
    1487c:        11205663        bge x0 x18 268
    14880:        00445783        lhu x15 4 x8
    14884:        0a079c63        bne x15 x0 184
    14888:        000087b7        lui x15 0x8
    1488c:        00041c23        sh x0 24 x8
    14890:        ffe78793        addi x15 x15 -2
    14894:        0327c863        blt x15 x18 48
    14898:        01241123        sh x18 2 x8
    1489c:        01c12083        lw x1 28 x2
    148a0:        01812403        lw x8 24 x2
    148a4:        01412483        lw x9 20 x2
    148a8:        01012903        lw x18 16 x2
    148ac:        00c12983        lw x19 12 x2
    148b0:        00812a03        lw x20 8 x2
    148b4:        00412a83        lw x21 4 x2
    148b8:        02010113        addi x2 x2 32
    148bc:        00008067        jalr x0 x1 0
    148c0:        00041c23        sh x0 24 x8
    148c4:        ffff87b7        lui x15 0xffff8
    148c8:        fff7c793        xori x15 x15 -1
    148cc:        00f41123        sh x15 2 x8
    148d0:        00440793        addi x15 x8 4
    148d4:        01840413        addi x8 x8 24
    148d8:        00079023        sh x0 0 x15
    148dc:        00278793        addi x15 x15 2
    148e0:        fef41ce3        bne x8 x15 -8
    148e4:        fb9ff06f        jal x0 -72
    148e8:        00240793        addi x15 x8 2
    148ec:        01a40413        addi x8 x8 26
    148f0:        00278793        addi x15 x15 2
    148f4:        fe079f23        sh x0 -2 x15
    148f8:        fe879ce3        bne x15 x8 -8
    148fc:        fa1ff06f        jal x0 -96
    14900:        00090593        addi x11 x18 0
    14904:        00040513        addi x10 x8 0
    14908:        a55ff0ef        jal x1 -1452 <eshift.part.3>
    1490c:        00050463        beq x10 x0 8
    14910:        00100993        addi x19 x0 1
    14914:        0a0a8a63        beq x21 x0 180
    14918:        0044a503        lw x10 4 x9
    1491c:        0004a783        lw x15 0 x9
    14920:        dca794e3        bne x15 x10 -568
    14924:        e95ff06f        jal x0 -364
    14928:        f60a80e3        beq x21 x0 -160
    1492c:        0044a503        lw x10 4 x9
    14930:        0004a783        lw x15 0 x9
    14934:        daf51ae3        bne x10 x15 -588
    14938:        e7dff06f        jal x0 -388
    1493c:        00040513        addi x10 x8 0
    14940:        ddcff0ef        jal x1 -2596 <eshdn1>
    14944:        000087b7        lui x15 0x8
    14948:        00190913        addi x18 x18 1
    1494c:        00041c23        sh x0 24 x8
    14950:        ffe78793        addi x15 x15 -2
    14954:        f727c8e3        blt x15 x18 -144
    14958:        f40950e3        bge x18 x0 -192
    1495c:        00041123        sh x0 2 x8
    14960:        f3dff06f        jal x0 -196
    14964:        0e099a63        bne x19 x0 244
    14968:        00c4a783        lw x15 12 x9
    1496c:        0184d703        lhu x14 24 x9
    14970:        00179793        slli x15 x15 1
    14974:        00f407b3        add x15 x8 x15
    14978:        0007d783        lhu x15 0 x15
    1497c:        00e7f7b3        and x15 x15 x14
    14980:        ec0792e3        bne x15 x0 -316
    14984:        ef204ee3        blt x0 x18 -260
    14988:        09000793        addi x15 x0 144
    1498c:        00f50663        beq x10 x15 12
    14990:        00040513        addi x10 x8 0
    14994:        df0ff0ef        jal x1 -2576 <eshup1>
    14998:        00445783        lhu x15 4 x8
    1499c:        fa0790e3        bne x15 x0 -96
    149a0:        00041c23        sh x0 24 x8
    149a4:        fa094ce3        blt x18 x0 -72
    149a8:        ef1ff06f        jal x0 -272
    149ac:        0084a603        lw x12 8 x9
    149b0:        0144d783        lhu x15 20 x9
    149b4:        00161613        slli x12 x12 1
    149b8:        00c40633        add x12 x8 x12
    149bc:        00065703        lhu x14 0 x12
    149c0:        00e7f6b3        and x13 x15 x14
    149c4:        e65ff06f        jal x0 -412
    149c8:        00041c23        sh x0 24 x8
    149cc:        00041123        sh x0 2 x8
    149d0:        ecdff06f        jal x0 -308
    149d4:        008007b7        lui x15 0x800
    149d8:        0ff78793        addi x15 x15 255
    149dc:        00400713        addi x14 x0 4
    149e0:        00f4aa23        sw x15 20 x9
    149e4:        10000793        addi x15 x0 256
    149e8:        00e4a423        sw x14 8 x9
    149ec:        00f49c23        sh x15 24 x9
    149f0:        00e4a623        sw x14 12 x9
    149f4:        00400793        addi x15 x0 4
    149f8:        10000713        addi x14 x0 256
    149fc:        da5ff06f        jal x0 -604
    14a00:        00700793        addi x15 x0 7
    14a04:        00f4a423        sw x15 8 x9
    14a08:        800107b7        lui x15 0x80010
    14a0c:        fff78793        addi x15 x15 -1
    14a10:        00f4aa23        sw x15 20 x9
    14a14:        00100793        addi x15 x0 1
    14a18:        00f49c23        sh x15 24 x9
    14a1c:        00600793        addi x15 x0 6
    14a20:        00f4a623        sw x15 12 x9
    14a24:        00100713        addi x14 x0 1
    14a28:        d79ff06f        jal x0 -648
    14a2c:        00c00793        addi x15 x0 12
    14a30:        00f4a423        sw x15 8 x9
    14a34:        800107b7        lui x15 0x80010
    14a38:        fff78793        addi x15 x15 -1
    14a3c:        00f4aa23        sw x15 20 x9
    14a40:        00100793        addi x15 x0 1
    14a44:        00f49c23        sh x15 24 x9
    14a48:        00b00793        addi x15 x0 11
    14a4c:        00f4a623        sw x15 12 x9
    14a50:        00100713        addi x14 x0 1
    14a54:        d4dff06f        jal x0 -692
    14a58:        de0a06e3        beq x20 x0 -532
    14a5c:        e21ff06f        jal x0 -480
    14a60:        008007b7        lui x15 0x800
    14a64:        0ff78793        addi x15 x15 255
    14a68:        00600713        addi x14 x0 6
    14a6c:        00f4aa23        sw x15 20 x9
    14a70:        10000793        addi x15 x0 256
    14a74:        00e4a423        sw x14 8 x9
    14a78:        00f49c23        sh x15 24 x9
    14a7c:        00e4a623        sw x14 12 x9
    14a80:        00600793        addi x15 x0 6
    14a84:        10000713        addi x14 x0 256
    14a88:        d19ff06f        jal x0 -744

00014a8c <eiremain>:
    14a8c:        fd010113        addi x2 x2 -48
    14a90:        01312e23        sw x19 28 x2
    14a94:        00255983        lhu x19 2 x10
    14a98:        02912223        sw x9 36 x2
    14a9c:        00058493        addi x9 x11 0
    14aa0:        02112623        sw x1 44 x2
    14aa4:        02812423        sw x8 40 x2
    14aa8:        03212023        sw x18 32 x2
    14aac:        01412c23        sw x20 24 x2
    14ab0:        00060913        addi x18 x12 0
    14ab4:        01512a23        sw x21 20 x2
    14ab8:        01612823        sw x22 16 x2
    14abc:        01712623        sw x23 12 x2
    14ac0:        01812423        sw x24 8 x2
    14ac4:        01912223        sw x25 4 x2
    14ac8:        01a12023        sw x26 0 x2
    14acc:        00050a13        addi x20 x10 0
    14ad0:        a39ff0ef        jal x1 -1480 <enormlz>
    14ad4:        0024d403        lhu x8 2 x9
    14ad8:        40a989b3        sub x19 x19 x10
    14adc:        00048513        addi x10 x9 0
    14ae0:        a29ff0ef        jal x1 -1496 <enormlz>
    14ae4:        03490a93        addi x21 x18 52
    14ae8:        40a40433        sub x8 x8 x10
    14aec:        04e90713        addi x14 x18 78
    14af0:        000a8793        addi x15 x21 0
    14af4:        00278793        addi x15 x15 2
    14af8:        fe079f23        sh x0 -2 x15
    14afc:        fee79ce3        bne x15 x14 -8
    14b00:        09344a63        blt x8 x19 148
    14b04:        004a0b93        addi x23 x20 4
    14b08:        00448b13        addi x22 x9 4
    14b0c:        fff98993        addi x19 x19 -1
    14b10:        01aa0c93        addi x25 x20 26
    14b14:        00248c13        addi x24 x9 2
    14b18:        000b0713        addi x14 x22 0
    14b1c:        000b8793        addi x15 x23 0
    14b20:        00278793        addi x15 x15 2
    14b24:        00270713        addi x14 x14 2
    14b28:        ffe7d603        lhu x12 -2 x15
    14b2c:        ffe75683        lhu x13 -2 x14
    14b30:        0ad61a63        bne x12 x13 180
    14b34:        ff9796e3        bne x15 x25 -20
    14b38:        018a0693        addi x13 x20 24
    14b3c:        01848713        addi x14 x9 24
    14b40:        00000613        addi x12 x0 0
    14b44:        00075783        lhu x15 0 x14
    14b48:        0006d583        lhu x11 0 x13
    14b4c:        ffe70713        addi x14 x14 -2
    14b50:        40c787b3        sub x15 x15 x12
    14b54:        40b787b3        sub x15 x15 x11
    14b58:        00f71123        sh x15 2 x14
    14b5c:        0107d793        srli x15 x15 16
    14b60:        ffe68693        addi x13 x13 -2
    14b64:        0017f613        andi x12 x15 1
    14b68:        fcec1ee3        bne x24 x14 -36
    14b6c:        00100d13        addi x26 x0 1
    14b70:        000a8513        addi x10 x21 0
    14b74:        c10ff0ef        jal x1 -3056 <eshup1>
    14b78:        04c95783        lhu x15 76 x18
    14b7c:        fff40413        addi x8 x8 -1
    14b80:        00048513        addi x10 x9 0
    14b84:        00fd6d33        or x26 x26 x15
    14b88:        05a91623        sh x26 76 x18
    14b8c:        bf8ff0ef        jal x1 -3080 <eshup1>
    14b90:        f93414e3        bne x8 x19 -120
    14b94:        00040693        addi x13 x8 0
    14b98:        02812403        lw x8 40 x2
    14b9c:        02c12083        lw x1 44 x2
    14ba0:        01c12983        lw x19 28 x2
    14ba4:        01812a03        lw x20 24 x2
    14ba8:        01412a83        lw x21 20 x2
    14bac:        01012b03        lw x22 16 x2
    14bb0:        00c12b83        lw x23 12 x2
    14bb4:        00812c03        lw x24 8 x2
    14bb8:        00412c83        lw x25 4 x2
    14bbc:        00012d03        lw x26 0 x2
    14bc0:        00090793        addi x15 x18 0
    14bc4:        00048513        addi x10 x9 0
    14bc8:        02012903        lw x18 32 x2
    14bcc:        02412483        lw x9 36 x2
    14bd0:        00000713        addi x14 x0 0
    14bd4:        00000613        addi x12 x0 0
    14bd8:        00000593        addi x11 x0 0
    14bdc:        03010113        addi x2 x2 48
    14be0:        aa5ff06f        jal x0 -1372 <emdnorm>
    14be4:        00000d13        addi x26 x0 0
    14be8:        f8c6e4e3        bltu x13 x12 -120
    14bec:        f4dff06f        jal x0 -180

00014bf0 <emovo.isra.6>:
    14bf0:        00055703        lhu x14 0 x10
    14bf4:        00255783        lhu x15 2 x10
    14bf8:        00070663        beq x14 x0 12
    14bfc:        00008737        lui x14 0x8
    14c00:        00e7e7b3        or x15 x15 x14
    14c04:        00f59923        sh x15 18 x11
    14c08:        00255703        lhu x14 2 x10
    14c0c:        000087b7        lui x15 0x8
    14c10:        fff78793        addi x15 x15 -1
    14c14:        02f70463        beq x14 x15 40
    14c18:        00650793        addi x15 x10 6
    14c1c:        01058593        addi x11 x11 16
    14c20:        01850513        addi x10 x10 24
    14c24:        00278793        addi x15 x15 2
    14c28:        ffe7d703        lhu x14 -2 x15
    14c2c:        ffe58593        addi x11 x11 -2
    14c30:        00e59123        sh x14 2 x11
    14c34:        fea798e3        bne x15 x10 -16
    14c38:        00008067        jalr x0 x1 0
    14c3c:        00650793        addi x15 x10 6
    14c40:        01a50513        addi x10 x10 26
    14c44:        0007d703        lhu x14 0 x15
    14c48:        00278793        addi x15 x15 2
    14c4c:        02071a63        bne x14 x0 52
    14c50:        fea79ae3        bne x15 x10 -12
    14c54:        01258713        addi x14 x11 18
    14c58:        00058793        addi x15 x11 0
    14c5c:        00278793        addi x15 x15 2
    14c60:        fe079f23        sh x0 -2 x15
    14c64:        fef71ce3        bne x14 x15 -8
    14c68:        0125d783        lhu x15 18 x11
    14c6c:        00008737        lui x14 0x8
    14c70:        fff70713        addi x14 x14 -1
    14c74:        00e7e7b3        or x15 x15 x14
    14c78:        00f59923        sh x15 18 x11
    14c7c:        00008067        jalr x0 x1 0
    14c80:        01058713        addi x14 x11 16
    14c84:        00058793        addi x15 x11 0
    14c88:        00278793        addi x15 x15 2
    14c8c:        fe079f23        sh x0 -2 x15
    14c90:        fef71ce3        bne x14 x15 -8
    14c94:        7fffc7b7        lui x15 0x7fffc
    14c98:        00f5a823        sw x15 16 x11
    14c9c:        00008067        jalr x0 x1 0

00014ca0 <emul>:
    14ca0:        f7010113        addi x2 x2 -144
    14ca4:        07512a23        sw x21 116 x2
    14ca8:        01255a83        lhu x21 18 x10
    14cac:        000087b7        lui x15 0x8
    14cb0:        fff78793        addi x15 x15 -1
    14cb4:        08812423        sw x8 136 x2
    14cb8:        08912223        sw x9 132 x2
    14cbc:        09212023        sw x18 128 x2
    14cc0:        07312e23        sw x19 124 x2
    14cc4:        07612823        sw x22 112 x2
    14cc8:        08112623        sw x1 140 x2
    14ccc:        07412c23        sw x20 120 x2
    14cd0:        07712623        sw x23 108 x2
    14cd4:        07812423        sw x24 104 x2
    14cd8:        07912223        sw x25 100 x2
    14cdc:        0157fb33        and x22 x15 x21
    14ce0:        00050493        addi x9 x10 0
    14ce4:        00058913        addi x18 x11 0
    14ce8:        00060413        addi x8 x12 0
    14cec:        00068993        addi x19 x13 0
    14cf0:        0afb1863        bne x22 x15 176
    14cf4:        b98ff0ef        jal x1 -3176 <eisnan.part.0>
    14cf8:        20051c63        bne x10 x0 536
    14cfc:        01295a03        lhu x20 18 x18
    14d00:        014b77b3        and x15 x22 x20
    14d04:        23679463        bne x15 x22 552
    14d08:        00090513        addi x10 x18 0
    14d0c:        b80ff0ef        jal x1 -3200 <eisnan.part.0>
    14d10:        0a051463        bne x10 x0 168
    14d14:        00048513        addi x10 x9 0
    14d18:        e28ff0ef        jal x1 -2520 <eisinf.part.1>
    14d1c:        20051e63        bne x10 x0 540
    14d20:        000087b7        lui x15 0x8
    14d24:        fff78793        addi x15 x15 -1
    14d28:        0147fa33        and x20 x15 x20
    14d2c:        010a1a13        slli x20 x20 16
    14d30:        010a5a13        srli x20 x20 16
    14d34:        2cfa1663        bne x20 x15 716
    14d38:        00090513        addi x10 x18 0
    14d3c:        e04ff0ef        jal x1 -2556 <eisinf.part.1>
    14d40:        32051263        bne x10 x0 804
    14d44:        0124d783        lhu x15 18 x9
    14d48:        00fa77b3        and x15 x20 x15
    14d4c:        21478463        beq x15 x20 520
    14d50:        00048513        addi x10 x9 0
    14d54:        00c10593        addi x11 x2 12
    14d58:        be4ff0ef        jal x1 -3100 <emovi>
    14d5c:        00090513        addi x10 x18 0
    14d60:        02810593        addi x11 x2 40
    14d64:        bd8ff0ef        jal x1 -3112 <emovi>
    14d68:        00e15483        lhu x9 14 x2
    14d6c:        02a15903        lhu x18 42 x2
    14d70:        08049a63        bne x9 x0 148
    14d74:        01010793        addi x15 x2 16
    14d78:        02410693        addi x13 x2 36
    14d7c:        2cd78063        beq x15 x13 704
    14d80:        00278793        addi x15 x15 2
    14d84:        ffe7d703        lhu x14 -2 x15
    14d88:        fe070ae3        beq x14 x0 -12
    14d8c:        00c10513        addi x10 x2 12
    14d90:        f78ff0ef        jal x1 -2184 <enormlz>
    14d94:        40a004b3        sub x9 x0 x10
    14d98:        02a15703        lhu x14 42 x2
    14d9c:        06c0006f        jal x0 108
    14da0:        0125da03        lhu x20 18 x11
    14da4:        0147f733        and x14 x15 x20
    14da8:        faf714e3        bne x14 x15 -88
    14dac:        00058513        addi x10 x11 0
    14db0:        adcff0ef        jal x1 -3364 <eisnan.part.0>
    14db4:        f60506e3        beq x10 x0 -148
    14db8:        01490713        addi x14 x18 20
    14dbc:        00290913        addi x18 x18 2
    14dc0:        ffe95783        lhu x15 -2 x18
    14dc4:        00240413        addi x8 x8 2
    14dc8:        fef41f23        sh x15 -2 x8
    14dcc:        fee918e3        bne x18 x14 -16
    14dd0:        08c12083        lw x1 140 x2
    14dd4:        08812403        lw x8 136 x2
    14dd8:        08412483        lw x9 132 x2
    14ddc:        08012903        lw x18 128 x2
    14de0:        07c12983        lw x19 124 x2
    14de4:        07812a03        lw x20 120 x2
    14de8:        07412a83        lw x21 116 x2
    14dec:        07012b03        lw x22 112 x2
    14df0:        06c12b83        lw x23 108 x2
    14df4:        06812c03        lw x24 104 x2
    14df8:        06412c83        lw x25 100 x2
    14dfc:        09010113        addi x2 x2 144
    14e00:        00008067        jalr x0 x1 0
    14e04:        00090713        addi x14 x18 0
    14e08:        00090b13        addi x22 x18 0
    14e0c:        02c10793        addi x15 x2 44
    14e10:        04010693        addi x13 x2 64
    14e14:        02071263        bne x14 x0 36
    14e18:        22f68c63        beq x13 x15 568
    14e1c:        00278793        addi x15 x15 2
    14e20:        ffe7d703        lhu x14 -2 x15
    14e24:        fe070ae3        beq x14 x0 -12
    14e28:        02810513        addi x10 x2 40
    14e2c:        edcff0ef        jal x1 -2340 <enormlz>
    14e30:        02a15703        lhu x14 42 x2
    14e34:        40a90b33        sub x22 x18 x10
    14e38:        02815783        lhu x15 40 x2
    14e3c:        03898a93        addi x21 x19 56
    14e40:        02e99b23        sh x14 54 x19
    14e44:        02f99a23        sh x15 52 x19
    14e48:        04e98713        addi x14 x19 78
    14e4c:        000a8793        addi x15 x21 0
    14e50:        00079023        sh x0 0 x15
    14e54:        00278793        addi x15 x15 2
    14e58:        fef71ce3        bne x14 x15 -8
    14e5c:        04c98b93        addi x23 x19 76
    14e60:        00000a13        addi x20 x0 0
    14e64:        02410913        addi x18 x2 36
    14e68:        01010c93        addi x25 x2 16
    14e6c:        04610c13        addi x24 x2 70
    14e70:        00095503        lhu x10 0 x18
    14e74:        ffe90913        addi x18 x18 -2
    14e78:        14051263        bne x10 x0 324
    14e7c:        04c9d703        lhu x14 76 x19
    14e80:        000b8793        addi x15 x23 0
    14e84:        00ea6a33        or x20 x20 x14
    14e88:        ffe78793        addi x15 x15 -2
    14e8c:        0007d703        lhu x14 0 x15
    14e90:        00e79123        sh x14 2 x15
    14e94:        ff579ae3        bne x15 x21 -12
    14e98:        02099c23        sh x0 56 x19
    14e9c:        fd991ae3        bne x18 x25 -44
    14ea0:        03498713        addi x14 x19 52
    14ea4:        02810793        addi x15 x2 40
    14ea8:        04210693        addi x13 x2 66
    14eac:        00075603        lhu x12 0 x14
    14eb0:        00278793        addi x15 x15 2
    14eb4:        00270713        addi x14 x14 2
    14eb8:        fec79f23        sh x12 -2 x15
    14ebc:        fef698e3        bne x13 x15 -16
    14ec0:        ffffc6b7        lui x13 0xffffc
    14ec4:        016484b3        add x9 x9 x22
    14ec8:        00268693        addi x13 x13 2
    14ecc:        000a0593        addi x11 x20 0
    14ed0:        02810513        addi x10 x2 40
    14ed4:        00098793        addi x15 x19 0
    14ed8:        04000713        addi x14 x0 64
    14edc:        00d486b3        add x13 x9 x13
    14ee0:        00000613        addi x12 x0 0
    14ee4:        fa0ff0ef        jal x1 -2144 <emdnorm>
    14ee8:        02815703        lhu x14 40 x2
    14eec:        00c15783        lhu x15 12 x2
    14ef0:        00040593        addi x11 x8 0
    14ef4:        02810513        addi x10 x2 40
    14ef8:        40e787b3        sub x15 x15 x14
    14efc:        00f037b3        sltu x15 x0 x15
    14f00:        40f007b3        sub x15 x0 x15
    14f04:        02f11423        sh x15 40 x2
    14f08:        ce9ff0ef        jal x1 -792 <emovo.isra.6>
    14f0c:        ec5ff06f        jal x0 -316
    14f10:        01448713        addi x14 x9 20
    14f14:        00248493        addi x9 x9 2
    14f18:        ffe4d783        lhu x15 -2 x9
    14f1c:        00240413        addi x8 x8 2
    14f20:        fef41f23        sh x15 -2 x8
    14f24:        fee498e3        bne x9 x14 -16
    14f28:        ea9ff06f        jal x0 -344
    14f2c:        00048513        addi x10 x9 0
    14f30:        c10ff0ef        jal x1 -3056 <eisinf.part.1>
    14f34:        0c050863        beq x10 x0 208
    14f38:        0000f597        auipc x11 0xf
    14f3c:        18c58593        addi x11 x11 396
    14f40:        00090513        addi x10 x18 0
    14f44:        ae0ff0ef        jal x1 -3360 <ecmp>
    14f48:        14050063        beq x10 x0 320
    14f4c:        01295a03        lhu x20 18 x18
    14f50:        dd1ff06f        jal x0 -560
    14f54:        00048513        addi x10 x9 0
    14f58:        be8ff0ef        jal x1 -3096 <eisinf.part.1>
    14f5c:        00051863        bne x10 x0 16
    14f60:        00090513        addi x10 x18 0
    14f64:        bdcff0ef        jal x1 -3108 <eisinf.part.1>
    14f68:        de0504e3        beq x10 x0 -536
    14f6c:        00048513        addi x10 x9 0
    14f70:        98cff0ef        jal x1 -3700 <eisneg>
    14f74:        00050493        addi x9 x10 0
    14f78:        00090513        addi x10 x18 0
    14f7c:        980ff0ef        jal x1 -3712 <eisneg>
    14f80:        40a48533        sub x10 x9 x10
    14f84:        00a03533        sltu x10 x0 x10
    14f88:        00f51513        slli x10 x10 15
    14f8c:        00a41923        sh x10 18 x8
    14f90:        01240713        addi x14 x8 18
    14f94:        00040793        addi x15 x8 0
    14f98:        00278793        addi x15 x15 2
    14f9c:        fe079f23        sh x0 -2 x15
    14fa0:        fee79ce3        bne x15 x14 -8
    14fa4:        01245783        lhu x15 18 x8
    14fa8:        00008737        lui x14 0x8
    14fac:        fff70713        addi x14 x14 -1
    14fb0:        00e7e7b3        or x15 x15 x14
    14fb4:        00f41923        sh x15 18 x8
    14fb8:        e19ff06f        jal x0 -488
    14fbc:        04410613        addi x12 x2 68
    14fc0:        02810593        addi x11 x2 40
    14fc4:        830ff0ef        jal x1 -4048 <m16m>
    14fc8:        000b8613        addi x12 x23 0
    14fcc:        00000593        addi x11 x0 0
    14fd0:        05c10713        addi x14 x2 92
    14fd4:        00065503        lhu x10 0 x12
    14fd8:        00075783        lhu x15 0 x14
    14fdc:        ffe60613        addi x12 x12 -2
    14fe0:        ffe70713        addi x14 x14 -2
    14fe4:        00a787b3        add x15 x15 x10
    14fe8:        00b787b3        add x15 x15 x11
    14fec:        00f61123        sh x15 2 x12
    14ff0:        0107d793        srli x15 x15 16
    14ff4:        0017f593        andi x11 x15 1
    14ff8:        fd871ee3        bne x14 x24 -36
    14ffc:        e81ff06f        jal x0 -384
    15000:        0124da83        lhu x21 18 x9
    15004:        000087b7        lui x15 0x8
    15008:        fff78793        addi x15 x15 -1
    1500c:        0157fab3        and x21 x15 x21
    15010:        010a9a93        slli x21 x21 16
    15014:        010ada93        srli x21 x21 16
    15018:        d2fa9ce3        bne x21 x15 -712
    1501c:        00048513        addi x10 x9 0
    15020:        b20ff0ef        jal x1 -3296 <eisinf.part.1>
    15024:        f40514e3        bne x10 x0 -184
    15028:        01295783        lhu x15 18 x18
    1502c:        fff7c793        xori x15 x15 -1
    15030:        01179713        slli x14 x15 17
    15034:        d0071ee3        bne x14 x0 -740
    15038:        f29ff06f        jal x0 -216
    1503c:        01440793        addi x15 x8 20
    15040:        00240413        addi x8 x8 2
    15044:        fe041f23        sh x0 -2 x8
    15048:        fe879ce3        bne x15 x8 -8
    1504c:        d85ff06f        jal x0 -636
    15050:        01440793        addi x15 x8 20
    15054:        00240413        addi x8 x8 2
    15058:        fe041f23        sh x0 -2 x8
    1505c:        fef41ce3        bne x8 x15 -8
    15060:        d71ff06f        jal x0 -656
    15064:        0000f597        auipc x11 0xf
    15068:        06058593        addi x11 x11 96
    1506c:        00048513        addi x10 x9 0
    15070:        9b4ff0ef        jal x1 -3660 <ecmp>
    15074:        00050a63        beq x10 x0 20
    15078:        0124d783        lhu x15 18 x9
    1507c:        00fa77b3        and x15 x20 x15
    15080:        f9478ee3        beq x15 x20 -100
    15084:        fa5ff06f        jal x0 -92
    15088:        01040713        addi x14 x8 16
    1508c:        00040793        addi x15 x8 0
    15090:        00278793        addi x15 x15 2
    15094:        fe079f23        sh x0 -2 x15
    15098:        fee79ce3        bne x15 x14 -8
    1509c:        7fffc7b7        lui x15 0x7fffc
    150a0:        00f42823        sw x15 16 x8
    150a4:        d2dff06f        jal x0 -724

000150a8 <ediv>:
    150a8:        01255783        lhu x15 18 x10
    150ac:        f5010113        addi x2 x2 -176
    150b0:        0a812423        sw x8 168 x2
    150b4:        fff7c793        xori x15 x15 -1
    150b8:        0a912223        sw x9 164 x2
    150bc:        0b212023        sw x18 160 x2
    150c0:        09612823        sw x22 144 x2
    150c4:        0a112623        sw x1 172 x2
    150c8:        09312e23        sw x19 156 x2
    150cc:        09412c23        sw x20 152 x2
    150d0:        09512a23        sw x21 148 x2
    150d4:        09712623        sw x23 140 x2
    150d8:        09812423        sw x24 136 x2
    150dc:        09912223        sw x25 132 x2
    150e0:        09a12023        sw x26 128 x2
    150e4:        07b12e23        sw x27 124 x2
    150e8:        01179713        slli x14 x15 17
    150ec:        00050493        addi x9 x10 0
    150f0:        00058913        addi x18 x11 0
    150f4:        00060413        addi x8 x12 0
    150f8:        00068b13        addi x22 x13 0
    150fc:        00071663        bne x14 x0 12
    15100:        f8dfe0ef        jal x1 -4212 <eisnan.part.0>
    15104:        38051063        bne x10 x0 896
    15108:        01295783        lhu x15 18 x18
    1510c:        fff7c793        xori x15 x15 -1
    15110:        01179713        slli x14 x15 17
    15114:        08070e63        beq x14 x0 156
    15118:        0000f597        auipc x11 0xf
    1511c:        fac58593        addi x11 x11 -84
    15120:        00048513        addi x10 x9 0
    15124:        900ff0ef        jal x1 -3840 <ecmp>
    15128:        10050463        beq x10 x0 264
    1512c:        0124d983        lhu x19 18 x9
    15130:        01295703        lhu x14 18 x18
    15134:        000087b7        lui x15 0x8
    15138:        fff78793        addi x15 x15 -1
    1513c:        0137f9b3        and x19 x15 x19
    15140:        00e7fa33        and x20 x15 x14
    15144:        08f99a63        bne x19 x15 148
    15148:        00048513        addi x10 x9 0
    1514c:        9f4ff0ef        jal x1 -3596 <eisinf.part.1>
    15150:        10050a63        beq x10 x0 276
    15154:        013a1863        bne x20 x19 16
    15158:        00090513        addi x10 x18 0
    1515c:        9e4ff0ef        jal x1 -3612 <eisinf.part.1>
    15160:        0e051263        bne x10 x0 228
    15164:        01440793        addi x15 x8 20
    15168:        00240413        addi x8 x8 2
    1516c:        fe041f23        sh x0 -2 x8
    15170:        fef41ce3        bne x8 x15 -8
    15174:        0ac12083        lw x1 172 x2
    15178:        0a812403        lw x8 168 x2
    1517c:        0a412483        lw x9 164 x2
    15180:        0a012903        lw x18 160 x2
    15184:        09c12983        lw x19 156 x2
    15188:        09812a03        lw x20 152 x2
    1518c:        09412a83        lw x21 148 x2
    15190:        09012b03        lw x22 144 x2
    15194:        08c12b83        lw x23 140 x2
    15198:        08812c03        lw x24 136 x2
    1519c:        08412c83        lw x25 132 x2
    151a0:        08012d03        lw x26 128 x2
    151a4:        07c12d83        lw x27 124 x2
    151a8:        0b010113        addi x2 x2 176
    151ac:        00008067        jalr x0 x1 0
    151b0:        00090513        addi x10 x18 0
    151b4:        ed9fe0ef        jal x1 -4392 <eisnan.part.0>
    151b8:        f60500e3        beq x10 x0 -160
    151bc:        01490713        addi x14 x18 20
    151c0:        00290913        addi x18 x18 2
    151c4:        ffe95783        lhu x15 -2 x18
    151c8:        00240413        addi x8 x8 2
    151cc:        fef41f23        sh x15 -2 x8
    151d0:        fee918e3        bne x18 x14 -16
    151d4:        fa1ff06f        jal x0 -96
    151d8:        08fa0863        beq x20 x15 144
    151dc:        00048513        addi x10 x9 0
    151e0:        01c10593        addi x11 x2 28
    151e4:        f59fe0ef        jal x1 -4264 <emovi>
    151e8:        03810593        addi x11 x2 56
    151ec:        00090513        addi x10 x18 0
    151f0:        f4dfe0ef        jal x1 -4276 <emovi>
    151f4:        03a15b83        lhu x23 58 x2
    151f8:        01e15483        lhu x9 30 x2
    151fc:        0c0b9463        bne x23 x0 200
    15200:        03c10793        addi x15 x2 60
    15204:        05010b93        addi x23 x2 80
    15208:        34fb8663        beq x23 x15 844
    1520c:        00278793        addi x15 x15 2
    15210:        ffe7d683        lhu x13 -2 x15
    15214:        fe068ae3        beq x13 x0 -12
    15218:        03810513        addi x10 x2 56
    1521c:        aecff0ef        jal x1 -3348 <enormlz>
    15220:        40a007b3        sub x15 x0 x10
    15224:        00f12623        sw x15 12 x2
    15228:        01e15603        lhu x12 30 x2
    1522c:        0a00006f        jal x0 160
    15230:        0000f597        auipc x11 0xf
    15234:        e9458593        addi x11 x11 -364
    15238:        00090513        addi x10 x18 0
    1523c:        fe9fe0ef        jal x1 -4120 <ecmp>
    15240:        ee0516e3        bne x10 x0 -276
    15244:        01040713        addi x14 x8 16
    15248:        00040793        addi x15 x8 0
    1524c:        00278793        addi x15 x15 2
    15250:        fe079f23        sh x0 -2 x15
    15254:        fee79ce3        bne x15 x14 -8
    15258:        7fffc7b7        lui x15 0x7fffc
    1525c:        00f42823        sw x15 16 x8
    15260:        f15ff06f        jal x0 -236
    15264:        f73a1ce3        bne x20 x19 -136
    15268:        00090513        addi x10 x18 0
    1526c:        8d4ff0ef        jal x1 -3884 <eisinf.part.1>
    15270:        f60506e3        beq x10 x0 -148
    15274:        00048513        addi x10 x9 0
    15278:        e85fe0ef        jal x1 -4476 <eisneg>
    1527c:        00050493        addi x9 x10 0
    15280:        00090513        addi x10 x18 0
    15284:        e79fe0ef        jal x1 -4488 <eisneg>
    15288:        40a487b3        sub x15 x9 x10
    1528c:        00f037b3        sltu x15 x0 x15
    15290:        00f79793        slli x15 x15 15
    15294:        00f41923        sh x15 18 x8
    15298:        01240713        addi x14 x8 18
    1529c:        00040793        addi x15 x8 0
    152a0:        00278793        addi x15 x15 2
    152a4:        fe079f23        sh x0 -2 x15
    152a8:        fee79ce3        bne x15 x14 -8
    152ac:        01245783        lhu x15 18 x8
    152b0:        00008737        lui x14 0x8
    152b4:        fff70713        addi x14 x14 -1
    152b8:        00e7e7b3        or x15 x15 x14
    152bc:        00f41923        sh x15 18 x8
    152c0:        eb5ff06f        jal x0 -332
    152c4:        01712623        sw x23 12 x2
    152c8:        00048613        addi x12 x9 0
    152cc:        00912423        sw x9 8 x2
    152d0:        02010793        addi x15 x2 32
    152d4:        03410693        addi x13 x2 52
    152d8:        02061263        bne x12 x0 36
    152dc:        28f68663        beq x13 x15 652
    152e0:        00278793        addi x15 x15 2
    152e4:        ffe7d703        lhu x14 -2 x15
    152e8:        fe070ae3        beq x14 x0 -12
    152ec:        01c10513        addi x10 x2 28
    152f0:        a18ff0ef        jal x1 -3560 <enormlz>
    152f4:        40a487b3        sub x15 x9 x10
    152f8:        00f12423        sw x15 8 x2
    152fc:        03812703        lw x14 56 x2
    15300:        038b0d13        addi x26 x22 56
    15304:        000d0793        addi x15 x26 0
    15308:        02eb2a23        sw x14 52 x22
    1530c:        04eb0493        addi x9 x22 78
    15310:        00278793        addi x15 x15 2
    15314:        fe079f23        sh x0 -2 x15
    15318:        fef49ce3        bne x9 x15 -8
    1531c:        03810513        addi x10 x2 56
    15320:        bfdfe0ef        jal x1 -5124 <eshdn1>
    15324:        02215c03        lhu x24 34 x2
    15328:        000109b7        lui x19 0x10
    1532c:        05010b93        addi x23 x2 80
    15330:        010c1a13        slli x20 x24 16
    15334:        418a0a33        sub x20 x20 x24
    15338:        03a10a93        addi x21 x2 58
    1533c:        fff98993        addi x19 x19 -1
    15340:        06e10c93        addi x25 x2 110
    15344:        05610913        addi x18 x2 86
    15348:        03c15503        lhu x10 60 x2
    1534c:        03e15783        lhu x15 62 x2
    15350:        00098d93        addi x27 x19 0
    15354:        01051513        slli x10 x10 16
    15358:        00f50533        add x10 x10 x15
    1535c:        00aa6863        bltu x20 x10 16
    15360:        03855533        divu x10 x10 x24
    15364:        01051d93        slli x27 x10 16
    15368:        010ddd93        srli x27 x27 16
    1536c:        05410613        addi x12 x2 84
    15370:        01c10593        addi x11 x2 28
    15374:        000d8513        addi x10 x27 0
    15378:        c7dfe0ef        jal x1 -4996 <m16m>
    1537c:        03c10613        addi x12 x2 60
    15380:        05810793        addi x15 x2 88
    15384:        00278793        addi x15 x15 2
    15388:        00260613        addi x12 x12 2
    1538c:        ffe7d503        lhu x10 -2 x15
    15390:        ffe65583        lhu x11 -2 x12
    15394:        10b51663        bne x10 x11 268
    15398:        ff9796e3        bne x15 x25 -20
    1539c:        00000513        addi x10 x0 0
    153a0:        06c10593        addi x11 x2 108
    153a4:        000b8613        addi x12 x23 0
    153a8:        00065783        lhu x15 0 x12
    153ac:        0005d803        lhu x16 0 x11
    153b0:        ffe60613        addi x12 x12 -2
    153b4:        40a787b3        sub x15 x15 x10
    153b8:        410787b3        sub x15 x15 x16
    153bc:        00f61123        sh x15 2 x12
    153c0:        0107d793        srli x15 x15 16
    153c4:        ffe58593        addi x11 x11 -2
    153c8:        0017f513        andi x10 x15 1
    153cc:        fd561ee3        bne x12 x21 -36
    153d0:        01bd1023        sh x27 0 x26
    153d4:        03c10793        addi x15 x2 60
    153d8:        00278793        addi x15 x15 2
    153dc:        0007d603        lhu x12 0 x15
    153e0:        fec79f23        sh x12 -2 x15
    153e4:        ff779ae3        bne x15 x23 -12
    153e8:        04011823        sh x0 80 x2
    153ec:        002d0d13        addi x26 x26 2
    153f0:        f5a49ce3        bne x9 x26 -168
    153f4:        00000593        addi x11 x0 0
    153f8:        03c10793        addi x15 x2 60
    153fc:        05210693        addi x13 x2 82
    15400:        00278793        addi x15 x15 2
    15404:        ffe7d703        lhu x14 -2 x15
    15408:        00e5e5b3        or x11 x11 x14
    1540c:        fed79ae3        bne x15 x13 -12
    15410:        00b035b3        sltu x11 x0 x11
    15414:        034b0713        addi x14 x22 52
    15418:        03810793        addi x15 x2 56
    1541c:        00075603        lhu x12 0 x14
    15420:        00278793        addi x15 x15 2
    15424:        00270713        addi x14 x14 2
    15428:        fec79f23        sh x12 -2 x15
    1542c:        fef698e3        bne x13 x15 -16
    15430:        00c12783        lw x15 12 x2
    15434:        00812703        lw x14 8 x2
    15438:        000046b7        lui x13 0x4
    1543c:        fff68693        addi x13 x13 -1
    15440:        40e78bb3        sub x23 x15 x14
    15444:        03810513        addi x10 x2 56
    15448:        000b0793        addi x15 x22 0
    1544c:        04000713        addi x14 x0 64
    15450:        00db86b3        add x13 x23 x13
    15454:        00000613        addi x12 x0 0
    15458:        a2cff0ef        jal x1 -3540 <emdnorm>
    1545c:        03815703        lhu x14 56 x2
    15460:        01c15783        lhu x15 28 x2
    15464:        00040593        addi x11 x8 0
    15468:        03810513        addi x10 x2 56
    1546c:        40e787b3        sub x15 x15 x14
    15470:        00f037b3        sltu x15 x0 x15
    15474:        40f007b3        sub x15 x0 x15
    15478:        02f11c23        sh x15 56 x2
    1547c:        f74ff0ef        jal x1 -2188 <emovo.isra.6>
    15480:        cf5ff06f        jal x0 -780
    15484:        01448713        addi x14 x9 20
    15488:        00248493        addi x9 x9 2
    1548c:        ffe4d783        lhu x15 -2 x9
    15490:        00240413        addi x8 x8 2
    15494:        fef41f23        sh x15 -2 x8
    15498:        fee498e3        bne x9 x14 -16
    1549c:        cd9ff06f        jal x0 -808
    154a0:        eea5fee3        bgeu x11 x10 -260
    154a4:        fffd8793        addi x15 x27 -1
    154a8:        01079893        slli x17 x15 16
    154ac:        0108d893        srli x17 x17 16
    154b0:        00000513        addi x10 x0 0
    154b4:        03410593        addi x11 x2 52
    154b8:        06c10613        addi x12 x2 108
    154bc:        00065783        lhu x15 0 x12
    154c0:        0005d803        lhu x16 0 x11
    154c4:        ffe60613        addi x12 x12 -2
    154c8:        40a787b3        sub x15 x15 x10
    154cc:        410787b3        sub x15 x15 x16
    154d0:        00f61123        sh x15 2 x12
    154d4:        0107d793        srli x15 x15 16
    154d8:        ffe58593        addi x11 x11 -2
    154dc:        0017f513        andi x10 x15 1
    154e0:        fd261ee3        bne x12 x18 -36
    154e4:        03c10613        addi x12 x2 60
    154e8:        05810793        addi x15 x2 88
    154ec:        00278793        addi x15 x15 2
    154f0:        00260613        addi x12 x12 2
    154f4:        ffe7d503        lhu x10 -2 x15
    154f8:        ffe65583        lhu x11 -2 x12
    154fc:        00b51863        bne x10 x11 16
    15500:        ff9796e3        bne x15 x25 -20
    15504:        00088d93        addi x27 x17 0
    15508:        e95ff06f        jal x0 -364
    1550c:        fea5fce3        bgeu x11 x10 -8
    15510:        ffed8d93        addi x27 x27 -2
    15514:        010d9d93        slli x27 x27 16
    15518:        010ddd93        srli x27 x27 16
    1551c:        00000513        addi x10 x0 0
    15520:        03410593        addi x11 x2 52
    15524:        06c10613        addi x12 x2 108
    15528:        00065783        lhu x15 0 x12
    1552c:        0005d803        lhu x16 0 x11
    15530:        ffe60613        addi x12 x12 -2
    15534:        40a787b3        sub x15 x15 x10
    15538:        410787b3        sub x15 x15 x16
    1553c:        00f61123        sh x15 2 x12
    15540:        0107d793        srli x15 x15 16
    15544:        ffe58593        addi x11 x11 -2
    15548:        0017f513        andi x10 x15 1
    1554c:        fd261ee3        bne x12 x18 -36
    15550:        e4dff06f        jal x0 -436
    15554:        01440793        addi x15 x8 20
    15558:        00240413        addi x8 x8 2
    1555c:        fe041f23        sh x0 -2 x8
    15560:        fe879ce3        bne x15 x8 -8
    15564:        c11ff06f        jal x0 -1008
    15568:        01c15703        lhu x14 28 x2
    1556c:        03815783        lhu x15 56 x2
    15570:        00f70463        beq x14 x15 8
    15574:        00008637        lui x12 0x8
    15578:        00c41923        sh x12 18 x8
    1557c:        01240713        addi x14 x8 18
    15580:        00040793        addi x15 x8 0
    15584:        00278793        addi x15 x15 2
    15588:        fe079f23        sh x0 -2 x15
    1558c:        fef71ce3        bne x14 x15 -8
    15590:        01245783        lhu x15 18 x8
    15594:        00008737        lui x14 0x8
    15598:        fff70713        addi x14 x14 -1
    1559c:        00e7e7b3        or x15 x15 x14
    155a0:        00f41923        sh x15 18 x8
    155a4:        bd1ff06f        jal x0 -1072

000155a8 <e113toe.isra.8>:
    155a8:        fd010113        addi x2 x2 -48
    155ac:        02812423        sw x8 40 x2
    155b0:        02112623        sw x1 44 x2
    155b4:        00058413        addi x8 x11 0
    155b8:        00410793        addi x15 x2 4
    155bc:        01e10713        addi x14 x2 30
    155c0:        00278793        addi x15 x15 2
    155c4:        fe079f23        sh x0 -2 x15
    155c8:        fee79ce3        bne x15 x14 -8
    155cc:        00e55603        lhu x12 14 x10
    155d0:        01061793        slli x15 x12 16
    155d4:        4107d793        srai x15 x15 16
    155d8:        0607ca63        blt x15 x0 116
    155dc:        000087b7        lui x15 0x8
    155e0:        fff78793        addi x15 x15 -1
    155e4:        00011223        sh x0 4 x2
    155e8:        00f67633        and x12 x12 x15
    155ec:        06f60c63        beq x12 x15 120
    155f0:        00e50793        addi x15 x10 14
    155f4:        00c11323        sh x12 6 x2
    155f8:        00a10713        addi x14 x2 10
    155fc:        ffe78793        addi x15 x15 -2
    15600:        0007d683        lhu x13 0 x15
    15604:        00270713        addi x14 x14 2
    15608:        fed71f23        sh x13 -2 x14
    1560c:        fef518e3        bne x10 x15 -16
    15610:        02061263        bne x12 x0 36
    15614:        00011423        sh x0 8 x2
    15618:        00040593        addi x11 x8 0
    1561c:        00410513        addi x10 x2 4
    15620:        dd0ff0ef        jal x1 -2608 <emovo.isra.6>
    15624:        02c12083        lw x1 44 x2
    15628:        02812403        lw x8 40 x2
    1562c:        03010113        addi x2 x2 48
    15630:        00008067        jalr x0 x1 0
    15634:        00100793        addi x15 x0 1
    15638:        fff00593        addi x11 x0 -1
    1563c:        00410513        addi x10 x2 4
    15640:        00f11423        sh x15 8 x2
    15644:        d19fe0ef        jal x1 -4840 <eshift.part.3>
    15648:        fd1ff06f        jal x0 -48
    1564c:        fff00793        addi x15 x0 -1
    15650:        00f11223        sh x15 4 x2
    15654:        000087b7        lui x15 0x8
    15658:        fff78793        addi x15 x15 -1
    1565c:        00f67633        and x12 x12 x15
    15660:        f8f618e3        bne x12 x15 -112
    15664:        00050793        addi x15 x10 0
    15668:        00e50693        addi x13 x10 14
    1566c:        0007d703        lhu x14 0 x15
    15670:        00278793        addi x15 x15 2
    15674:        04071c63        bne x14 x0 88
    15678:        fef69ae3        bne x13 x15 -12
    1567c:        01440713        addi x14 x8 20
    15680:        00040793        addi x15 x8 0
    15684:        00278793        addi x15 x15 2
    15688:        fe079f23        sh x0 -2 x15
    1568c:        fee79ce3        bne x15 x14 -8
    15690:        01240713        addi x14 x8 18
    15694:        00040793        addi x15 x8 0
    15698:        00278793        addi x15 x15 2
    1569c:        fe079f23        sh x0 -2 x15
    156a0:        fee79ce3        bne x15 x14 -8
    156a4:        01245783        lhu x15 18 x8
    156a8:        00008737        lui x14 0x8
    156ac:        fff70713        addi x14 x14 -1
    156b0:        00e7e7b3        or x15 x15 x14
    156b4:        00f41923        sh x15 18 x8
    156b8:        00e51783        lh x15 14 x10
    156bc:        f607d4e3        bge x15 x0 -152
    156c0:        00040513        addi x10 x8 0
    156c4:        9edfe0ef        jal x1 -5652 <eneg>
    156c8:        f5dff06f        jal x0 -164
    156cc:        01040713        addi x14 x8 16
    156d0:        00040793        addi x15 x8 0
    156d4:        00278793        addi x15 x15 2
    156d8:        fe079f23        sh x0 -2 x15
    156dc:        fee79ce3        bne x15 x14 -8
    156e0:        7fffc7b7        lui x15 0x7fffc
    156e4:        00f42823        sw x15 16 x8
    156e8:        f3dff06f        jal x0 -196

000156ec <_ldtoa_r>:
    156ec:        0005ae83        lw x29 0 x11
    156f0:        0045ae03        lw x28 4 x11
    156f4:        0085a303        lw x6 8 x11
    156f8:        00c5a583        lw x11 12 x11
    156fc:        e1010113        addi x2 x2 -496
    15700:        04052883        lw x17 64 x10
    15704:        02b12e23        sw x11 60 x2
    15708:        fff00593        addi x11 x0 -1
    1570c:        16b12023        sw x11 352 x2
    15710:        09000593        addi x11 x0 144
    15714:        1e812423        sw x8 488 x2
    15718:        1d612823        sw x22 464 x2
    1571c:        1e112623        sw x1 492 x2
    15720:        1e912223        sw x9 484 x2
    15724:        1f212023        sw x18 480 x2
    15728:        1d312e23        sw x19 476 x2
    1572c:        1d412c23        sw x20 472 x2
    15730:        1d512a23        sw x21 468 x2
    15734:        1d712623        sw x23 460 x2
    15738:        1d812423        sw x24 456 x2
    1573c:        1d912223        sw x25 452 x2
    15740:        1da12023        sw x26 448 x2
    15744:        1bb12e23        sw x27 444 x2
    15748:        03d12823        sw x29 48 x2
    1574c:        03c12a23        sw x28 52 x2
    15750:        02612c23        sw x6 56 x2
    15754:        16b12223        sw x11 356 x2
    15758:        00c12423        sw x12 8 x2
    1575c:        00d12823        sw x13 16 x2
    15760:        00e12a23        sw x14 20 x2
    15764:        03012023        sw x16 32 x2
    15768:        00050b13        addi x22 x10 0
    1576c:        00078413        addi x8 x15 0
    15770:        02088263        beq x17 x0 36
    15774:        04452703        lw x14 68 x10
    15778:        00100793        addi x15 x0 1
    1577c:        00088593        addi x11 x17 0
    15780:        00e797b3        sll x15 x15 x14
    15784:        00e8a223        sw x14 4 x17
    15788:        00f8a423        sw x15 8 x17
    1578c:        725010ef        jal x1 7972 <_Bfree>
    15790:        040b2023        sw x0 64 x22
    15794:        06010a13        addi x20 x2 96
    15798:        000a0593        addi x11 x20 0
    1579c:        03010513        addi x10 x2 48
    157a0:        e09ff0ef        jal x1 -504 <e113toe.isra.8>
    157a4:        000a0513        addi x10 x20 0
    157a8:        955fe0ef        jal x1 -5804 <eisneg>
    157ac:        00812703        lw x14 8 x2
    157b0:        00a03533        sltu x10 x0 x10
    157b4:        00a42023        sw x10 0 x8
    157b8:        00300793        addi x15 x0 3
    157bc:        1af704e3        beq x14 x15 2472
    157c0:        01400793        addi x15 x0 20
    157c4:        00f12623        sw x15 12 x2
    157c8:        600710e3        bne x14 x0 3584
    157cc:        07215783        lhu x15 114 x2
    157d0:        16412703        lw x14 356 x2
    157d4:        fff7c793        xori x15 x15 -1
    157d8:        00e12e23        sw x14 28 x2
    157dc:        01179713        slli x14 x15 17
    157e0:        00071863        bne x14 x0 16
    157e4:        000a0513        addi x10 x20 0
    157e8:        8a5fe0ef        jal x1 -5980 <eisnan.part.0>
    157ec:        420514e3        bne x10 x0 3112
    157f0:        09000793        addi x15 x0 144
    157f4:        16f12223        sw x15 356 x2
    157f8:        07c10713        addi x14 x2 124
    157fc:        000a0793        addi x15 x20 0
    15800:        07410613        addi x12 x2 116
    15804:        00278793        addi x15 x15 2
    15808:        ffe7d683        lhu x13 -2 x15
    1580c:        00270713        addi x14 x14 2
    15810:        fed71f23        sh x13 -2 x14
    15814:        fec798e3        bne x15 x12 -16
    15818:        08e15603        lhu x12 142 x2
    1581c:        00012c23        sw x0 24 x2
    15820:        01061793        slli x15 x12 16
    15824:        4107d793        srai x15 x15 16
    15828:        0007de63        bge x15 x0 28
    1582c:        01161613        slli x12 x12 17
    15830:        000107b7        lui x15 0x10
    15834:        01165613        srli x12 x12 17
    15838:        fff78793        addi x15 x15 -1
    1583c:        08c11723        sh x12 142 x2
    15840:        00f12c23        sw x15 24 x2
    15844:        00000693        addi x13 x0 0
    15848:        09810793        addi x15 x2 152
    1584c:        0000f717        auipc x14 0xf
    15850:        88c70713        addi x14 x14 -1908
    15854:        0ac10d93        addi x27 x2 172
    15858:        0080006f        jal x0 8
    1585c:        00075683        lhu x13 0 x14
    15860:        00278793        addi x15 x15 2
    15864:        fed79f23        sh x13 -2 x15
    15868:        00270713        addi x14 x14 2
    1586c:        ffb798e3        bne x15 x27 -16
    15870:        16060663        beq x12 x0 364
    15874:        000087b7        lui x15 0x8
    15878:        fff78793        addi x15 x15 -1
    1587c:        58f602e3        beq x12 x15 3460
    15880:        08c11783        lh x15 140 x2
    15884:        6007d4e3        bge x15 x0 3592
    15888:        07c10593        addi x11 x2 124
    1588c:        0000f517        auipc x10 0xf
    15890:        84c50513        addi x10 x10 -1972
    15894:        991fe0ef        jal x1 -5744 <ecmp>
    15898:        14050e63        beq x10 x0 348
    1589c:        0e054ae3        blt x10 x0 2292
    158a0:        08e15783        lhu x15 142 x2
    158a4:        680790e3        bne x15 x0 3712
    158a8:        08c11783        lh x15 140 x2
    158ac:        00000493        addi x9 x0 0
    158b0:        16010993        addi x19 x2 352
    158b4:        0207c663        blt x15 x0 44
    158b8:        0000f417        auipc x8 0xf
    158bc:        92440413        addi x8 x8 -1756
    158c0:        07c10613        addi x12 x2 124
    158c4:        00098693        addi x13 x19 0
    158c8:        00060593        addi x11 x12 0
    158cc:        00040513        addi x10 x8 0
    158d0:        bd0ff0ef        jal x1 -3120 <emul>
    158d4:        08c11783        lh x15 140 x2
    158d8:        fff48493        addi x9 x9 -1
    158dc:        fe07d2e3        bge x15 x0 -28
    158e0:        0d010413        addi x8 x2 208
    158e4:        0e810b93        addi x23 x2 232
    158e8:        00040713        addi x14 x8 0
    158ec:        07c10793        addi x15 x2 124
    158f0:        09010613        addi x12 x2 144
    158f4:        00278793        addi x15 x15 2
    158f8:        ffe7d683        lhu x13 -2 x15
    158fc:        00270713        addi x14 x14 2
    15900:        fed71f23        sh x13 -2 x14
    15904:        fec798e3        bne x15 x12 -16
    15908:        00000693        addi x13 x0 0
    1590c:        09810793        addi x15 x2 152
    15910:        0000e717        auipc x14 0xe
    15914:        7c870713        addi x14 x14 1992
    15918:        0080006f        jal x0 8
    1591c:        00075683        lhu x13 0 x14
    15920:        00278793        addi x15 x15 2
    15924:        fed79f23        sh x13 -2 x15
    15928:        00270713        addi x14 x14 2
    1592c:        ffb798e3        bne x15 x27 -16
    15930:        fffff937        lui x18 0xfffff
    15934:        0000ea97        auipc x21 0xe
    15938:        7b8a8a93        addi x21 x21 1976
    1593c:        0000fc97        auipc x25 0xf
    15940:        8b4c8c93        addi x25 x25 -1868
    15944:        0000ed17        auipc x26 0xe
    15948:        794d0d13        addi x26 x26 1940
    1594c:        0000fd97        auipc x27 0xf
    15950:        890d8d93        addi x27 x27 -1904
    15954:        00c0006f        jal x0 12
    15958:        014c8c93        addi x25 x25 20
    1595c:        014a8a93        addi x21 x21 20
    15960:        00040593        addi x11 x8 0
    15964:        000d0513        addi x10 x26 0
    15968:        8bdfe0ef        jal x1 -5956 <ecmp>
    1596c:        00040593        addi x11 x8 0
    15970:        04a05663        bge x0 x10 76
    15974:        000c8513        addi x10 x25 0
    15978:        8adfe0ef        jal x1 -5972 <ecmp>
    1597c:        00098693        addi x13 x19 0
    15980:        00040613        addi x12 x8 0
    15984:        00040593        addi x11 x8 0
    15988:        02054263        blt x10 x0 36
    1598c:        000a8513        addi x10 x21 0
    15990:        b10ff0ef        jal x1 -3312 <emul>
    15994:        09810613        addi x12 x2 152
    15998:        00098693        addi x13 x19 0
    1599c:        00060593        addi x11 x12 0
    159a0:        000a8513        addi x10 x21 0
    159a4:        afcff0ef        jal x1 -3332 <emul>
    159a8:        012484b3        add x9 x9 x18
    159ac:        01f95793        srli x15 x18 31
    159b0:        01278933        add x18 x15 x18
    159b4:        40195913        srai x18 x18 1
    159b8:        fbba90e3        bne x21 x27 -96
    159bc:        09810613        addi x12 x2 152
    159c0:        00098693        addi x13 x19 0
    159c4:        0000e597        auipc x11 0xe
    159c8:        71458593        addi x11 x11 1812
    159cc:        00060513        addi x10 x12 0
    159d0:        ed8ff0ef        jal x1 -2344 <ediv>
    159d4:        12410913        addi x18 x2 292
    159d8:        0300006f        jal x0 48
    159dc:        07c10793        addi x15 x2 124
    159e0:        08e10693        addi x13 x2 142
    159e4:        0007d703        lhu x14 0 x15
    159e8:        00278793        addi x15 x15 2
    159ec:        e8071ee3        bne x14 x0 -356
    159f0:        fef69ae3        bne x13 x15 -12
    159f4:        00000493        addi x9 x0 0
    159f8:        12410913        addi x18 x2 292
    159fc:        16010993        addi x19 x2 352
    15a00:        0d010413        addi x8 x2 208
    15a04:        0e810b93        addi x23 x2 232
    15a08:        00040593        addi x11 x8 0
    15a0c:        09810513        addi x10 x2 152
    15a10:        f2cfe0ef        jal x1 -6356 <emovi>
    15a14:        09810713        addi x14 x2 152
    15a18:        00040793        addi x15 x8 0
    15a1c:        00278793        addi x15 x15 2
    15a20:        ffe7d683        lhu x13 -2 x15
    15a24:        00270713        addi x14 x14 2
    15a28:        fed71f23        sh x13 -2 x14
    15a2c:        ff7798e3        bne x15 x23 -16
    15a30:        00040593        addi x11 x8 0
    15a34:        07c10513        addi x10 x2 124
    15a38:        0a011823        sh x0 176 x2
    15a3c:        f00fe0ef        jal x1 -6400 <emovi>
    15a40:        07c10793        addi x15 x2 124
    15a44:        00240413        addi x8 x8 2
    15a48:        ffe45703        lhu x14 -2 x8
    15a4c:        00278793        addi x15 x15 2
    15a50:        fee79f23        sh x14 -2 x15
    15a54:        ff7418e3        bne x8 x23 -16
    15a58:        09810513        addi x10 x2 152
    15a5c:        00098613        addi x12 x19 0
    15a60:        07c10593        addi x11 x2 124
    15a64:        08011a23        sh x0 148 x2
    15a68:        824ff0ef        jal x1 -4060 <eiremain>
    15a6c:        1ac15503        lhu x10 428 x2
    15a70:        1c051863        bne x10 x0 464
    15a74:        0000ea97        auipc x21 0xe
    15a78:        650a8a93        addi x21 x21 1616
    15a7c:        09410d13        addi x26 x2 148
    15a80:        07e10413        addi x8 x2 126
    15a84:        0b610c93        addi x25 x2 182
    15a88:        000a8593        addi x11 x21 0
    15a8c:        07c10513        addi x10 x2 124
    15a90:        f94fe0ef        jal x1 -6252 <ecmp>
    15a94:        1a050663        beq x10 x0 428
    15a98:        00000713        addi x14 x0 0
    15a9c:        000d0693        addi x13 x26 0
    15aa0:        01c0006f        jal x0 28
    15aa4:        00171713        slli x14 x14 1
    15aa8:        00f69023        sh x15 0 x13
    15aac:        01071713        slli x14 x14 16
    15ab0:        ffe68693        addi x13 x13 -2
    15ab4:        01075713        srli x14 x14 16
    15ab8:        04868463        beq x13 x8 72
    15abc:        0006d783        lhu x15 0 x13
    15ac0:        01079613        slli x12 x15 16
    15ac4:        41065613        srai x12 x12 16
    15ac8:        00179793        slli x15 x15 1
    15acc:        00065463        bge x12 x0 8
    15ad0:        00176713        ori x14 x14 1
    15ad4:        01079793        slli x15 x15 16
    15ad8:        0107d793        srli x15 x15 16
    15adc:        00277613        andi x12 x14 2
    15ae0:        0017e593        ori x11 x15 1
    15ae4:        fc0600e3        beq x12 x0 -64
    15ae8:        00171713        slli x14 x14 1
    15aec:        00b69023        sh x11 0 x13
    15af0:        01071713        slli x14 x14 16
    15af4:        ffe68693        addi x13 x13 -2
    15af8:        01075713        srli x14 x14 16
    15afc:        fc8690e3        bne x13 x8 -64
    15b00:        0b410713        addi x14 x2 180
    15b04:        07c10793        addi x15 x2 124
    15b08:        00278793        addi x15 x15 2
    15b0c:        ffe7d683        lhu x13 -2 x15
    15b10:        00270713        addi x14 x14 2
    15b14:        fed71f23        sh x13 -2 x14
    15b18:        ffa798e3        bne x15 x26 -16
    15b1c:        0c011623        sh x0 204 x2
    15b20:        00000713        addi x14 x0 0
    15b24:        0cc10693        addi x13 x2 204
    15b28:        01c0006f        jal x0 28
    15b2c:        00171713        slli x14 x14 1
    15b30:        00f69023        sh x15 0 x13
    15b34:        01071713        slli x14 x14 16
    15b38:        ffe68693        addi x13 x13 -2
    15b3c:        01075713        srli x14 x14 16
    15b40:        05968463        beq x13 x25 72
    15b44:        0006d783        lhu x15 0 x13
    15b48:        01079613        slli x12 x15 16
    15b4c:        41065613        srai x12 x12 16
    15b50:        00179793        slli x15 x15 1
    15b54:        00065463        bge x12 x0 8
    15b58:        00176713        ori x14 x14 1
    15b5c:        01079793        slli x15 x15 16
    15b60:        0107d793        srli x15 x15 16
    15b64:        00277613        andi x12 x14 2
    15b68:        0017e593        ori x11 x15 1
    15b6c:        fc0600e3        beq x12 x0 -64
    15b70:        00171713        slli x14 x14 1
    15b74:        00b69023        sh x11 0 x13
    15b78:        01071713        slli x14 x14 16
    15b7c:        ffe68693        addi x13 x13 -2
    15b80:        01075713        srli x14 x14 16
    15b84:        fd9690e3        bne x13 x25 -64
    15b88:        00000713        addi x14 x0 0
    15b8c:        0cc10693        addi x13 x2 204
    15b90:        01c0006f        jal x0 28
    15b94:        00171713        slli x14 x14 1
    15b98:        00f69023        sh x15 0 x13
    15b9c:        01071713        slli x14 x14 16
    15ba0:        ffe68693        addi x13 x13 -2
    15ba4:        01075713        srli x14 x14 16
    15ba8:        05968463        beq x13 x25 72
    15bac:        0006d783        lhu x15 0 x13
    15bb0:        01079613        slli x12 x15 16
    15bb4:        41065613        srai x12 x12 16
    15bb8:        00179793        slli x15 x15 1
    15bbc:        00065463        bge x12 x0 8
    15bc0:        00176713        ori x14 x14 1
    15bc4:        01079793        slli x15 x15 16
    15bc8:        0107d793        srli x15 x15 16
    15bcc:        00277613        andi x12 x14 2
    15bd0:        0017e593        ori x11 x15 1
    15bd4:        fc0600e3        beq x12 x0 -64
    15bd8:        00171713        slli x14 x14 1
    15bdc:        00b69023        sh x11 0 x13
    15be0:        01071713        slli x14 x14 16
    15be4:        ffe68693        addi x13 x13 -2
    15be8:        01075713        srli x14 x14 16
    15bec:        fd9690e3        bne x13 x25 -64
    15bf0:        00000613        addi x12 x0 0
    15bf4:        000d0693        addi x13 x26 0
    15bf8:        0cc10713        addi x14 x2 204
    15bfc:        0006d583        lhu x11 0 x13
    15c00:        00075783        lhu x15 0 x14
    15c04:        ffe68693        addi x13 x13 -2
    15c08:        ffe70713        addi x14 x14 -2
    15c0c:        00b787b3        add x15 x15 x11
    15c10:        00c787b3        add x15 x15 x12
    15c14:        00f69123        sh x15 2 x13
    15c18:        0107d793        srli x15 x15 16
    15c1c:        0017f613        andi x12 x15 1
    15c20:        fd971ee3        bne x14 x25 -36
    15c24:        09810513        addi x10 x2 152
    15c28:        00098613        addi x12 x19 0
    15c2c:        07c10593        addi x11 x2 124
    15c30:        e5dfe0ef        jal x1 -4516 <eiremain>
    15c34:        1ac15503        lhu x10 428 x2
    15c38:        fff48493        addi x9 x9 -1
    15c3c:        e40506e3        beq x10 x0 -436
    15c40:        01812783        lw x15 24 x2
    15c44:        00812703        lw x14 8 x2
    15c48:        00c12403        lw x8 12 x2
    15c4c:        00f037b3        sltu x15 x0 x15
    15c50:        40f007b3        sub x15 x0 x15
    15c54:        00d7f793        andi x15 x15 13
    15c58:        02078793        addi x15 x15 32
    15c5c:        12f10223        sb x15 292 x2
    15c60:        00300793        addi x15 x0 3
    15c64:        02f70463        beq x14 x15 40
    15c68:        00a00793        addi x15 x0 10
    15c6c:        1ef502e3        beq x10 x15 2532
    15c70:        03050513        addi x10 x10 48
    15c74:        02e00793        addi x15 x0 46
    15c78:        12a102a3        sb x10 293 x2
    15c7c:        12f10323        sb x15 294 x2
    15c80:        78044263        blt x8 x0 1924
    15c84:        12710c93        addi x25 x2 295
    15c88:        0300006f        jal x0 48
    15c8c:        00940433        add x8 x8 x9
    15c90:        02a00793        addi x15 x0 42
    15c94:        fc87dae3        bge x15 x8 -44
    15c98:        00a00793        addi x15 x0 10
    15c9c:        18f506e3        beq x10 x15 2444
    15ca0:        03050513        addi x10 x10 48
    15ca4:        02e00793        addi x15 x0 46
    15ca8:        12a102a3        sb x10 293 x2
    15cac:        12f10323        sb x15 294 x2
    15cb0:        02a00413        addi x8 x0 42
    15cb4:        12710c93        addi x25 x2 295
    15cb8:        00000c13        addi x24 x0 0
    15cbc:        0b410a93        addi x21 x2 180
    15cc0:        09410d93        addi x27 x2 148
    15cc4:        07e10b93        addi x23 x2 126
    15cc8:        0b610d13        addi x26 x2 182
    15ccc:        00000713        addi x14 x0 0
    15cd0:        000d8693        addi x13 x27 0
    15cd4:        01c0006f        jal x0 28
    15cd8:        00171713        slli x14 x14 1
    15cdc:        00f69023        sh x15 0 x13
    15ce0:        01071713        slli x14 x14 16
    15ce4:        ffe68693        addi x13 x13 -2
    15ce8:        01075713        srli x14 x14 16
    15cec:        05768463        beq x13 x23 72
    15cf0:        0006d783        lhu x15 0 x13
    15cf4:        01079613        slli x12 x15 16
    15cf8:        41065613        srai x12 x12 16
    15cfc:        00179793        slli x15 x15 1
    15d00:        00065463        bge x12 x0 8
    15d04:        00176713        ori x14 x14 1
    15d08:        01079793        slli x15 x15 16
    15d0c:        0107d793        srli x15 x15 16
    15d10:        00277613        andi x12 x14 2
    15d14:        0017e593        ori x11 x15 1
    15d18:        fc0600e3        beq x12 x0 -64
    15d1c:        00171713        slli x14 x14 1
    15d20:        00b69023        sh x11 0 x13
    15d24:        01071713        slli x14 x14 16
    15d28:        ffe68693        addi x13 x13 -2
    15d2c:        01075713        srli x14 x14 16
    15d30:        fd7690e3        bne x13 x23 -64
    15d34:        000a8713        addi x14 x21 0
    15d38:        07c10793        addi x15 x2 124
    15d3c:        00278793        addi x15 x15 2
    15d40:        ffe7d683        lhu x13 -2 x15
    15d44:        00270713        addi x14 x14 2
    15d48:        fed71f23        sh x13 -2 x14
    15d4c:        ffb798e3        bne x15 x27 -16
    15d50:        0c011623        sh x0 204 x2
    15d54:        00000713        addi x14 x0 0
    15d58:        0cc10693        addi x13 x2 204
    15d5c:        01c0006f        jal x0 28
    15d60:        00171713        slli x14 x14 1
    15d64:        00f69023        sh x15 0 x13
    15d68:        01071713        slli x14 x14 16
    15d6c:        ffe68693        addi x13 x13 -2
    15d70:        01075713        srli x14 x14 16
    15d74:        05a68463        beq x13 x26 72
    15d78:        0006d783        lhu x15 0 x13
    15d7c:        01079613        slli x12 x15 16
    15d80:        41065613        srai x12 x12 16
    15d84:        00179793        slli x15 x15 1
    15d88:        00065463        bge x12 x0 8
    15d8c:        00176713        ori x14 x14 1
    15d90:        01079793        slli x15 x15 16
    15d94:        0107d793        srli x15 x15 16
    15d98:        00277613        andi x12 x14 2
    15d9c:        0017e593        ori x11 x15 1
    15da0:        fc0600e3        beq x12 x0 -64
    15da4:        00171713        slli x14 x14 1
    15da8:        00b69023        sh x11 0 x13
    15dac:        01071713        slli x14 x14 16
    15db0:        ffe68693        addi x13 x13 -2
    15db4:        01075713        srli x14 x14 16
    15db8:        fda690e3        bne x13 x26 -64
    15dbc:        00000713        addi x14 x0 0
    15dc0:        0cc10693        addi x13 x2 204
    15dc4:        01c0006f        jal x0 28
    15dc8:        00171713        slli x14 x14 1
    15dcc:        00f69023        sh x15 0 x13
    15dd0:        01071713        slli x14 x14 16
    15dd4:        ffe68693        addi x13 x13 -2
    15dd8:        01075713        srli x14 x14 16
    15ddc:        05a68463        beq x13 x26 72
    15de0:        0006d783        lhu x15 0 x13
    15de4:        01079613        slli x12 x15 16
    15de8:        41065613        srai x12 x12 16
    15dec:        00179793        slli x15 x15 1
    15df0:        00065463        bge x12 x0 8
    15df4:        00176713        ori x14 x14 1
    15df8:        01079793        slli x15 x15 16
    15dfc:        0107d793        srli x15 x15 16
    15e00:        00277613        andi x12 x14 2
    15e04:        0017e593        ori x11 x15 1
    15e08:        fc0600e3        beq x12 x0 -64
    15e0c:        00171713        slli x14 x14 1
    15e10:        00b69023        sh x11 0 x13
    15e14:        01071713        slli x14 x14 16
    15e18:        ffe68693        addi x13 x13 -2
    15e1c:        01075713        srli x14 x14 16
    15e20:        fda690e3        bne x13 x26 -64
    15e24:        00000613        addi x12 x0 0
    15e28:        000d8693        addi x13 x27 0
    15e2c:        0cc10713        addi x14 x2 204
    15e30:        0006d583        lhu x11 0 x13
    15e34:        00075783        lhu x15 0 x14
    15e38:        ffe68693        addi x13 x13 -2
    15e3c:        ffe70713        addi x14 x14 -2
    15e40:        00b787b3        add x15 x15 x11
    15e44:        00c787b3        add x15 x15 x12
    15e48:        00f69123        sh x15 2 x13
    15e4c:        0107d793        srli x15 x15 16
    15e50:        0017f613        andi x12 x15 1
    15e54:        fda71ee3        bne x14 x26 -36
    15e58:        00098613        addi x12 x19 0
    15e5c:        07c10593        addi x11 x2 124
    15e60:        09810513        addi x10 x2 152
    15e64:        c29fe0ef        jal x1 -5080 <eiremain>
    15e68:        1ac15783        lhu x15 428 x2
    15e6c:        018c8733        add x14 x25 x24
    15e70:        001c0c13        addi x24 x24 1
    15e74:        03078693        addi x13 x15 48
    15e78:        00d70023        sb x13 0 x14
    15e7c:        e58458e3        bge x8 x24 -432
    15e80:        00140993        addi x19 x8 1
    15e84:        013c89b3        add x19 x25 x19
    15e88:        008c8cb3        add x25 x25 x8
    15e8c:        00400713        addi x14 x0 4
    15e90:        06f75e63        bge x14 x15 124
    15e94:        00500713        addi x14 x0 5
    15e98:        00e78ae3        beq x15 x14 2068
    15e9c:        ffe9c783        lbu x15 -2 x19
    15ea0:        ffe98713        addi x14 x19 -2
    15ea4:        07f7f793        andi x15 x15 127
    15ea8:        7c044a63        blt x8 x0 2004
    15eac:        02e00693        addi x13 x0 46
    15eb0:        04d78263        beq x15 x13 68
    15eb4:        00178693        addi x13 x15 1
    15eb8:        00d70023        sb x13 0 x14
    15ebc:        03800693        addi x13 x0 56
    15ec0:        03000593        addi x11 x0 48
    15ec4:        02e00613        addi x12 x0 46
    15ec8:        03800513        addi x10 x0 56
    15ecc:        00f6c863        blt x13 x15 16
    15ed0:        03c0006f        jal x0 60
    15ed4:        00d70023        sb x13 0 x14
    15ed8:        02f57a63        bgeu x10 x15 52
    15edc:        00b70023        sb x11 0 x14
    15ee0:        fff70713        addi x14 x14 -1
    15ee4:        00074783        lbu x15 0 x14
    15ee8:        07f7f793        andi x15 x15 127
    15eec:        00178693        addi x13 x15 1
    15ef0:        fec792e3        bne x15 x12 -28
    15ef4:        fff74783        lbu x15 -1 x14
    15ef8:        03800693        addi x13 x0 56
    15efc:        00f6fee3        bgeu x13 x15 2076
    15f00:        03100793        addi x15 x0 49
    15f04:        00148493        addi x9 x9 1
    15f08:        fef70fa3        sb x15 -1 x14
    15f0c:        00048613        addi x12 x9 0
    15f10:        0000e597        auipc x11 0xe
    15f14:        42c58593        addi x11 x11 1068
    15f18:        000c8513        addi x10 x25 0
    15f1c:        065020ef        jal x1 10340 <sprintf>
    15f20:        07215783        lhu x15 114 x2
    15f24:        01c12703        lw x14 28 x2
    15f28:        16912823        sw x9 368 x2
    15f2c:        fff7c793        xori x15 x15 -1
    15f30:        16e12223        sw x14 356 x2
    15f34:        01179713        slli x14 x15 17
    15f38:        00071e63        bne x14 x0 28
    15f3c:        000a0513        addi x10 x20 0
    15f40:        c00fe0ef        jal x1 -7168 <eisinf.part.1>
    15f44:        22051c63        bne x10 x0 568
    15f48:        000a0513        addi x10 x20 0
    15f4c:        940fe0ef        jal x1 -7872 <eisnan.part.0>
    15f50:        22051663        bne x10 x0 556
    15f54:        01412683        lw x13 20 x2
    15f58:        12414783        lbu x15 292 x2
    15f5c:        00148713        addi x14 x9 1
    15f60:        00e6a023        sw x14 0 x13
    15f64:        0c078ce3        beq x15 x0 2264
    15f68:        02e00713        addi x14 x0 46
    15f6c:        06e78063        beq x15 x14 96
    15f70:        00090793        addi x15 x18 0
    15f74:        02e00693        addi x13 x0 46
    15f78:        0080006f        jal x0 8
    15f7c:        04d70a63        beq x14 x13 84
    15f80:        00178793        addi x15 x15 1
    15f84:        0007c703        lbu x14 0 x15
    15f88:        fe071ae3        bne x14 x0 -12
    15f8c:        04500693        addi x13 x0 69
    15f90:        00f96663        bltu x18 x15 12
    15f94:        0140006f        jal x0 20
    15f98:        01278863        beq x15 x18 16
    15f9c:        fff78793        addi x15 x15 -1
    15fa0:        0007c703        lbu x14 0 x15
    15fa4:        fed71ae3        bne x14 x13 -12
    15fa8:        00078023        sb x0 0 x15
    15fac:        00090793        addi x15 x18 0
    15fb0:        02000693        addi x13 x0 32
    15fb4:        02d00613        addi x12 x0 45
    15fb8:        0007c703        lbu x14 0 x15
    15fbc:        00d70463        beq x14 x13 8
    15fc0:        02c71a63        bne x14 x12 52
    15fc4:        00178793        addi x15 x15 1
    15fc8:        ff1ff06f        jal x0 -16
    15fcc:        00090793        addi x15 x18 0
    15fd0:        0017c703        lbu x14 1 x15
    15fd4:        00178793        addi x15 x15 1
    15fd8:        fee78fa3        sb x14 -1 x15
    15fdc:        fa0708e3        beq x14 x0 -80
    15fe0:        0017c703        lbu x14 1 x15
    15fe4:        00178793        addi x15 x15 1
    15fe8:        fee78fa3        sb x14 -1 x15
    15fec:        fe0712e3        bne x14 x0 -28
    15ff0:        f9dff06f        jal x0 -100
    15ff4:        00090413        addi x8 x18 0
    15ff8:        00c0006f        jal x0 12
    15ffc:        0007c703        lbu x14 0 x15
    16000:        00068413        addi x8 x13 0
    16004:        00e40023        sb x14 0 x8
    16008:        00140693        addi x13 x8 1
    1600c:        00178793        addi x15 x15 1
    16010:        fe0716e3        bne x14 x0 -20
    16014:        00812683        lw x13 8 x2
    16018:        00200793        addi x15 x0 2
    1601c:        fff44703        lbu x14 -1 x8
    16020:        12f68663        beq x13 x15 300
    16024:        00c12783        lw x15 12 x2
    16028:        00078693        addi x13 x15 0
    1602c:        0097d463        bge x15 x9 8
    16030:        00048693        addi x13 x9 0
    16034:        03000793        addi x15 x0 48
    16038:        02f71663        bne x14 x15 44
    1603c:        412407b3        sub x15 x8 x18
    16040:        02f6d263        bge x13 x15 36
    16044:        03000613        addi x12 x0 48
    16048:        0080006f        jal x0 8
    1604c:        00e6dc63        bge x13 x14 24
    16050:        fff40413        addi x8 x8 -1
    16054:        fff44783        lbu x15 -1 x8
    16058:        00040023        sb x0 0 x8
    1605c:        41240733        sub x14 x8 x18
    16060:        fec786e3        beq x15 x12 -20
    16064:        00812703        lw x14 8 x2
    16068:        00300793        addi x15 x0 3
    1606c:        0af70263        beq x14 x15 164
    16070:        01012783        lw x15 16 x2
    16074:        040b2223        sw x0 68 x22
    16078:        00978613        addi x12 x15 9
    1607c:        01700793        addi x15 x0 23
    16080:        0cc7f263        bgeu x15 x12 196
    16084:        00100713        addi x14 x0 1
    16088:        00400793        addi x15 x0 4
    1608c:        00179793        slli x15 x15 1
    16090:        01478693        addi x13 x15 20
    16094:        00070593        addi x11 x14 0
    16098:        00170713        addi x14 x14 1
    1609c:        fed678e3        bgeu x12 x13 -16
    160a0:        04bb2223        sw x11 68 x22
    160a4:        000b0513        addi x10 x22 0
    160a8:        560010ef        jal x1 5472 <_Balloc>
    160ac:        04ab2023        sw x10 64 x22
    160b0:        00090593        addi x11 x18 0
    160b4:        00050493        addi x9 x10 0
    160b8:        21d020ef        jal x1 10780 <strcpy>
    160bc:        02012783        lw x15 32 x2
    160c0:        00078863        beq x15 x0 16
    160c4:        41240433        sub x8 x8 x18
    160c8:        00848433        add x8 x9 x8
    160cc:        0087a023        sw x8 0 x15
    160d0:        1ec12083        lw x1 492 x2
    160d4:        1e812403        lw x8 488 x2
    160d8:        00048513        addi x10 x9 0
    160dc:        1e012903        lw x18 480 x2
    160e0:        1e412483        lw x9 484 x2
    160e4:        1dc12983        lw x19 476 x2
    160e8:        1d812a03        lw x20 472 x2
    160ec:        1d412a83        lw x21 468 x2
    160f0:        1d012b03        lw x22 464 x2
    160f4:        1cc12b83        lw x23 460 x2
    160f8:        1c812c03        lw x24 456 x2
    160fc:        1c412c83        lw x25 452 x2
    16100:        1c012d03        lw x26 448 x2
    16104:        1bc12d83        lw x27 444 x2
    16108:        1f010113        addi x2 x2 496
    1610c:        00008067        jalr x0 x1 0
    16110:        00c12783        lw x15 12 x2
    16114:        009784b3        add x9 x15 x9
    16118:        4a04ce63        blt x9 x0 1212
    1611c:        01412783        lw x15 20 x2
    16120:        01012703        lw x14 16 x2
    16124:        0007a783        lw x15 0 x15
    16128:        00f707b3        add x15 x14 x15
    1612c:        00f12823        sw x15 16 x2
    16130:        01012783        lw x15 16 x2
    16134:        040b2223        sw x0 68 x22
    16138:        00378613        addi x12 x15 3
    1613c:        01700793        addi x15 x0 23
    16140:        f4c7e2e3        bltu x15 x12 -188
    16144:        00000593        addi x11 x0 0
    16148:        f5dff06f        jal x0 -164
    1614c:        03000793        addi x15 x0 48
    16150:        f2f710e3        bne x14 x15 -224
    16154:        412407b3        sub x15 x8 x18
    16158:        00100693        addi x13 x0 1
    1615c:        eef6c4e3        blt x13 x15 -280
    16160:        f11ff06f        jal x0 -240
    16164:        01012b83        lw x23 16 x2
    16168:        01712623        sw x23 12 x2
    1616c:        02a00793        addi x15 x0 42
    16170:        e577de63        bge x15 x23 -2468
    16174:        00f12623        sw x15 12 x2
    16178:        e54ff06f        jal x0 -2476
    1617c:        01412703        lw x14 20 x2
    16180:        000027b7        lui x15 0x2
    16184:        70f78793        addi x15 x15 1807
    16188:        00f72023        sw x15 0 x14
    1618c:        e21ff06f        jal x0 -480
    16190:        0b410a93        addi x21 x2 180
    16194:        000a8713        addi x14 x21 0
    16198:        07c10793        addi x15 x2 124
    1619c:        09010613        addi x12 x2 144
    161a0:        00278793        addi x15 x15 2
    161a4:        ffe7d683        lhu x13 -2 x15
    161a8:        00270713        addi x14 x14 2
    161ac:        fed71f23        sh x13 -2 x14
    161b0:        fec798e3        bne x15 x12 -16
    161b4:        000047b7        lui x15 0x4
    161b8:        08e78793        addi x15 x15 142
    161bc:        0cf11323        sh x15 198 x2
    161c0:        000087b7        lui x15 0x8
    161c4:        fff78793        addi x15 x15 -1
    161c8:        02f12223        sw x15 36 x2
    161cc:        ffffc7b7        lui x15 0xffffc
    161d0:        00278793        addi x15 x15 2
    161d4:        01000d13        addi x26 x0 16
    161d8:        00000493        addi x9 x0 0
    161dc:        0000ec17        auipc x24 0xe
    161e0:        fb0c0c13        addi x24 x24 -80
    161e4:        12410913        addi x18 x2 292
    161e8:        16010993        addi x19 x2 352
    161ec:        0d010413        addi x8 x2 208
    161f0:        0aa10b93        addi x23 x2 170
    161f4:        02f12423        sw x15 40 x2
    161f8:        05e10c93        addi x25 x2 94
    161fc:        00098693        addi x13 x19 0
    16200:        09810613        addi x12 x2 152
    16204:        000a8593        addi x11 x21 0
    16208:        000c0513        addi x10 x24 0
    1620c:        e9dfe0ef        jal x1 -4452 <ediv>
    16210:        04c10713        addi x14 x2 76
    16214:        09810793        addi x15 x2 152
    16218:        00278793        addi x15 x15 2
    1621c:        ffe7d683        lhu x13 -2 x15
    16220:        00270713        addi x14 x14 2
    16224:        fed71f23        sh x13 -2 x14
    16228:        ffb798e3        bne x15 x27 -16
    1622c:        02412783        lw x15 36 x2
    16230:        05e15503        lhu x10 94 x2
    16234:        00f57633        and x12 x10 x15
    16238:        02812783        lw x15 40 x2
    1623c:        00f605b3        add x11 x12 x15
    16240:        3ab05463        bge x0 x11 936
    16244:        09000613        addi x12 x0 144
    16248:        40b60633        sub x12 x12 x11
    1624c:        00040713        addi x14 x8 0
    16250:        04c10793        addi x15 x2 76
    16254:        00278793        addi x15 x15 2
    16258:        ffe7d683        lhu x13 -2 x15
    1625c:        00270713        addi x14 x14 2
    16260:        fed71f23        sh x13 -2 x14
    16264:        ff4798e3        bne x15 x20 -16
    16268:        06c05863        bge x0 x12 112
    1626c:        00f00793        addi x15 x0 15
    16270:        00040713        addi x14 x8 0
    16274:        02c7dc63        bge x15 x12 56
    16278:        ff060613        addi x12 x12 -16
    1627c:        00465693        srli x13 x12 4
    16280:        00168713        addi x14 x13 1
    16284:        00171713        slli x14 x14 1
    16288:        00e40733        add x14 x8 x14
    1628c:        00040793        addi x15 x8 0
    16290:        00278793        addi x15 x15 2
    16294:        fe079f23        sh x0 -2 x15
    16298:        fee79ce3        bne x15 x14 -8
    1629c:        08000613        addi x12 x0 128
    162a0:        40b60633        sub x12 x12 x11
    162a4:        00469693        slli x13 x13 4
    162a8:        40d60633        sub x12 x12 x13
    162ac:        0000e797        auipc x15 0xe
    162b0:        e1878793        addi x15 x15 -488
    162b4:        00161613        slli x12 x12 1
    162b8:        00c78633        add x12 x15 x12
    162bc:        23065683        lhu x13 560 x12
    162c0:        00075783        lhu x15 0 x14
    162c4:        00d7f7b3        and x15 x15 x13
    162c8:        00f71023        sh x15 0 x14
    162cc:        01051513        slli x10 x10 16
    162d0:        41055513        srai x10 x10 16
    162d4:        16054063        blt x10 x0 352
    162d8:        09810793        addi x15 x2 152
    162dc:        00040713        addi x14 x8 0
    162e0:        0007d603        lhu x12 0 x15
    162e4:        00075683        lhu x13 0 x14
    162e8:        00278793        addi x15 x15 2
    162ec:        00270713        addi x14 x14 2
    162f0:        02d61463        bne x12 x13 40
    162f4:        fefb96e3        bne x23 x15 -20
    162f8:        000a8713        addi x14 x21 0
    162fc:        09810793        addi x15 x2 152
    16300:        00278793        addi x15 x15 2
    16304:        ffe7d683        lhu x13 -2 x15
    16308:        00270713        addi x14 x14 2
    1630c:        fed71f23        sh x13 -2 x14
    16310:        ffb798e3        bne x15 x27 -16
    16314:        01a484b3        add x9 x9 x26
    16318:        014c0c13        addi x24 x24 20
    1631c:        0000e797        auipc x15 0xe
    16320:        ed478793        addi x15 x15 -300
    16324:        001d5d13        srli x26 x26 1
    16328:        ecfc1ae3        bne x24 x15 -300
    1632c:        0c615783        lhu x15 198 x2
    16330:        08e15703        lhu x14 142 x2
    16334:        0c810613        addi x12 x2 200
    16338:        00e787b3        add x15 x15 x14
    1633c:        ffffc737        lui x14 0xffffc
    16340:        f7270713        addi x14 x14 -142
    16344:        00e787b3        add x15 x15 x14
    16348:        0cf11323        sh x15 198 x2
    1634c:        07c10713        addi x14 x2 124
    16350:        000a8793        addi x15 x21 0
    16354:        00278793        addi x15 x15 2
    16358:        ffe7d683        lhu x13 -2 x15
    1635c:        00270713        addi x14 x14 2
    16360:        fed71f23        sh x13 -2 x14
    16364:        fec798e3        bne x15 x12 -16
    16368:        00000693        addi x13 x0 0
    1636c:        09810793        addi x15 x2 152
    16370:        0000e717        auipc x14 0xe
    16374:        d6870713        addi x14 x14 -664
    16378:        0080006f        jal x0 8
    1637c:        00075683        lhu x13 0 x14
    16380:        00278793        addi x15 x15 2
    16384:        fed79f23        sh x13 -2 x15
    16388:        00270713        addi x14 x14 2
    1638c:        ffb798e3        bne x15 x27 -16
    16390:        00001d37        lui x26 0x1
    16394:        0000ec97        auipc x25 0xe
    16398:        d58c8c93        addi x25 x25 -680
    1639c:        0000ed97        auipc x27 0xe
    163a0:        e40d8d93        addi x27 x27 -448
    163a4:        0100006f        jal x0 16
    163a8:        001d5d13        srli x26 x26 1
    163ac:        2dbc8463        beq x25 x27 712
    163b0:        014c8c93        addi x25 x25 20
    163b4:        000a8593        addi x11 x21 0
    163b8:        000d8513        addi x10 x27 0
    163bc:        e69fd0ef        jal x1 -8600 <ecmp>
    163c0:        000a8593        addi x11 x21 0
    163c4:        2aa04863        blt x0 x10 688
    163c8:        000c8513        addi x10 x25 0
    163cc:        e59fd0ef        jal x1 -8616 <ecmp>
    163d0:        fca04ce3        blt x0 x10 -40
    163d4:        00098693        addi x13 x19 0
    163d8:        000a8613        addi x12 x21 0
    163dc:        000a8593        addi x11 x21 0
    163e0:        000c8513        addi x10 x25 0
    163e4:        cc5fe0ef        jal x1 -4924 <ediv>
    163e8:        09810613        addi x12 x2 152
    163ec:        00098693        addi x13 x19 0
    163f0:        00060593        addi x11 x12 0
    163f4:        000c8513        addi x10 x25 0
    163f8:        8a9fe0ef        jal x1 -5976 <emul>
    163fc:        01a484b3        add x9 x9 x26
    16400:        fa9ff06f        jal x0 -88
    16404:        1ac15783        lhu x15 428 x2
    16408:        12610c93        addi x25 x2 294
    1640c:        12710993        addi x19 x2 295
    16410:        a7dff06f        jal x0 -1412
    16414:        12410913        addi x18 x2 292
    16418:        0000e597        auipc x11 0xe
    1641c:        f0058593        addi x11 x11 -256
    16420:        00090513        addi x10 x18 0
    16424:        000024b7        lui x9 0x2
    16428:        358020ef        jal x1 9048 <sprintf>
    1642c:        70f48493        addi x9 x9 1807
    16430:        af1ff06f        jal x0 -1296
    16434:        04c10793        addi x15 x2 76
    16438:        00040713        addi x14 x8 0
    1643c:        0080006f        jal x0 8
    16440:        e8fc8ce3        beq x25 x15 -360
    16444:        0007d603        lhu x12 0 x15
    16448:        00075683        lhu x13 0 x14
    1644c:        00278793        addi x15 x15 2
    16450:        00270713        addi x14 x14 2
    16454:        fed606e3        beq x12 x13 -20
    16458:        0e215783        lhu x15 226 x2
    1645c:        02412703        lw x14 36 x2
    16460:        00f777b3        and x15 x14 x15
    16464:        00e79e63        bne x15 x14 28
    16468:        00040513        addi x10 x8 0
    1646c:        c21fd0ef        jal x1 -9184 <eisnan.part.0>
    16470:        e60514e3        bne x10 x0 -408
    16474:        00040513        addi x10 x8 0
    16478:        ec9fd0ef        jal x1 -8504 <eisinf.part.1>
    1647c:        e4051ee3        bne x10 x0 -420
    16480:        0ec10593        addi x11 x2 236
    16484:        0000e517        auipc x10 0xe
    16488:        c5450513        addi x10 x10 -940
    1648c:        cb1fd0ef        jal x1 -9040 <emovi>
    16490:        10810593        addi x11 x2 264
    16494:        00040513        addi x10 x8 0
    16498:        ca5fd0ef        jal x1 -9052 <emovi>
    1649c:        0ec15603        lhu x12 236 x2
    164a0:        10a15503        lhu x10 266 x2
    164a4:        0ee15803        lhu x16 238 x2
    164a8:        fff64613        xori x12 x12 -1
    164ac:        01061613        slli x12 x12 16
    164b0:        01065613        srli x12 x12 16
    164b4:        0ec11623        sh x12 236 x2
    164b8:        40a805b3        sub x11 x16 x10
    164bc:        00050693        addi x13 x10 0
    164c0:        06b05e63        bge x0 x11 124
    164c4:        00090693        addi x13 x18 0
    164c8:        10810713        addi x14 x2 264
    164cc:        12010793        addi x15 x2 288
    164d0:        00270713        addi x14 x14 2
    164d4:        ffe75583        lhu x11 -2 x14
    164d8:        00268693        addi x13 x13 2
    164dc:        feb69f23        sh x11 -2 x13
    164e0:        fef718e3        bne x14 x15 -16
    164e4:        12011e23        sh x0 316 x2
    164e8:        10810713        addi x14 x2 264
    164ec:        0ec10693        addi x13 x2 236
    164f0:        0080006f        jal x0 8
    164f4:        0006d603        lhu x12 0 x13
    164f8:        00270713        addi x14 x14 2
    164fc:        fec71f23        sh x12 -2 x14
    16500:        00268693        addi x13 x13 2
    16504:        fef718e3        bne x14 x15 -16
    16508:        12011023        sh x0 288 x2
    1650c:        0ec10713        addi x14 x2 236
    16510:        00090793        addi x15 x18 0
    16514:        13c10613        addi x12 x2 316
    16518:        00278793        addi x15 x15 2
    1651c:        ffe7d683        lhu x13 -2 x15
    16520:        00270713        addi x14 x14 2
    16524:        fed71f23        sh x13 -2 x14
    16528:        fec798e3        bne x15 x12 -16
    1652c:        10a15683        lhu x13 266 x2
    16530:        410505b3        sub x11 x10 x16
    16534:        10011223        sh x0 260 x2
    16538:        00068513        addi x10 x13 0
    1653c:        30058863        beq x11 x0 784
    16540:        02d12623        sw x13 44 x2
    16544:        f6f00793        addi x15 x0 -145
    16548:        06f5c863        blt x11 x15 112
    1654c:        0ec10513        addi x10 x2 236
    16550:        e0dfd0ef        jal x1 -8692 <eshift.part.3>
    16554:        02c12683        lw x13 44 x2
    16558:        00050593        addi x11 x10 0
    1655c:        12010793        addi x15 x2 288
    16560:        10410813        addi x16 x2 260
    16564:        0ec15603        lhu x12 236 x2
    16568:        10815703        lhu x14 264 x2
    1656c:        32e60c63        beq x12 x14 824
    16570:        00000713        addi x14 x0 0
    16574:        00070613        addi x12 x14 0
    16578:        0007d703        lhu x14 0 x15
    1657c:        00085503        lhu x10 0 x16
    16580:        ffe78793        addi x15 x15 -2
    16584:        40c70733        sub x14 x14 x12
    16588:        40a70733        sub x14 x14 x10
    1658c:        00e79123        sh x14 2 x15
    16590:        01075713        srli x14 x14 16
    16594:        00177613        andi x12 x14 1
    16598:        10a10713        addi x14 x2 266
    1659c:        ffe80813        addi x16 x16 -2
    165a0:        fce79ce3        bne x15 x14 -40
    165a4:        00100613        addi x12 x0 1
    165a8:        00098793        addi x15 x19 0
    165ac:        04000713        addi x14 x0 64
    165b0:        10810513        addi x10 x2 264
    165b4:        8d0fe0ef        jal x1 -7984 <emdnorm>
    165b8:        00040593        addi x11 x8 0
    165bc:        10810513        addi x10 x2 264
    165c0:        e30fe0ef        jal x1 -6608 <emovo.isra.6>
    165c4:        d15ff06f        jal x0 -748
    165c8:        01012783        lw x15 16 x2
    165cc:        fff78b93        addi x23 x15 -1
    165d0:        b99ff06f        jal x0 -1128
    165d4:        01412783        lw x15 20 x2
    165d8:        12010223        sb x0 292 x2
    165dc:        00090413        addi x8 x18 0
    165e0:        0007a023        sw x0 0 x15
    165e4:        b4dff06f        jal x0 -1204
    165e8:        00040793        addi x15 x8 0
    165ec:        0e410713        addi x14 x2 228
    165f0:        00278793        addi x15 x15 2
    165f4:        fe079f23        sh x0 -2 x15
    165f8:        fee79ce3        bne x15 x14 -8
    165fc:        cd1ff06f        jal x0 -816
    16600:        01812783        lw x15 24 x2
    16604:        12410913        addi x18 x2 292
    16608:        0e078a63        beq x15 x0 244
    1660c:        0000e597        auipc x11 0xe
    16610:        d1458593        addi x11 x11 -748
    16614:        00090513        addi x10 x18 0
    16618:        000024b7        lui x9 0x2
    1661c:        164020ef        jal x1 8548 <sprintf>
    16620:        70f48493        addi x9 x9 1807
    16624:        8fdff06f        jal x0 -1796
    16628:        03100793        addi x15 x0 49
    1662c:        12f102a3        sb x15 293 x2
    16630:        02e00793        addi x15 x0 46
    16634:        12f10323        sb x15 294 x2
    16638:        00148493        addi x9 x9 1
    1663c:        02900413        addi x8 x0 41
    16640:        03000793        addi x15 x0 48
    16644:        12f103a3        sb x15 295 x2
    16648:        12810c93        addi x25 x2 296
    1664c:        e6cff06f        jal x0 -2452
    16650:        03100793        addi x15 x0 49
    16654:        12f102a3        sb x15 293 x2
    16658:        02e00793        addi x15 x0 46
    1665c:        12f10323        sb x15 294 x2
    16660:        00148493        addi x9 x9 1
    16664:        1e804063        blt x0 x8 480
    16668:        12710c93        addi x25 x2 295
    1666c:        8a0410e3        bne x8 x0 -1888
    16670:        e48ff06f        jal x0 -2488
    16674:        0e810b93        addi x23 x2 232
    16678:        b90ff06f        jal x0 -3184
    1667c:        03100793        addi x15 x0 49
    16680:        fef98f23        sb x15 -2 x19
    16684:        00148493        addi x9 x9 1
    16688:        885ff06f        jal x0 -1916
    1668c:        12410913        addi x18 x2 292
    16690:        0000e597        auipc x11 0xe
    16694:        ca858593        addi x11 x11 -856
    16698:        00090513        addi x10 x18 0
    1669c:        000024b7        lui x9 0x2
    166a0:        0e0020ef        jal x1 8416 <sprintf>
    166a4:        70f48493        addi x9 x9 1807
    166a8:        879ff06f        jal x0 -1928
    166ac:        09810593        addi x11 x2 152
    166b0:        07c10513        addi x10 x2 124
    166b4:        d3cfe0ef        jal x1 -6852 <emovo.isra.6>
    166b8:        0000e597        auipc x11 0xe
    166bc:        a0c58593        addi x11 x11 -1524
    166c0:        09810513        addi x10 x2 152
    166c4:        b61fd0ef        jal x1 -9376 <ecmp>
    166c8:        fc051a63        bne x10 x0 -2092
    166cc:        840440e3        blt x8 x0 -1984
    166d0:        ffe9c783        lbu x15 -2 x19
    166d4:        fd278713        addi x14 x15 -46
    166d8:        00173713        sltiu x14 x14 1
    166dc:        fff74713        xori x14 x14 -1
    166e0:        00ec8733        add x14 x25 x14
    166e4:        00074703        lbu x14 0 x14
    166e8:        00177713        andi x14 x14 1
    166ec:        820700e3        beq x14 x0 -2016
    166f0:        ffe98713        addi x14 x19 -2
    166f4:        07f7f793        andi x15 x15 127
    166f8:        fb4ff06f        jal x0 -2124
    166fc:        0000e597        auipc x11 0xe
    16700:        c3058593        addi x11 x11 -976
    16704:        00090513        addi x10 x18 0
    16708:        000024b7        lui x9 0x2
    1670c:        074020ef        jal x1 8308 <sprintf>
    16710:        70f48493        addi x9 x9 1807
    16714:        80dff06f        jal x0 -2036
    16718:        00178793        addi x15 x15 1
    1671c:        fef70fa3        sb x15 -1 x14
    16720:        fecff06f        jal x0 -2068
    16724:        0d010413        addi x8 x2 208
    16728:        00040593        addi x11 x8 0
    1672c:        07c10513        addi x10 x2 124
    16730:        00004ab7        lui x21 0x4
    16734:        a09fd0ef        jal x1 -9720 <emovi>
    16738:        00000493        addi x9 x0 0
    1673c:        0e810b93        addi x23 x2 232
    16740:        0cc10913        addi x18 x2 204
    16744:        0d210993        addi x19 x2 210
    16748:        ffea8a93        addi x21 x21 -2
    1674c:        fd500c93        addi x25 x0 -43
    16750:        0e815783        lhu x15 232 x2
    16754:        0077f793        andi x15 x15 7
    16758:        0c079863        bne x15 x0 208
    1675c:        0b410713        addi x14 x2 180
    16760:        00040793        addi x15 x8 0
    16764:        00278793        addi x15 x15 2
    16768:        ffe7d683        lhu x13 -2 x15
    1676c:        00270713        addi x14 x14 2
    16770:        fed71f23        sh x13 -2 x14
    16774:        ff7798e3        bne x15 x23 -16
    16778:        0b410513        addi x10 x2 180
    1677c:        0c011623        sh x0 204 x2
    16780:        f9cfd0ef        jal x1 -10340 <eshdn1>
    16784:        0b410513        addi x10 x2 180
    16788:        f94fd0ef        jal x1 -10348 <eshdn1>
    1678c:        00000613        addi x12 x0 0
    16790:        00090693        addi x13 x18 0
    16794:        000b8713        addi x14 x23 0
    16798:        0006d583        lhu x11 0 x13
    1679c:        00075783        lhu x15 0 x14
    167a0:        ffe68693        addi x13 x13 -2
    167a4:        ffe70713        addi x14 x14 -2
    167a8:        00b787b3        add x15 x15 x11
    167ac:        00c787b3        add x15 x15 x12
    167b0:        00f69123        sh x15 2 x13
    167b4:        0107d793        srli x15 x15 16
    167b8:        0017f613        andi x12 x15 1
    167bc:        fd371ee3        bne x14 x19 -36
    167c0:        0b615783        lhu x15 182 x2
    167c4:        0b815703        lhu x14 184 x2
    167c8:        00378793        addi x15 x15 3
    167cc:        0af11b23        sh x15 182 x2
    167d0:        02070063        beq x14 x0 32
    167d4:        0b410513        addi x10 x2 180
    167d8:        f44fd0ef        jal x1 -10428 <eshdn1>
    167dc:        0b615783        lhu x15 182 x2
    167e0:        0b815703        lhu x14 184 x2
    167e4:        00178793        addi x15 x15 1
    167e8:        0af11b23        sh x15 182 x2
    167ec:        fe0714e3        bne x14 x0 -24
    167f0:        0cc15783        lhu x15 204 x2
    167f4:        02079a63        bne x15 x0 52
    167f8:        0b615783        lhu x15 182 x2
    167fc:        02fae663        bltu x21 x15 44
    16800:        00040713        addi x14 x8 0
    16804:        0b410793        addi x15 x2 180
    16808:        00278793        addi x15 x15 2
    1680c:        ffe7d683        lhu x13 -2 x15
    16810:        00270713        addi x14 x14 2
    16814:        fed71f23        sh x13 -2 x14
    16818:        ff2798e3        bne x15 x18 -16
    1681c:        0e011423        sh x0 232 x2
    16820:        fff48493        addi x9 x9 -1
    16824:        f39496e3        bne x9 x25 -212
    16828:        07c10593        addi x11 x2 124
    1682c:        00040513        addi x10 x8 0
    16830:        bc0fe0ef        jal x1 -7232 <emovo.isra.6>
    16834:        16010993        addi x19 x2 352
    16838:        8b0ff06f        jal x0 -3920
    1683c:        00090793        addi x15 x18 0
    16840:        f68ff06f        jal x0 -2200
    16844:        fff40413        addi x8 x8 -1
    16848:        df9ff06f        jal x0 -520
    1684c:        10c10713        addi x14 x2 268
    16850:        0f010793        addi x15 x2 240
    16854:        00278793        addi x15 x15 2
    16858:        00270713        addi x14 x14 2
    1685c:        ffe7d803        lhu x16 -2 x15
    16860:        ffe75603        lhu x12 -2 x14
    16864:        02c81863        bne x16 x12 48
    16868:        10610613        addi x12 x2 262
    1686c:        fec794e3        bne x15 x12 -24
    16870:        0ec15703        lhu x14 236 x2
    16874:        10815783        lhu x15 264 x2
    16878:        06f70463        beq x14 x15 104
    1687c:        00040793        addi x15 x8 0
    16880:        0e410713        addi x14 x2 228
    16884:        00278793        addi x15 x15 2
    16888:        fe079f23        sh x0 -2 x15
    1688c:        fee79ce3        bne x15 x14 -8
    16890:        a49ff06f        jal x0 -1464
    16894:        0d066863        bltu x12 x16 208
    16898:        12010793        addi x15 x2 288
    1689c:        10410813        addi x16 x2 260
    168a0:        cc5ff06f        jal x0 -828
    168a4:        00000613        addi x12 x0 0
    168a8:        00080713        addi x14 x16 0
    168ac:        0ee10893        addi x17 x2 238
    168b0:        0007d803        lhu x16 0 x15
    168b4:        00075503        lhu x10 0 x14
    168b8:        ffe78793        addi x15 x15 -2
    168bc:        ffe70713        addi x14 x14 -2
    168c0:        01050533        add x10 x10 x16
    168c4:        00c50633        add x12 x10 x12
    168c8:        00c79123        sh x12 2 x15
    168cc:        01065613        srli x12 x12 16
    168d0:        00167613        andi x12 x12 1
    168d4:        fd171ee3        bne x14 x17 -36
    168d8:        00000613        addi x12 x0 0
    168dc:        ccdff06f        jal x0 -820
    168e0:        00068713        addi x14 x13 0
    168e4:        06069263        bne x13 x0 100
    168e8:        10e11783        lh x15 270 x2
    168ec:        0407ce63        blt x15 x0 92
    168f0:        12010693        addi x13 x2 288
    168f4:        0200006f        jal x0 32
    168f8:        00f69023        sh x15 0 x13
    168fc:        00171713        slli x14 x14 1
    16900:        01071713        slli x14 x14 16
    16904:        ffe68693        addi x13 x13 -2
    16908:        10a10793        addi x15 x2 266
    1690c:        01075713        srli x14 x14 16
    16910:        caf684e3        beq x13 x15 -856
    16914:        0006d783        lhu x15 0 x13
    16918:        01079613        slli x12 x15 16
    1691c:        41065613        srai x12 x12 16
    16920:        00179793        slli x15 x15 1
    16924:        00065463        bge x12 x0 8
    16928:        00176713        ori x14 x14 1
    1692c:        01079793        slli x15 x15 16
    16930:        0107d793        srli x15 x15 16
    16934:        00277613        andi x12 x14 2
    16938:        0017e593        ori x11 x15 1
    1693c:        fa060ee3        beq x12 x0 -68
    16940:        00b69023        sh x11 0 x13
    16944:        fb9ff06f        jal x0 -72
    16948:        10c10613        addi x12 x2 268
    1694c:        12010793        addi x15 x2 288
    16950:        08071263        bne x14 x0 132
    16954:        08c78263        beq x15 x12 132
    16958:        00065703        lhu x14 0 x12
    1695c:        00260613        addi x12 x12 2
    16960:        ff1ff06f        jal x0 -16
    16964:        00090613        addi x12 x18 0
    16968:        10810713        addi x14 x2 264
    1696c:        12010793        addi x15 x2 288
    16970:        00270713        addi x14 x14 2
    16974:        ffe75503        lhu x10 -2 x14
    16978:        00260613        addi x12 x12 2
    1697c:        fea61f23        sh x10 -2 x12
    16980:        fef718e3        bne x14 x15 -16
    16984:        12011e23        sh x0 316 x2
    16988:        10810613        addi x12 x2 264
    1698c:        0ec10713        addi x14 x2 236
    16990:        10410813        addi x16 x2 260
    16994:        00270713        addi x14 x14 2
    16998:        ffe75503        lhu x10 -2 x14
    1699c:        00260613        addi x12 x12 2
    169a0:        fea61f23        sh x10 -2 x12
    169a4:        ff0718e3        bne x14 x16 -16
    169a8:        12011023        sh x0 288 x2
    169ac:        0ec10513        addi x10 x2 236
    169b0:        00090713        addi x14 x18 0
    169b4:        13c10613        addi x12 x2 316
    169b8:        00270713        addi x14 x14 2
    169bc:        ffe75883        lhu x17 -2 x14
    169c0:        00250513        addi x10 x10 2
    169c4:        ff151f23        sh x17 -2 x10
    169c8:        fec718e3        bne x14 x12 -16
    169cc:        10011223        sh x0 260 x2
    169d0:        b95ff06f        jal x0 -1132
    169d4:        00168513        addi x10 x13 1
    169d8:        10a11523        sh x10 266 x2
    169dc:        bddff06f        jal x0 -1060

000169e0 <_ldcheck>:
    169e0:        00852703        lw x14 8 x10
    169e4:        00c52783        lw x15 12 x10
    169e8:        00052603        lw x12 0 x10
    169ec:        00452683        lw x13 4 x10
    169f0:        fc010113        addi x2 x2 -64
    169f4:        00010513        addi x10 x2 0
    169f8:        01410593        addi x11 x2 20
    169fc:        00e12423        sw x14 8 x2
    16a00:        00f12623        sw x15 12 x2
    16a04:        02112e23        sw x1 60 x2
    16a08:        00c12023        sw x12 0 x2
    16a0c:        00d12223        sw x13 4 x2
    16a10:        b99fe0ef        jal x1 -5224 <e113toe.isra.8>
    16a14:        02615783        lhu x15 38 x2
    16a18:        00000513        addi x10 x0 0
    16a1c:        fff7c793        xori x15 x15 -1
    16a20:        01179713        slli x14 x15 17
    16a24:        00071a63        bne x14 x0 20
    16a28:        01410513        addi x10 x2 20
    16a2c:        e60fd0ef        jal x1 -10656 <eisnan.part.0>
    16a30:        00153513        sltiu x10 x10 1
    16a34:        00150513        addi x10 x10 1
    16a38:        03c12083        lw x1 60 x2
    16a3c:        04010113        addi x2 x2 64
    16a40:        00008067        jalr x0 x1 0

00016a44 <__localeconv_l>:
    16a44:        0f050513        addi x10 x10 240
    16a48:        00008067        jalr x0 x1 0

00016a4c <_localeconv_r>:
    16a4c:        d1818513        addi x10 x3 -744
    16a50:        00008067        jalr x0 x1 0

00016a54 <localeconv>:
    16a54:        d1818513        addi x10 x3 -744
    16a58:        00008067        jalr x0 x1 0

00016a5c <_setlocale_r>:
    16a5c:        04060063        beq x12 x0 64
    16a60:        ff010113        addi x2 x2 -16
    16a64:        0000e597        auipc x11 0xe
    16a68:        8e058593        addi x11 x11 -1824
    16a6c:        00060513        addi x10 x12 0
    16a70:        00812423        sw x8 8 x2
    16a74:        00112623        sw x1 12 x2
    16a78:        00060413        addi x8 x12 0
    16a7c:        6dd010ef        jal x1 7900 <strcmp>
    16a80:        02051463        bne x10 x0 40
    16a84:        0000e517        auipc x10 0xe
    16a88:        8bc50513        addi x10 x10 -1860
    16a8c:        00c12083        lw x1 12 x2
    16a90:        00812403        lw x8 8 x2
    16a94:        01010113        addi x2 x2 16
    16a98:        00008067        jalr x0 x1 0
    16a9c:        0000e517        auipc x10 0xe
    16aa0:        8a450513        addi x10 x10 -1884
    16aa4:        00008067        jalr x0 x1 0
    16aa8:        0000e597        auipc x11 0xe
    16aac:        89858593        addi x11 x11 -1896
    16ab0:        00040513        addi x10 x8 0
    16ab4:        6a5010ef        jal x1 7844 <strcmp>
    16ab8:        fc0506e3        beq x10 x0 -52
    16abc:        0000d597        auipc x11 0xd
    16ac0:        5f858593        addi x11 x11 1528
    16ac4:        00040513        addi x10 x8 0
    16ac8:        691010ef        jal x1 7824 <strcmp>
    16acc:        fa050ce3        beq x10 x0 -72
    16ad0:        00000513        addi x10 x0 0
    16ad4:        fb9ff06f        jal x0 -72

00016ad8 <__locale_mb_cur_max>:
    16ad8:        d501c503        lbu x10 -688 x3
    16adc:        00008067        jalr x0 x1 0

00016ae0 <setlocale>:
    16ae0:        1c018793        addi x15 x3 448
    16ae4:        00058613        addi x12 x11 0
    16ae8:        00050593        addi x11 x10 0
    16aec:        0007a503        lw x10 0 x15
    16af0:        f6dff06f        jal x0 -148 <_setlocale_r>

00016af4 <__swhatbuf_r>:
    16af4:        f9010113        addi x2 x2 -112
    16af8:        06812423        sw x8 104 x2
    16afc:        00058413        addi x8 x11 0
    16b00:        00e59583        lh x11 14 x11
    16b04:        06912223        sw x9 100 x2
    16b08:        07212023        sw x18 96 x2
    16b0c:        06112623        sw x1 108 x2
    16b10:        00060493        addi x9 x12 0
    16b14:        00068913        addi x18 x13 0
    16b18:        0405ca63        blt x11 x0 84
    16b1c:        00810613        addi x12 x2 8
    16b20:        5d4060ef        jal x1 26068 <_fstat_r>
    16b24:        04054463        blt x10 x0 72
    16b28:        00c12703        lw x14 12 x2
    16b2c:        0000f7b7        lui x15 0xf
    16b30:        06c12083        lw x1 108 x2
    16b34:        00e7f7b3        and x15 x15 x14
    16b38:        ffffe737        lui x14 0xffffe
    16b3c:        00e787b3        add x15 x15 x14
    16b40:        0017b793        sltiu x15 x15 1
    16b44:        06812403        lw x8 104 x2
    16b48:        00f92023        sw x15 0 x18
    16b4c:        40000793        addi x15 x0 1024
    16b50:        00f4a023        sw x15 0 x9
    16b54:        00001537        lui x10 0x1
    16b58:        06412483        lw x9 100 x2
    16b5c:        06012903        lw x18 96 x2
    16b60:        80050513        addi x10 x10 -2048
    16b64:        07010113        addi x2 x2 112
    16b68:        00008067        jalr x0 x1 0
    16b6c:        00c45783        lhu x15 12 x8
    16b70:        00092023        sw x0 0 x18
    16b74:        0807f793        andi x15 x15 128
    16b78:        02078463        beq x15 x0 40
    16b7c:        06c12083        lw x1 108 x2
    16b80:        06812403        lw x8 104 x2
    16b84:        04000793        addi x15 x0 64
    16b88:        00f4a023        sw x15 0 x9
    16b8c:        06012903        lw x18 96 x2
    16b90:        06412483        lw x9 100 x2
    16b94:        00000513        addi x10 x0 0
    16b98:        07010113        addi x2 x2 112
    16b9c:        00008067        jalr x0 x1 0
    16ba0:        06c12083        lw x1 108 x2
    16ba4:        06812403        lw x8 104 x2
    16ba8:        40000793        addi x15 x0 1024
    16bac:        00f4a023        sw x15 0 x9
    16bb0:        06012903        lw x18 96 x2
    16bb4:        06412483        lw x9 100 x2
    16bb8:        00000513        addi x10 x0 0
    16bbc:        07010113        addi x2 x2 112
    16bc0:        00008067        jalr x0 x1 0

00016bc4 <__smakebuf_r>:
    16bc4:        00c5d703        lhu x14 12 x11
    16bc8:        fe010113        addi x2 x2 -32
    16bcc:        00812c23        sw x8 24 x2
    16bd0:        00112e23        sw x1 28 x2
    16bd4:        00912a23        sw x9 20 x2
    16bd8:        01212823        sw x18 16 x2
    16bdc:        00277713        andi x14 x14 2
    16be0:        00058413        addi x8 x11 0
    16be4:        02070863        beq x14 x0 48
    16be8:        04358713        addi x14 x11 67
    16bec:        00e5a023        sw x14 0 x11
    16bf0:        00e5a823        sw x14 16 x11
    16bf4:        00100713        addi x14 x0 1
    16bf8:        00e5aa23        sw x14 20 x11
    16bfc:        01c12083        lw x1 28 x2
    16c00:        01812403        lw x8 24 x2
    16c04:        01412483        lw x9 20 x2
    16c08:        01012903        lw x18 16 x2
    16c0c:        02010113        addi x2 x2 32
    16c10:        00008067        jalr x0 x1 0
    16c14:        00c10693        addi x13 x2 12
    16c18:        00810613        addi x12 x2 8
    16c1c:        00050493        addi x9 x10 0
    16c20:        ed5ff0ef        jal x1 -300 <__swhatbuf_r>
    16c24:        00812583        lw x11 8 x2
    16c28:        00050913        addi x18 x10 0
    16c2c:        00048513        addi x10 x9 0
    16c30:        0b4000ef        jal x1 180 <_malloc_r>
    16c34:        00c41783        lh x15 12 x8
    16c38:        04050863        beq x10 x0 80
    16c3c:        ffffd697        auipc x13 0xffffd
    16c40:        9ec68693        addi x13 x13 -1556
    16c44:        02d4ae23        sw x13 60 x9
    16c48:        00812683        lw x13 8 x2
    16c4c:        00c12703        lw x14 12 x2
    16c50:        0807e793        ori x15 x15 128
    16c54:        00f41623        sh x15 12 x8
    16c58:        00a42023        sw x10 0 x8
    16c5c:        00a42823        sw x10 16 x8
    16c60:        00d42a23        sw x13 20 x8
    16c64:        04071863        bne x14 x0 80
    16c68:        0127e7b3        or x15 x15 x18
    16c6c:        00f41623        sh x15 12 x8
    16c70:        01c12083        lw x1 28 x2
    16c74:        01812403        lw x8 24 x2
    16c78:        01412483        lw x9 20 x2
    16c7c:        01012903        lw x18 16 x2
    16c80:        02010113        addi x2 x2 32
    16c84:        00008067        jalr x0 x1 0
    16c88:        2007f713        andi x14 x15 512
    16c8c:        f60718e3        bne x14 x0 -144
    16c90:        ffc7f793        andi x15 x15 -4
    16c94:        0027e793        ori x15 x15 2
    16c98:        04340713        addi x14 x8 67
    16c9c:        00f41623        sh x15 12 x8
    16ca0:        00100793        addi x15 x0 1
    16ca4:        00e42023        sw x14 0 x8
    16ca8:        00e42823        sw x14 16 x8
    16cac:        00f42a23        sw x15 20 x8
    16cb0:        f4dff06f        jal x0 -180
    16cb4:        00e41583        lh x11 14 x8
    16cb8:        00048513        addi x10 x9 0
    16cbc:        145060ef        jal x1 26948 <_isatty_r>
    16cc0:        00051663        bne x10 x0 12
    16cc4:        00c41783        lh x15 12 x8
    16cc8:        fa1ff06f        jal x0 -96
    16ccc:        00c45783        lhu x15 12 x8
    16cd0:        ffc7f793        andi x15 x15 -4
    16cd4:        0017e793        ori x15 x15 1
    16cd8:        01079793        slli x15 x15 16
    16cdc:        4107d793        srai x15 x15 16
    16ce0:        f89ff06f        jal x0 -120

00016ce4 <_malloc_r>:
    16ce4:        fd010113        addi x2 x2 -48
    16ce8:        02912223        sw x9 36 x2
    16cec:        03212023        sw x18 32 x2
    16cf0:        02112623        sw x1 44 x2
    16cf4:        02812423        sw x8 40 x2
    16cf8:        01312e23        sw x19 28 x2
    16cfc:        01412c23        sw x20 24 x2
    16d00:        01512a23        sw x21 20 x2
    16d04:        01612823        sw x22 16 x2
    16d08:        01712623        sw x23 12 x2
    16d0c:        01812423        sw x24 8 x2
    16d10:        01912223        sw x25 4 x2
    16d14:        00b58493        addi x9 x11 11
    16d18:        01600793        addi x15 x0 22
    16d1c:        00050913        addi x18 x10 0
    16d20:        0697e463        bltu x15 x9 104
    16d24:        01000793        addi x15 x0 16
    16d28:        20b7ec63        bltu x15 x11 536
    16d2c:        0d5000ef        jal x1 2260 <__malloc_lock>
    16d30:        01000493        addi x9 x0 16
    16d34:        01800793        addi x15 x0 24
    16d38:        00200613        addi x12 x0 2
    16d3c:        d9418993        addi x19 x3 -620
    16d40:        00f987b3        add x15 x19 x15
    16d44:        0047a403        lw x8 4 x15
    16d48:        ff878713        addi x14 x15 -8
    16d4c:        24e40263        beq x8 x14 580
    16d50:        00442783        lw x15 4 x8
    16d54:        00c42683        lw x13 12 x8
    16d58:        00842603        lw x12 8 x8
    16d5c:        ffc7f793        andi x15 x15 -4
    16d60:        00f407b3        add x15 x8 x15
    16d64:        0047a703        lw x14 4 x15
    16d68:        00d62623        sw x13 12 x12
    16d6c:        00c6a423        sw x12 8 x13
    16d70:        00176713        ori x14 x14 1
    16d74:        00090513        addi x10 x18 0
    16d78:        00e7a223        sw x14 4 x15
    16d7c:        089000ef        jal x1 2184 <__malloc_unlock>
    16d80:        00840513        addi x10 x8 8
    16d84:        1c80006f        jal x0 456
    16d88:        ff84f493        andi x9 x9 -8
    16d8c:        1a04ca63        blt x9 x0 436
    16d90:        1ab4e863        bltu x9 x11 432
    16d94:        06d000ef        jal x1 2156 <__malloc_lock>
    16d98:        1f700793        addi x15 x0 503
    16d9c:        4897f063        bgeu x15 x9 1152
    16da0:        0094d793        srli x15 x9 9
    16da4:        1c078e63        beq x15 x0 476
    16da8:        00400713        addi x14 x0 4
    16dac:        40f76463        bltu x14 x15 1032
    16db0:        0064d793        srli x15 x9 6
    16db4:        03978613        addi x12 x15 57
    16db8:        03878513        addi x10 x15 56
    16dbc:        00361693        slli x13 x12 3
    16dc0:        d9418993        addi x19 x3 -620
    16dc4:        00d986b3        add x13 x19 x13
    16dc8:        0046a403        lw x8 4 x13
    16dcc:        ff868693        addi x13 x13 -8
    16dd0:        02868c63        beq x13 x8 56
    16dd4:        00442783        lw x15 4 x8
    16dd8:        00f00593        addi x11 x0 15
    16ddc:        ffc7f793        andi x15 x15 -4
    16de0:        40978733        sub x14 x15 x9
    16de4:        02e5c063        blt x11 x14 32
    16de8:        36075063        bge x14 x0 864
    16dec:        00c42403        lw x8 12 x8
    16df0:        00868c63        beq x13 x8 24
    16df4:        00442783        lw x15 4 x8
    16df8:        ffc7f793        andi x15 x15 -4
    16dfc:        40978733        sub x14 x15 x9
    16e00:        fee5d4e3        bge x11 x14 -24
    16e04:        00050613        addi x12 x10 0
    16e08:        0109a403        lw x8 16 x19
    16e0c:        d9c18813        addi x16 x3 -612
    16e10:        19040c63        beq x8 x16 408
    16e14:        00442583        lw x11 4 x8
    16e18:        00f00713        addi x14 x0 15
    16e1c:        ffc5f593        andi x11 x11 -4
    16e20:        409587b3        sub x15 x11 x9
    16e24:        42f74263        blt x14 x15 1060
    16e28:        db01a423        sw x16 -600 x3
    16e2c:        db01a223        sw x16 -604 x3
    16e30:        3e07dc63        bge x15 x0 1016
    16e34:        1ff00793        addi x15 x0 511
    16e38:        30b7ee63        bltu x15 x11 796
    16e3c:        0035d593        srli x11 x11 3
    16e40:        00158793        addi x15 x11 1
    16e44:        00379793        slli x15 x15 3
    16e48:        0049a503        lw x10 4 x19
    16e4c:        00f987b3        add x15 x19 x15
    16e50:        0007a683        lw x13 0 x15
    16e54:        4025d593        srai x11 x11 2
    16e58:        00100713        addi x14 x0 1
    16e5c:        00b71733        sll x14 x14 x11
    16e60:        00a76733        or x14 x14 x10
    16e64:        ff878593        addi x11 x15 -8
    16e68:        00b42623        sw x11 12 x8
    16e6c:        00d42423        sw x13 8 x8
    16e70:        d8e1ac23        sw x14 -616 x3
    16e74:        0087a023        sw x8 0 x15
    16e78:        0086a623        sw x8 12 x13
    16e7c:        40265793        srai x15 x12 2
    16e80:        00100693        addi x13 x0 1
    16e84:        00f696b3        sll x13 x13 x15
    16e88:        12d76a63        bltu x14 x13 308
    16e8c:        00e6f7b3        and x15 x13 x14
    16e90:        02079463        bne x15 x0 40
    16e94:        00169693        slli x13 x13 1
    16e98:        ffc67613        andi x12 x12 -4
    16e9c:        00e6f7b3        and x15 x13 x14
    16ea0:        00460613        addi x12 x12 4
    16ea4:        00079a63        bne x15 x0 20
    16ea8:        00169693        slli x13 x13 1
    16eac:        00e6f7b3        and x15 x13 x14
    16eb0:        00460613        addi x12 x12 4
    16eb4:        fe078ae3        beq x15 x0 -12
    16eb8:        00f00513        addi x10 x0 15
    16ebc:        00361893        slli x17 x12 3
    16ec0:        011988b3        add x17 x19 x17
    16ec4:        00088593        addi x11 x17 0
    16ec8:        00060313        addi x6 x12 0
    16ecc:        00c5a403        lw x8 12 x11
    16ed0:        00859a63        bne x11 x8 20
    16ed4:        3040006f        jal x0 772
    16ed8:        30075a63        bge x14 x0 788
    16edc:        00c42403        lw x8 12 x8
    16ee0:        2e858c63        beq x11 x8 760
    16ee4:        00442783        lw x15 4 x8
    16ee8:        ffc7f793        andi x15 x15 -4
    16eec:        40978733        sub x14 x15 x9
    16ef0:        fee554e3        bge x10 x14 -24
    16ef4:        00c42683        lw x13 12 x8
    16ef8:        00842603        lw x12 8 x8
    16efc:        0014e593        ori x11 x9 1
    16f00:        00b42223        sw x11 4 x8
    16f04:        00d62623        sw x13 12 x12
    16f08:        00c6a423        sw x12 8 x13
    16f0c:        009404b3        add x9 x8 x9
    16f10:        da91a423        sw x9 -600 x3
    16f14:        da91a223        sw x9 -604 x3
    16f18:        00176693        ori x13 x14 1
    16f1c:        0104a623        sw x16 12 x9
    16f20:        0104a423        sw x16 8 x9
    16f24:        00d4a223        sw x13 4 x9
    16f28:        00f407b3        add x15 x8 x15
    16f2c:        00090513        addi x10 x18 0
    16f30:        00e7a023        sw x14 0 x15
    16f34:        6d0000ef        jal x1 1744 <__malloc_unlock>
    16f38:        00840513        addi x10 x8 8
    16f3c:        0100006f        jal x0 16
    16f40:        00c00793        addi x15 x0 12
    16f44:        00f92023        sw x15 0 x18
    16f48:        00000513        addi x10 x0 0
    16f4c:        02c12083        lw x1 44 x2
    16f50:        02812403        lw x8 40 x2
    16f54:        02412483        lw x9 36 x2
    16f58:        02012903        lw x18 32 x2
    16f5c:        01c12983        lw x19 28 x2
    16f60:        01812a03        lw x20 24 x2
    16f64:        01412a83        lw x21 20 x2
    16f68:        01012b03        lw x22 16 x2
    16f6c:        00c12b83        lw x23 12 x2
    16f70:        00812c03        lw x24 8 x2
    16f74:        00412c83        lw x25 4 x2
    16f78:        03010113        addi x2 x2 48
    16f7c:        00008067        jalr x0 x1 0
    16f80:        20000693        addi x13 x0 512
    16f84:        04000613        addi x12 x0 64
    16f88:        03f00513        addi x10 x0 63
    16f8c:        e35ff06f        jal x0 -460
    16f90:        00c7a403        lw x8 12 x15
    16f94:        00260613        addi x12 x12 2
    16f98:        da879ce3        bne x15 x8 -584
    16f9c:        0109a403        lw x8 16 x19
    16fa0:        d9c18813        addi x16 x3 -612
    16fa4:        e70418e3        bne x8 x16 -400
    16fa8:        0049a703        lw x14 4 x19
    16fac:        40265793        srai x15 x12 2
    16fb0:        00100693        addi x13 x0 1
    16fb4:        00f696b3        sll x13 x13 x15
    16fb8:        ecd77ae3        bgeu x14 x13 -300
    16fbc:        0089a403        lw x8 8 x19
    16fc0:        00442a83        lw x21 4 x8
    16fc4:        ffcafb93        andi x23 x21 -4
    16fc8:        009be863        bltu x23 x9 16
    16fcc:        409b87b3        sub x15 x23 x9
    16fd0:        00f00713        addi x14 x0 15
    16fd4:        14f74663        blt x14 x15 332
    16fd8:        1d818793        addi x15 x3 472
    16fdc:        1c418c13        addi x24 x3 452
    16fe0:        0007aa83        lw x21 0 x15
    16fe4:        000c2703        lw x14 0 x24
    16fe8:        fff00793        addi x15 x0 -1
    16fec:        01740a33        add x20 x8 x23
    16ff0:        01548ab3        add x21 x9 x21
    16ff4:        32f70c63        beq x14 x15 824
    16ff8:        000017b7        lui x15 0x1
    16ffc:        00f78793        addi x15 x15 15
    17000:        00fa8ab3        add x21 x21 x15
    17004:        fffff7b7        lui x15 0xfffff
    17008:        00fafab3        and x21 x21 x15
    1700c:        000a8593        addi x11 x21 0
    17010:        00090513        addi x10 x18 0
    17014:        5fc010ef        jal x1 5628 <_sbrk_r>
    17018:        fff00793        addi x15 x0 -1
    1701c:        00050b13        addi x22 x10 0
    17020:        26f50e63        beq x10 x15 636
    17024:        27456a63        bltu x10 x20 628
    17028:        1fc18c93        addi x25 x3 508
    1702c:        000ca783        lw x15 0 x25
    17030:        00fa87b3        add x15 x21 x15
    17034:        1ef1ae23        sw x15 508 x3
    17038:        00078713        addi x14 x15 0
    1703c:        38aa0a63        beq x20 x10 916
    17040:        000c2683        lw x13 0 x24
    17044:        fff00793        addi x15 x0 -1
    17048:        3af68263        beq x13 x15 932
    1704c:        414b07b3        sub x15 x22 x20
    17050:        00e787b3        add x15 x15 x14
    17054:        1ef1ae23        sw x15 508 x3
    17058:        007b7c13        andi x24 x22 7
    1705c:        2e0c0a63        beq x24 x0 756
    17060:        418b0b33        sub x22 x22 x24
    17064:        000017b7        lui x15 0x1
    17068:        008b0b13        addi x22 x22 8
    1706c:        fff78a13        addi x20 x15 -1
    17070:        015b0ab3        add x21 x22 x21
    17074:        00878793        addi x15 x15 8
    17078:        014af733        and x14 x21 x20
    1707c:        418787b3        sub x15 x15 x24
    17080:        40e787b3        sub x15 x15 x14
    17084:        0147fa33        and x20 x15 x20
    17088:        000a0593        addi x11 x20 0
    1708c:        00090513        addi x10 x18 0
    17090:        580010ef        jal x1 5504 <_sbrk_r>
    17094:        fff00793        addi x15 x0 -1
    17098:        3af50463        beq x10 x15 936
    1709c:        41650533        sub x10 x10 x22
    170a0:        01450ab3        add x21 x10 x20
    170a4:        000ca783        lw x15 0 x25
    170a8:        d961ae23        sw x22 -612 x3
    170ac:        001aea93        ori x21 x21 1
    170b0:        00fa07b3        add x15 x20 x15
    170b4:        1ef1ae23        sw x15 508 x3
    170b8:        015b2223        sw x21 4 x22
    170bc:        33340c63        beq x8 x19 824
    170c0:        00f00613        addi x12 x0 15
    170c4:        33767c63        bgeu x12 x23 824
    170c8:        00442683        lw x13 4 x8
    170cc:        ff4b8713        addi x14 x23 -12
    170d0:        ff877713        andi x14 x14 -8
    170d4:        0016f693        andi x13 x13 1
    170d8:        00e6e6b3        or x13 x13 x14
    170dc:        00d42223        sw x13 4 x8
    170e0:        00500593        addi x11 x0 5
    170e4:        00e406b3        add x13 x8 x14
    170e8:        00b6a223        sw x11 4 x13
    170ec:        00b6a423        sw x11 8 x13
    170f0:        36e66263        bltu x12 x14 868
    170f4:        004b2a83        lw x21 4 x22
    170f8:        000b0413        addi x8 x22 0
    170fc:        1d418713        addi x14 x3 468
    17100:        00072703        lw x14 0 x14
    17104:        00f77463        bgeu x14 x15 8
    17108:        1cf1aa23        sw x15 468 x3
    1710c:        1d018713        addi x14 x3 464
    17110:        00072703        lw x14 0 x14
    17114:        18f77863        bgeu x14 x15 400
    17118:        1cf1a823        sw x15 464 x3
    1711c:        1880006f        jal x0 392
    17120:        0014e713        ori x14 x9 1
    17124:        00e42223        sw x14 4 x8
    17128:        009404b3        add x9 x8 x9
    1712c:        d891ae23        sw x9 -612 x3
    17130:        0017e793        ori x15 x15 1
    17134:        00090513        addi x10 x18 0
    17138:        00f4a223        sw x15 4 x9
    1713c:        4c8000ef        jal x1 1224 <__malloc_unlock>
    17140:        00840513        addi x10 x8 8
    17144:        e09ff06f        jal x0 -504
    17148:        00c42683        lw x13 12 x8
    1714c:        00842603        lw x12 8 x8
    17150:        c11ff06f        jal x0 -1008
    17154:        0095d793        srli x15 x11 9
    17158:        00400713        addi x14 x0 4
    1715c:        12f77463        bgeu x14 x15 296
    17160:        01400713        addi x14 x0 20
    17164:        22f76063        bltu x14 x15 544
    17168:        05c78693        addi x13 x15 92
    1716c:        05b78713        addi x14 x15 91
    17170:        00369693        slli x13 x13 3
    17174:        00d986b3        add x13 x19 x13
    17178:        0006a783        lw x15 0 x13
    1717c:        ff868693        addi x13 x13 -8
    17180:        1af68a63        beq x13 x15 436
    17184:        0047a703        lw x14 4 x15
    17188:        ffc77713        andi x14 x14 -4
    1718c:        00e5f663        bgeu x11 x14 12
    17190:        0087a783        lw x15 8 x15
    17194:        fef698e3        bne x13 x15 -16
    17198:        00c7a683        lw x13 12 x15
    1719c:        0049a703        lw x14 4 x19
    171a0:        00d42623        sw x13 12 x8
    171a4:        00f42423        sw x15 8 x8
    171a8:        0086a423        sw x8 8 x13
    171ac:        0087a623        sw x8 12 x15
    171b0:        ccdff06f        jal x0 -820
    171b4:        01400713        addi x14 x0 20
    171b8:        10f77863        bgeu x14 x15 272
    171bc:        05400713        addi x14 x0 84
    171c0:        1ef76063        bltu x14 x15 480
    171c4:        00c4d793        srli x15 x9 12
    171c8:        06f78613        addi x12 x15 111
    171cc:        06e78513        addi x10 x15 110
    171d0:        00361693        slli x13 x12 3
    171d4:        bedff06f        jal x0 -1044
    171d8:        00130313        addi x6 x6 1
    171dc:        00337793        andi x15 x6 3
    171e0:        00858593        addi x11 x11 8
    171e4:        ce0794e3        bne x15 x0 -792
    171e8:        0fc0006f        jal x0 252
    171ec:        00f407b3        add x15 x8 x15
    171f0:        0047a703        lw x14 4 x15
    171f4:        00c42683        lw x13 12 x8
    171f8:        00842603        lw x12 8 x8
    171fc:        00176713        ori x14 x14 1
    17200:        00e7a223        sw x14 4 x15
    17204:        00d62623        sw x13 12 x12
    17208:        00090513        addi x10 x18 0
    1720c:        00c6a423        sw x12 8 x13
    17210:        3f4000ef        jal x1 1012 <__malloc_unlock>
    17214:        00840513        addi x10 x8 8
    17218:        d35ff06f        jal x0 -716
    1721c:        0034d613        srli x12 x9 3
    17220:        00848793        addi x15 x9 8
    17224:        b19ff06f        jal x0 -1256
    17228:        00b405b3        add x11 x8 x11
    1722c:        0045a783        lw x15 4 x11
    17230:        00090513        addi x10 x18 0
    17234:        0017e793        ori x15 x15 1
    17238:        00f5a223        sw x15 4 x11
    1723c:        3c8000ef        jal x1 968 <__malloc_unlock>
    17240:        00840513        addi x10 x8 8
    17244:        d09ff06f        jal x0 -760
    17248:        0014e713        ori x14 x9 1
    1724c:        00e42223        sw x14 4 x8
    17250:        009404b3        add x9 x8 x9
    17254:        da91a423        sw x9 -600 x3
    17258:        da91a223        sw x9 -604 x3
    1725c:        0017e713        ori x14 x15 1
    17260:        0104a623        sw x16 12 x9
    17264:        0104a423        sw x16 8 x9
    17268:        00e4a223        sw x14 4 x9
    1726c:        00b405b3        add x11 x8 x11
    17270:        00090513        addi x10 x18 0
    17274:        00f5a023        sw x15 0 x11
    17278:        38c000ef        jal x1 908 <__malloc_unlock>
    1727c:        00840513        addi x10 x8 8
    17280:        ccdff06f        jal x0 -820
    17284:        0065d793        srli x15 x11 6
    17288:        03978693        addi x13 x15 57
    1728c:        03878713        addi x14 x15 56
    17290:        00369693        slli x13 x13 3
    17294:        ee1ff06f        jal x0 -288
    17298:        13340263        beq x8 x19 292
    1729c:        0089a403        lw x8 8 x19
    172a0:        00442a83        lw x21 4 x8
    172a4:        ffcafa93        andi x21 x21 -4
    172a8:        409a87b3        sub x15 x21 x9
    172ac:        009ae663        bltu x21 x9 12
    172b0:        00f00713        addi x14 x0 15
    172b4:        e6f746e3        blt x14 x15 -404
    172b8:        00090513        addi x10 x18 0
    172bc:        348000ef        jal x1 840 <__malloc_unlock>
    172c0:        00000513        addi x10 x0 0
    172c4:        c89ff06f        jal x0 -888
    172c8:        05c78613        addi x12 x15 92
    172cc:        05b78513        addi x10 x15 91
    172d0:        00361693        slli x13 x12 3
    172d4:        aedff06f        jal x0 -1300
    172d8:        0088a783        lw x15 8 x17
    172dc:        fff60613        addi x12 x12 -1
    172e0:        1d179463        bne x15 x17 456
    172e4:        00367793        andi x15 x12 3
    172e8:        ff888893        addi x17 x17 -8
    172ec:        fe0796e3        bne x15 x0 -20
    172f0:        0049a703        lw x14 4 x19
    172f4:        fff6c793        xori x15 x13 -1
    172f8:        00e7f7b3        and x15 x15 x14
    172fc:        d8f1ac23        sw x15 -616 x3
    17300:        00169693        slli x13 x13 1
    17304:        cad7ece3        bltu x15 x13 -840
    17308:        ca068ae3        beq x13 x0 -844
    1730c:        00f6f733        and x14 x13 x15
    17310:        00071a63        bne x14 x0 20
    17314:        00169693        slli x13 x13 1
    17318:        00f6f733        and x14 x13 x15
    1731c:        00430313        addi x6 x6 4
    17320:        fe070ae3        beq x14 x0 -12
    17324:        00030613        addi x12 x6 0
    17328:        b95ff06f        jal x0 -1132
    1732c:        010a8a93        addi x21 x21 16
    17330:        cddff06f        jal x0 -804
    17334:        0049a503        lw x10 4 x19
    17338:        40275593        srai x11 x14 2
    1733c:        00100713        addi x14 x0 1
    17340:        00b71733        sll x14 x14 x11
    17344:        00a76733        or x14 x14 x10
    17348:        d8e1ac23        sw x14 -616 x3
    1734c:        e55ff06f        jal x0 -428
    17350:        000017b7        lui x15 0x1
    17354:        fff78713        addi x14 x15 -1
    17358:        015b0a33        add x20 x22 x21
    1735c:        00ea7a33        and x20 x20 x14
    17360:        414787b3        sub x15 x15 x20
    17364:        00e7fa33        and x20 x15 x14
    17368:        000a0593        addi x11 x20 0
    1736c:        00090513        addi x10 x18 0
    17370:        2a0010ef        jal x1 4768 <_sbrk_r>
    17374:        fff00793        addi x15 x0 -1
    17378:        d2f512e3        bne x10 x15 -732
    1737c:        00000a13        addi x20 x0 0
    17380:        d25ff06f        jal x0 -732
    17384:        05400713        addi x14 x0 84
    17388:        08f76063        bltu x14 x15 128
    1738c:        00c5d793        srli x15 x11 12
    17390:        06f78693        addi x13 x15 111
    17394:        06e78713        addi x14 x15 110
    17398:        00369693        slli x13 x13 3
    1739c:        dd9ff06f        jal x0 -552
    173a0:        15400713        addi x14 x0 340
    173a4:        08f76063        bltu x14 x15 128
    173a8:        00f4d793        srli x15 x9 15
    173ac:        07878613        addi x12 x15 120
    173b0:        07778513        addi x10 x15 119
    173b4:        00361693        slli x13 x12 3
    173b8:        a09ff06f        jal x0 -1528
    173bc:        1fc18c93        addi x25 x3 508
    173c0:        000ca783        lw x15 0 x25
    173c4:        00fa8733        add x14 x21 x15
    173c8:        1ee1ae23        sw x14 508 x3
    173cc:        c75ff06f        jal x0 -908
    173d0:        014a1693        slli x13 x20 20
    173d4:        c60696e3        bne x13 x0 -916
    173d8:        0089a403        lw x8 8 x19
    173dc:        015b8ab3        add x21 x23 x21
    173e0:        001aea93        ori x21 x21 1
    173e4:        01542223        sw x21 4 x8
    173e8:        d15ff06f        jal x0 -748
    173ec:        1d61a223        sw x22 452 x3
    173f0:        c69ff06f        jal x0 -920
    173f4:        000b0413        addi x8 x22 0
    173f8:        d05ff06f        jal x0 -764
    173fc:        00100793        addi x15 x0 1
    17400:        00fb2223        sw x15 4 x22
    17404:        eb5ff06f        jal x0 -332
    17408:        15400713        addi x14 x0 340
    1740c:        06f76263        bltu x14 x15 100
    17410:        00f5d793        srli x15 x11 15
    17414:        07878693        addi x13 x15 120
    17418:        07778713        addi x14 x15 119
    1741c:        00369693        slli x13 x13 3
    17420:        d55ff06f        jal x0 -684
    17424:        55400713        addi x14 x0 1364
    17428:        06f76263        bltu x14 x15 100
    1742c:        0124d793        srli x15 x9 18
    17430:        07d78613        addi x12 x15 125
    17434:        07c78513        addi x10 x15 124
    17438:        00361693        slli x13 x12 3
    1743c:        985ff06f        jal x0 -1660
    17440:        ff8c0c13        addi x24 x24 -8
    17444:        018a8ab3        add x21 x21 x24
    17448:        416a8ab3        sub x21 x21 x22
    1744c:        00000a13        addi x20 x0 0
    17450:        c55ff06f        jal x0 -940
    17454:        00840593        addi x11 x8 8
    17458:        00090513        addi x10 x18 0
    1745c:        e58fc0ef        jal x1 -14760 <_free_r>
    17460:        0089a403        lw x8 8 x19
    17464:        000ca783        lw x15 0 x25
    17468:        00442a83        lw x21 4 x8
    1746c:        c91ff06f        jal x0 -880
    17470:        55400713        addi x14 x0 1364
    17474:        02f76463        bltu x14 x15 40
    17478:        0125d793        srli x15 x11 18
    1747c:        07d78693        addi x13 x15 125
    17480:        07c78713        addi x14 x15 124
    17484:        00369693        slli x13 x13 3
    17488:        cedff06f        jal x0 -788
    1748c:        3f800693        addi x13 x0 1016
    17490:        07f00613        addi x12 x0 127
    17494:        07e00513        addi x10 x0 126
    17498:        929ff06f        jal x0 -1752
    1749c:        3f800693        addi x13 x0 1016
    174a0:        07e00713        addi x14 x0 126
    174a4:        cd1ff06f        jal x0 -816
    174a8:        0049a783        lw x15 4 x19
    174ac:        e55ff06f        jal x0 -428

000174b0 <_mbtowc_r>:
    174b0:        c2818793        addi x15 x3 -984
    174b4:        0e47a303        lw x6 228 x15
    174b8:        00030067        jalr x0 x6 0

000174bc <__ascii_mbtowc>:
    174bc:        02058063        beq x11 x0 32
    174c0:        04060263        beq x12 x0 68
    174c4:        04068863        beq x13 x0 80
    174c8:        00064783        lbu x15 0 x12
    174cc:        00f5a023        sw x15 0 x11
    174d0:        00064503        lbu x10 0 x12
    174d4:        00a03533        sltu x10 x0 x10
    174d8:        00008067        jalr x0 x1 0
    174dc:        ff010113        addi x2 x2 -16
    174e0:        00c10593        addi x11 x2 12
    174e4:        02060463        beq x12 x0 40
    174e8:        02068a63        beq x13 x0 52
    174ec:        00064783        lbu x15 0 x12
    174f0:        00f5a023        sw x15 0 x11
    174f4:        00064503        lbu x10 0 x12
    174f8:        00a03533        sltu x10 x0 x10
    174fc:        01010113        addi x2 x2 16
    17500:        00008067        jalr x0 x1 0
    17504:        00000513        addi x10 x0 0
    17508:        00008067        jalr x0 x1 0
    1750c:        00000513        addi x10 x0 0
    17510:        fedff06f        jal x0 -20
    17514:        ffe00513        addi x10 x0 -2
    17518:        00008067        jalr x0 x1 0
    1751c:        ffe00513        addi x10 x0 -2
    17520:        fddff06f        jal x0 -36

00017524 <memchr>:
    17524:        00357793        andi x15 x10 3
    17528:        0ff5f813        andi x16 x11 255
    1752c:        0c078663        beq x15 x0 204
    17530:        fff60793        addi x15 x12 -1
    17534:        04060e63        beq x12 x0 92
    17538:        00054703        lbu x14 0 x10
    1753c:        05070c63        beq x14 x16 88
    17540:        fff00693        addi x13 x0 -1
    17544:        0140006f        jal x0 20
    17548:        fff78793        addi x15 x15 -1
    1754c:        04d78263        beq x15 x13 68
    17550:        00054703        lbu x14 0 x10
    17554:        05070063        beq x14 x16 64
    17558:        00150513        addi x10 x10 1
    1755c:        00357713        andi x14 x10 3
    17560:        fe0714e3        bne x14 x0 -24
    17564:        00300713        addi x14 x0 3
    17568:        02f76863        bltu x14 x15 48
    1756c:        02078263        beq x15 x0 36
    17570:        00054703        lbu x14 0 x10
    17574:        03070063        beq x14 x16 32
    17578:        00f507b3        add x15 x10 x15
    1757c:        00c0006f        jal x0 12
    17580:        00054703        lbu x14 0 x10
    17584:        01070863        beq x14 x16 16
    17588:        00150513        addi x10 x10 1
    1758c:        fea79ae3        bne x15 x10 -12
    17590:        00000513        addi x10 x0 0
    17594:        00008067        jalr x0 x1 0
    17598:        00010737        lui x14 0x10
    1759c:        00859893        slli x17 x11 8
    175a0:        fff70713        addi x14 x14 -1
    175a4:        00e8f8b3        and x17 x17 x14
    175a8:        0ff5f593        andi x11 x11 255
    175ac:        00b8e5b3        or x11 x17 x11
    175b0:        01059893        slli x17 x11 16
    175b4:        00b8e8b3        or x17 x17 x11
    175b8:        80808637        lui x12 0x80808
    175bc:        feff05b7        lui x11 0xfeff0
    175c0:        eff58593        addi x11 x11 -257
    175c4:        08060613        addi x12 x12 128
    175c8:        00300313        addi x6 x0 3
    175cc:        00052703        lw x14 0 x10
    175d0:        00e8c733        xor x14 x17 x14
    175d4:        00b706b3        add x13 x14 x11
    175d8:        fff74713        xori x14 x14 -1
    175dc:        00e6f733        and x14 x13 x14
    175e0:        00c77733        and x14 x14 x12
    175e4:        f80716e3        bne x14 x0 -116
    175e8:        ffc78793        addi x15 x15 -4
    175ec:        00450513        addi x10 x10 4
    175f0:        fcf36ee3        bltu x6 x15 -36
    175f4:        f79ff06f        jal x0 -136
    175f8:        00060793        addi x15 x12 0
    175fc:        f69ff06f        jal x0 -152

00017600 <__malloc_lock>:
    17600:        00008067        jalr x0 x1 0

00017604 <__malloc_unlock>:
    17604:        00008067        jalr x0 x1 0

00017608 <_Balloc>:
    17608:        04c52783        lw x15 76 x10
    1760c:        ff010113        addi x2 x2 -16
    17610:        00812423        sw x8 8 x2
    17614:        00912223        sw x9 4 x2
    17618:        00112623        sw x1 12 x2
    1761c:        01212023        sw x18 0 x2
    17620:        00050413        addi x8 x10 0
    17624:        00058493        addi x9 x11 0
    17628:        02078e63        beq x15 x0 60
    1762c:        00249713        slli x14 x9 2
    17630:        00e787b3        add x15 x15 x14
    17634:        0007a503        lw x10 0 x15
    17638:        04050663        beq x10 x0 76
    1763c:        00052703        lw x14 0 x10
    17640:        00e7a023        sw x14 0 x15
    17644:        00052823        sw x0 16 x10
    17648:        00052623        sw x0 12 x10
    1764c:        00c12083        lw x1 12 x2
    17650:        00812403        lw x8 8 x2
    17654:        00412483        lw x9 4 x2
    17658:        00012903        lw x18 0 x2
    1765c:        01010113        addi x2 x2 16
    17660:        00008067        jalr x0 x1 0
    17664:        02100613        addi x12 x0 33
    17668:        00400593        addi x11 x0 4
    1766c:        688050ef        jal x1 22152 <_calloc_r>
    17670:        04a42623        sw x10 76 x8
    17674:        00050793        addi x15 x10 0
    17678:        fa051ae3        bne x10 x0 -76
    1767c:        00000513        addi x10 x0 0
    17680:        fcdff06f        jal x0 -52
    17684:        00100913        addi x18 x0 1
    17688:        00991933        sll x18 x18 x9
    1768c:        00590613        addi x12 x18 5
    17690:        00261613        slli x12 x12 2
    17694:        00100593        addi x11 x0 1
    17698:        00040513        addi x10 x8 0
    1769c:        658050ef        jal x1 22104 <_calloc_r>
    176a0:        fc050ee3        beq x10 x0 -36
    176a4:        00952223        sw x9 4 x10
    176a8:        01252423        sw x18 8 x10
    176ac:        f99ff06f        jal x0 -104

000176b0 <_Bfree>:
    176b0:        02058063        beq x11 x0 32
    176b4:        0045a703        lw x14 4 x11
    176b8:        04c52783        lw x15 76 x10
    176bc:        00271713        slli x14 x14 2
    176c0:        00e787b3        add x15 x15 x14
    176c4:        0007a703        lw x14 0 x15
    176c8:        00e5a023        sw x14 0 x11
    176cc:        00b7a023        sw x11 0 x15
    176d0:        00008067        jalr x0 x1 0

000176d4 <__multadd>:
    176d4:        fd010113        addi x2 x2 -48
    176d8:        00010837        lui x16 0x10
    176dc:        02812423        sw x8 40 x2
    176e0:        02912223        sw x9 36 x2
    176e4:        03212023        sw x18 32 x2
    176e8:        00058493        addi x9 x11 0
    176ec:        0105a403        lw x8 16 x11
    176f0:        00050913        addi x18 x10 0
    176f4:        02112623        sw x1 44 x2
    176f8:        01312e23        sw x19 28 x2
    176fc:        01458593        addi x11 x11 20
    17700:        00000513        addi x10 x0 0
    17704:        fff80813        addi x16 x16 -1
    17708:        0005a783        lw x15 0 x11
    1770c:        00458593        addi x11 x11 4
    17710:        00150513        addi x10 x10 1
    17714:        0107f733        and x14 x15 x16
    17718:        02c70733        mul x14 x14 x12
    1771c:        0107d793        srli x15 x15 16
    17720:        02c787b3        mul x15 x15 x12
    17724:        00d706b3        add x13 x14 x13
    17728:        0106d893        srli x17 x13 16
    1772c:        0106f733        and x14 x13 x16
    17730:        011786b3        add x13 x15 x17
    17734:        01069793        slli x15 x13 16
    17738:        00e78733        add x14 x15 x14
    1773c:        fee5ae23        sw x14 -4 x11
    17740:        0106d693        srli x13 x13 16
    17744:        fc8542e3        blt x10 x8 -60
    17748:        02068263        beq x13 x0 36
    1774c:        0084a783        lw x15 8 x9
    17750:        02f45e63        bge x8 x15 60
    17754:        00440793        addi x15 x8 4
    17758:        00279793        slli x15 x15 2
    1775c:        00f487b3        add x15 x9 x15
    17760:        00d7a223        sw x13 4 x15
    17764:        00140413        addi x8 x8 1
    17768:        0084a823        sw x8 16 x9
    1776c:        02c12083        lw x1 44 x2
    17770:        02812403        lw x8 40 x2
    17774:        00048513        addi x10 x9 0
    17778:        02012903        lw x18 32 x2
    1777c:        02412483        lw x9 36 x2
    17780:        01c12983        lw x19 28 x2
    17784:        03010113        addi x2 x2 48
    17788:        00008067        jalr x0 x1 0
    1778c:        0044a583        lw x11 4 x9
    17790:        00090513        addi x10 x18 0
    17794:        00d12623        sw x13 12 x2
    17798:        00158593        addi x11 x11 1
    1779c:        e6dff0ef        jal x1 -404 <_Balloc>
    177a0:        0104a603        lw x12 16 x9
    177a4:        00050993        addi x19 x10 0
    177a8:        00c48593        addi x11 x9 12
    177ac:        00260613        addi x12 x12 2
    177b0:        00c50513        addi x10 x10 12
    177b4:        00261613        slli x12 x12 2
    177b8:        6fd050ef        jal x1 24316 <memcpy>
    177bc:        0044a703        lw x14 4 x9
    177c0:        04c92783        lw x15 76 x18
    177c4:        00c12683        lw x13 12 x2
    177c8:        00271713        slli x14 x14 2
    177cc:        00e787b3        add x15 x15 x14
    177d0:        0007a703        lw x14 0 x15
    177d4:        00e4a023        sw x14 0 x9
    177d8:        0097a023        sw x9 0 x15
    177dc:        00440793        addi x15 x8 4
    177e0:        00098493        addi x9 x19 0
    177e4:        00279793        slli x15 x15 2
    177e8:        00f487b3        add x15 x9 x15
    177ec:        00d7a223        sw x13 4 x15
    177f0:        00140413        addi x8 x8 1
    177f4:        0084a823        sw x8 16 x9
    177f8:        f75ff06f        jal x0 -140

000177fc <__s2b>:
    177fc:        fe010113        addi x2 x2 -32
    17800:        00812c23        sw x8 24 x2
    17804:        00912a23        sw x9 20 x2
    17808:        01212823        sw x18 16 x2
    1780c:        01312623        sw x19 12 x2
    17810:        01412423        sw x20 8 x2
    17814:        00068913        addi x18 x13 0
    17818:        00900793        addi x15 x0 9
    1781c:        00868693        addi x13 x13 8
    17820:        00112e23        sw x1 28 x2
    17824:        01512223        sw x21 4 x2
    17828:        00050993        addi x19 x10 0
    1782c:        00058413        addi x8 x11 0
    17830:        00060a13        addi x20 x12 0
    17834:        00070493        addi x9 x14 0
    17838:        02f6c6b3        div x13 x13 x15
    1783c:        0d27d263        bge x15 x18 196
    17840:        00100793        addi x15 x0 1
    17844:        00000593        addi x11 x0 0
    17848:        00179793        slli x15 x15 1
    1784c:        00158593        addi x11 x11 1
    17850:        fed7cce3        blt x15 x13 -8
    17854:        00098513        addi x10 x19 0
    17858:        db1ff0ef        jal x1 -592 <_Balloc>
    1785c:        00100793        addi x15 x0 1
    17860:        00f52823        sw x15 16 x10
    17864:        00952a23        sw x9 20 x10
    17868:        00900793        addi x15 x0 9
    1786c:        0947d463        bge x15 x20 136
    17870:        00940a93        addi x21 x8 9
    17874:        000a8493        addi x9 x21 0
    17878:        01440433        add x8 x8 x20
    1787c:        00148493        addi x9 x9 1
    17880:        fff4c683        lbu x13 -1 x9
    17884:        00050593        addi x11 x10 0
    17888:        00a00613        addi x12 x0 10
    1788c:        fd068693        addi x13 x13 -48
    17890:        00098513        addi x10 x19 0
    17894:        e41ff0ef        jal x1 -448 <__multadd>
    17898:        fe9412e3        bne x8 x9 -28
    1789c:        ff8a0413        addi x8 x20 -8
    178a0:        008a8433        add x8 x21 x8
    178a4:        032a5663        bge x20 x18 44
    178a8:        414904b3        sub x9 x18 x20
    178ac:        009404b3        add x9 x8 x9
    178b0:        00140413        addi x8 x8 1
    178b4:        fff44683        lbu x13 -1 x8
    178b8:        00050593        addi x11 x10 0
    178bc:        00a00613        addi x12 x0 10
    178c0:        fd068693        addi x13 x13 -48
    178c4:        00098513        addi x10 x19 0
    178c8:        e0dff0ef        jal x1 -500 <__multadd>
    178cc:        fe8492e3        bne x9 x8 -28
    178d0:        01c12083        lw x1 28 x2
    178d4:        01812403        lw x8 24 x2
    178d8:        01412483        lw x9 20 x2
    178dc:        01012903        lw x18 16 x2
    178e0:        00c12983        lw x19 12 x2
    178e4:        00812a03        lw x20 8 x2
    178e8:        00412a83        lw x21 4 x2
    178ec:        02010113        addi x2 x2 32
    178f0:        00008067        jalr x0 x1 0
    178f4:        00a40413        addi x8 x8 10
    178f8:        00900a13        addi x20 x0 9
    178fc:        fa9ff06f        jal x0 -88
    17900:        00000593        addi x11 x0 0
    17904:        f51ff06f        jal x0 -176

00017908 <__hi0bits>:
    17908:        ffff0737        lui x14 0xffff0
    1790c:        00e57733        and x14 x10 x14
    17910:        00050793        addi x15 x10 0
    17914:        00000513        addi x10 x0 0
    17918:        00071663        bne x14 x0 12
    1791c:        01079793        slli x15 x15 16
    17920:        01000513        addi x10 x0 16
    17924:        ff000737        lui x14 0xff000
    17928:        00e7f733        and x14 x15 x14
    1792c:        00071663        bne x14 x0 12
    17930:        00850513        addi x10 x10 8
    17934:        00879793        slli x15 x15 8
    17938:        f0000737        lui x14 0xf0000
    1793c:        00e7f733        and x14 x15 x14
    17940:        00071663        bne x14 x0 12
    17944:        00450513        addi x10 x10 4
    17948:        00479793        slli x15 x15 4
    1794c:        c0000737        lui x14 0xc0000
    17950:        00e7f733        and x14 x15 x14
    17954:        00071663        bne x14 x0 12
    17958:        00250513        addi x10 x10 2
    1795c:        00279793        slli x15 x15 2
    17960:        0007c863        blt x15 x0 16
    17964:        00179713        slli x14 x15 1
    17968:        00150513        addi x10 x10 1
    1796c:        00075463        bge x14 x0 8
    17970:        00008067        jalr x0 x1 0
    17974:        02000513        addi x10 x0 32
    17978:        00008067        jalr x0 x1 0

0001797c <__lo0bits>:
    1797c:        00052783        lw x15 0 x10
    17980:        0077f713        andi x14 x15 7
    17984:        02070663        beq x14 x0 44
    17988:        0017f693        andi x13 x15 1
    1798c:        00000713        addi x14 x0 0
    17990:        00069c63        bne x13 x0 24
    17994:        0027f713        andi x14 x15 2
    17998:        08070463        beq x14 x0 136
    1799c:        0017d793        srli x15 x15 1
    179a0:        00f52023        sw x15 0 x10
    179a4:        00100713        addi x14 x0 1
    179a8:        00070513        addi x10 x14 0
    179ac:        00008067        jalr x0 x1 0
    179b0:        01079693        slli x13 x15 16
    179b4:        0106d693        srli x13 x13 16
    179b8:        00000713        addi x14 x0 0
    179bc:        00069663        bne x13 x0 12
    179c0:        0107d793        srli x15 x15 16
    179c4:        01000713        addi x14 x0 16
    179c8:        0ff7f693        andi x13 x15 255
    179cc:        00069663        bne x13 x0 12
    179d0:        00870713        addi x14 x14 8
    179d4:        0087d793        srli x15 x15 8
    179d8:        00f7f693        andi x13 x15 15
    179dc:        00069663        bne x13 x0 12
    179e0:        00470713        addi x14 x14 4
    179e4:        0047d793        srli x15 x15 4
    179e8:        0037f693        andi x13 x15 3
    179ec:        00069663        bne x13 x0 12
    179f0:        00270713        addi x14 x14 2
    179f4:        0027d793        srli x15 x15 2
    179f8:        0017f693        andi x13 x15 1
    179fc:        00069863        bne x13 x0 16
    17a00:        0017d793        srli x15 x15 1
    17a04:        00170713        addi x14 x14 1
    17a08:        00078863        beq x15 x0 16
    17a0c:        00f52023        sw x15 0 x10
    17a10:        00070513        addi x10 x14 0
    17a14:        00008067        jalr x0 x1 0
    17a18:        02000713        addi x14 x0 32
    17a1c:        f8dff06f        jal x0 -116
    17a20:        0027d793        srli x15 x15 2
    17a24:        00200713        addi x14 x0 2
    17a28:        00f52023        sw x15 0 x10
    17a2c:        00070513        addi x10 x14 0
    17a30:        00008067        jalr x0 x1 0

00017a34 <__i2b>:
    17a34:        ff010113        addi x2 x2 -16
    17a38:        00812423        sw x8 8 x2
    17a3c:        00058413        addi x8 x11 0
    17a40:        00100593        addi x11 x0 1
    17a44:        00112623        sw x1 12 x2
    17a48:        bc1ff0ef        jal x1 -1088 <_Balloc>
    17a4c:        00852a23        sw x8 20 x10
    17a50:        00c12083        lw x1 12 x2
    17a54:        00812403        lw x8 8 x2
    17a58:        00100713        addi x14 x0 1
    17a5c:        00e52823        sw x14 16 x10
    17a60:        01010113        addi x2 x2 16
    17a64:        00008067        jalr x0 x1 0

00017a68 <__multiply>:
    17a68:        fe010113        addi x2 x2 -32
    17a6c:        01312623        sw x19 12 x2
    17a70:        01412423        sw x20 8 x2
    17a74:        0105a983        lw x19 16 x11
    17a78:        01062a03        lw x20 16 x12
    17a7c:        00912a23        sw x9 20 x2
    17a80:        01212823        sw x18 16 x2
    17a84:        00112e23        sw x1 28 x2
    17a88:        00812c23        sw x8 24 x2
    17a8c:        00058493        addi x9 x11 0
    17a90:        00060913        addi x18 x12 0
    17a94:        0149cc63        blt x19 x20 24
    17a98:        000a0713        addi x14 x20 0
    17a9c:        00058913        addi x18 x11 0
    17aa0:        00098a13        addi x20 x19 0
    17aa4:        00060493        addi x9 x12 0
    17aa8:        00070993        addi x19 x14 0
    17aac:        00892783        lw x15 8 x18
    17ab0:        00492583        lw x11 4 x18
    17ab4:        013a0433        add x8 x20 x19
    17ab8:        0087a7b3        slt x15 x15 x8
    17abc:        00f585b3        add x11 x11 x15
    17ac0:        b49ff0ef        jal x1 -1208 <_Balloc>
    17ac4:        01450e13        addi x28 x10 20
    17ac8:        00241313        slli x6 x8 2
    17acc:        006e0333        add x6 x28 x6
    17ad0:        000e0793        addi x15 x28 0
    17ad4:        006e7863        bgeu x28 x6 16
    17ad8:        0007a023        sw x0 0 x15
    17adc:        00478793        addi x15 x15 4
    17ae0:        fe67ece3        bltu x15 x6 -8
    17ae4:        01448593        addi x11 x9 20
    17ae8:        00299e93        slli x29 x19 2
    17aec:        01490613        addi x12 x18 20
    17af0:        002a1893        slli x17 x20 2
    17af4:        00010837        lui x16 0x10
    17af8:        01d58eb3        add x29 x11 x29
    17afc:        011608b3        add x17 x12 x17
    17b00:        fff80813        addi x16 x16 -1
    17b04:        01d5ee63        bltu x11 x29 28
    17b08:        10c0006f        jal x0 268
    17b0c:        010fdf93        srli x31 x31 16
    17b10:        080f9663        bne x31 x0 140
    17b14:        00458593        addi x11 x11 4
    17b18:        004e0e13        addi x28 x28 4
    17b1c:        0fd5fc63        bgeu x11 x29 248
    17b20:        0005af83        lw x31 0 x11
    17b24:        010ff3b3        and x7 x31 x16
    17b28:        fe0382e3        beq x7 x0 -28
    17b2c:        000e0f93        addi x31 x28 0
    17b30:        00060293        addi x5 x12 0
    17b34:        00000493        addi x9 x0 0
    17b38:        0002a703        lw x14 0 x5
    17b3c:        000faf03        lw x30 0 x31
    17b40:        004f8f93        addi x31 x31 4
    17b44:        010776b3        and x13 x14 x16
    17b48:        027686b3        mul x13 x13 x7
    17b4c:        01075793        srli x15 x14 16
    17b50:        010f7733        and x14 x30 x16
    17b54:        010f5f13        srli x30 x30 16
    17b58:        00428293        addi x5 x5 4
    17b5c:        027787b3        mul x15 x15 x7
    17b60:        00e686b3        add x13 x13 x14
    17b64:        009686b3        add x13 x13 x9
    17b68:        0106d713        srli x14 x13 16
    17b6c:        0106f6b3        and x13 x13 x16
    17b70:        01e787b3        add x15 x15 x30
    17b74:        00e787b3        add x15 x15 x14
    17b78:        01079713        slli x14 x15 16
    17b7c:        00d766b3        or x13 x14 x13
    17b80:        fedfae23        sw x13 -4 x31
    17b84:        0107d493        srli x9 x15 16
    17b88:        fb12e8e3        bltu x5 x17 -80
    17b8c:        009fa023        sw x9 0 x31
    17b90:        0005af83        lw x31 0 x11
    17b94:        010fdf93        srli x31 x31 16
    17b98:        f60f8ee3        beq x31 x0 -132
    17b9c:        000e2703        lw x14 0 x28
    17ba0:        000e0f13        addi x30 x28 0
    17ba4:        00060693        addi x13 x12 0
    17ba8:        00070393        addi x7 x14 0
    17bac:        00000293        addi x5 x0 0
    17bb0:        0006a783        lw x15 0 x13
    17bb4:        0103d913        srli x18 x7 16
    17bb8:        01077733        and x14 x14 x16
    17bbc:        0107f7b3        and x15 x15 x16
    17bc0:        03f787b3        mul x15 x15 x31
    17bc4:        004f0f13        addi x30 x30 4
    17bc8:        00468693        addi x13 x13 4
    17bcc:        000f2383        lw x7 0 x30
    17bd0:        0103f4b3        and x9 x7 x16
    17bd4:        012787b3        add x15 x15 x18
    17bd8:        005787b3        add x15 x15 x5
    17bdc:        01079293        slli x5 x15 16
    17be0:        00e2e733        or x14 x5 x14
    17be4:        feef2e23        sw x14 -4 x30
    17be8:        ffe6d703        lhu x14 -2 x13
    17bec:        0107d793        srli x15 x15 16
    17bf0:        03f70733        mul x14 x14 x31
    17bf4:        00970733        add x14 x14 x9
    17bf8:        00f70733        add x14 x14 x15
    17bfc:        01075293        srli x5 x14 16
    17c00:        fb16e8e3        bltu x13 x17 -80
    17c04:        00ef2023        sw x14 0 x30
    17c08:        00458593        addi x11 x11 4
    17c0c:        004e0e13        addi x28 x28 4
    17c10:        f1d5e8e3        bltu x11 x29 -240
    17c14:        02805463        bge x0 x8 40
    17c18:        ffc32783        lw x15 -4 x6
    17c1c:        ffc30313        addi x6 x6 -4
    17c20:        00078863        beq x15 x0 16
    17c24:        0180006f        jal x0 24
    17c28:        00032783        lw x15 0 x6
    17c2c:        00079863        bne x15 x0 16
    17c30:        fff40413        addi x8 x8 -1
    17c34:        ffc30313        addi x6 x6 -4
    17c38:        fe0418e3        bne x8 x0 -16
    17c3c:        00852823        sw x8 16 x10
    17c40:        01c12083        lw x1 28 x2
    17c44:        01812403        lw x8 24 x2
    17c48:        01412483        lw x9 20 x2
    17c4c:        01012903        lw x18 16 x2
    17c50:        00c12983        lw x19 12 x2
    17c54:        00812a03        lw x20 8 x2
    17c58:        02010113        addi x2 x2 32
    17c5c:        00008067        jalr x0 x1 0

00017c60 <__pow5mult>:
    17c60:        fe010113        addi x2 x2 -32
    17c64:        00812c23        sw x8 24 x2
    17c68:        01312623        sw x19 12 x2
    17c6c:        01412423        sw x20 8 x2
    17c70:        00112e23        sw x1 28 x2
    17c74:        00912a23        sw x9 20 x2
    17c78:        01212823        sw x18 16 x2
    17c7c:        00367793        andi x15 x12 3
    17c80:        00060413        addi x8 x12 0
    17c84:        00050993        addi x19 x10 0
    17c88:        00058a13        addi x20 x11 0
    17c8c:        0c079463        bne x15 x0 200
    17c90:        40245413        srai x8 x8 2
    17c94:        000a0913        addi x18 x20 0
    17c98:        06040863        beq x8 x0 112
    17c9c:        0489a483        lw x9 72 x19
    17ca0:        0c048e63        beq x9 x0 220
    17ca4:        00147793        andi x15 x8 1
    17ca8:        000a0913        addi x18 x20 0
    17cac:        02079063        bne x15 x0 32
    17cb0:        40145413        srai x8 x8 1
    17cb4:        04040a63        beq x8 x0 84
    17cb8:        0004a503        lw x10 0 x9
    17cbc:        06050863        beq x10 x0 112
    17cc0:        00050493        addi x9 x10 0
    17cc4:        00147793        andi x15 x8 1
    17cc8:        fe0784e3        beq x15 x0 -24
    17ccc:        00048613        addi x12 x9 0
    17cd0:        00090593        addi x11 x18 0
    17cd4:        00098513        addi x10 x19 0
    17cd8:        d91ff0ef        jal x1 -624 <__multiply>
    17cdc:        06090863        beq x18 x0 112
    17ce0:        00492703        lw x14 4 x18
    17ce4:        04c9a783        lw x15 76 x19
    17ce8:        40145413        srai x8 x8 1
    17cec:        00271713        slli x14 x14 2
    17cf0:        00e787b3        add x15 x15 x14
    17cf4:        0007a703        lw x14 0 x15
    17cf8:        00e92023        sw x14 0 x18
    17cfc:        0127a023        sw x18 0 x15
    17d00:        00050913        addi x18 x10 0
    17d04:        fa041ae3        bne x8 x0 -76
    17d08:        01c12083        lw x1 28 x2
    17d0c:        01812403        lw x8 24 x2
    17d10:        00090513        addi x10 x18 0
    17d14:        01412483        lw x9 20 x2
    17d18:        01012903        lw x18 16 x2
    17d1c:        00c12983        lw x19 12 x2
    17d20:        00812a03        lw x20 8 x2
    17d24:        02010113        addi x2 x2 32
    17d28:        00008067        jalr x0 x1 0
    17d2c:        00048613        addi x12 x9 0
    17d30:        00048593        addi x11 x9 0
    17d34:        00098513        addi x10 x19 0
    17d38:        d31ff0ef        jal x1 -720 <__multiply>
    17d3c:        00a4a023        sw x10 0 x9
    17d40:        00052023        sw x0 0 x10
    17d44:        00050493        addi x9 x10 0
    17d48:        f7dff06f        jal x0 -132
    17d4c:        00050913        addi x18 x10 0
    17d50:        f61ff06f        jal x0 -160
    17d54:        fff78793        addi x15 x15 -1
    17d58:        0000c717        auipc x14 0xc
    17d5c:        5f870713        addi x14 x14 1528
    17d60:        00279793        slli x15 x15 2
    17d64:        00f707b3        add x15 x14 x15
    17d68:        0007a603        lw x12 0 x15
    17d6c:        00000693        addi x13 x0 0
    17d70:        965ff0ef        jal x1 -1692 <__multadd>
    17d74:        00050a13        addi x20 x10 0
    17d78:        f19ff06f        jal x0 -232
    17d7c:        00100593        addi x11 x0 1
    17d80:        00098513        addi x10 x19 0
    17d84:        885ff0ef        jal x1 -1916 <_Balloc>
    17d88:        27100793        addi x15 x0 625
    17d8c:        00f52a23        sw x15 20 x10
    17d90:        00100793        addi x15 x0 1
    17d94:        00f52823        sw x15 16 x10
    17d98:        04a9a423        sw x10 72 x19
    17d9c:        00050493        addi x9 x10 0
    17da0:        00052023        sw x0 0 x10
    17da4:        f01ff06f        jal x0 -256

00017da8 <__lshift>:
    17da8:        fe010113        addi x2 x2 -32
    17dac:        01412423        sw x20 8 x2
    17db0:        0105aa03        lw x20 16 x11
    17db4:        00912a23        sw x9 20 x2
    17db8:        0085a783        lw x15 8 x11
    17dbc:        40565493        srai x9 x12 5
    17dc0:        01448a33        add x20 x9 x20
    17dc4:        00812c23        sw x8 24 x2
    17dc8:        01212823        sw x18 16 x2
    17dcc:        01312623        sw x19 12 x2
    17dd0:        01512223        sw x21 4 x2
    17dd4:        00112e23        sw x1 28 x2
    17dd8:        001a0413        addi x8 x20 1
    17ddc:        00058993        addi x19 x11 0
    17de0:        00060913        addi x18 x12 0
    17de4:        00050a93        addi x21 x10 0
    17de8:        0045a583        lw x11 4 x11
    17dec:        0087d863        bge x15 x8 16
    17df0:        00179793        slli x15 x15 1
    17df4:        00158593        addi x11 x11 1
    17df8:        fe87cce3        blt x15 x8 -8
    17dfc:        000a8513        addi x10 x21 0
    17e00:        809ff0ef        jal x1 -2040 <_Balloc>
    17e04:        01450713        addi x14 x10 20
    17e08:        02905463        bge x0 x9 40
    17e0c:        00548493        addi x9 x9 5
    17e10:        00249493        slli x9 x9 2
    17e14:        009506b3        add x13 x10 x9
    17e18:        00070793        addi x15 x14 0
    17e1c:        00478793        addi x15 x15 4
    17e20:        fe07ae23        sw x0 -4 x15
    17e24:        fef69ce3        bne x13 x15 -8
    17e28:        fec48493        addi x9 x9 -20
    17e2c:        00970733        add x14 x14 x9
    17e30:        0109a803        lw x16 16 x19
    17e34:        01498793        addi x15 x19 20
    17e38:        01f97613        andi x12 x18 31
    17e3c:        00281813        slli x16 x16 2
    17e40:        01078833        add x16 x15 x16
    17e44:        08060263        beq x12 x0 132
    17e48:        02000893        addi x17 x0 32
    17e4c:        40c888b3        sub x17 x17 x12
    17e50:        00000593        addi x11 x0 0
    17e54:        0007a683        lw x13 0 x15
    17e58:        00470713        addi x14 x14 4
    17e5c:        00478793        addi x15 x15 4
    17e60:        00c696b3        sll x13 x13 x12
    17e64:        00b6e6b3        or x13 x13 x11
    17e68:        fed72e23        sw x13 -4 x14
    17e6c:        ffc7a683        lw x13 -4 x15
    17e70:        0116d5b3        srl x11 x13 x17
    17e74:        ff07e0e3        bltu x15 x16 -32
    17e78:        00b72023        sw x11 0 x14
    17e7c:        00058463        beq x11 x0 8
    17e80:        00040a13        addi x20 x8 0
    17e84:        0049a703        lw x14 4 x19
    17e88:        04caa783        lw x15 76 x21
    17e8c:        01c12083        lw x1 28 x2
    17e90:        00271713        slli x14 x14 2
    17e94:        00e787b3        add x15 x15 x14
    17e98:        0007a703        lw x14 0 x15
    17e9c:        01452823        sw x20 16 x10
    17ea0:        01812403        lw x8 24 x2
    17ea4:        00e9a023        sw x14 0 x19
    17ea8:        0137a023        sw x19 0 x15
    17eac:        01412483        lw x9 20 x2
    17eb0:        01012903        lw x18 16 x2
    17eb4:        00c12983        lw x19 12 x2
    17eb8:        00812a03        lw x20 8 x2
    17ebc:        00412a83        lw x21 4 x2
    17ec0:        02010113        addi x2 x2 32
    17ec4:        00008067        jalr x0 x1 0
    17ec8:        00478793        addi x15 x15 4
    17ecc:        ffc7a683        lw x13 -4 x15
    17ed0:        00470713        addi x14 x14 4
    17ed4:        fed72e23        sw x13 -4 x14
    17ed8:        fb07f6e3        bgeu x15 x16 -84
    17edc:        00478793        addi x15 x15 4
    17ee0:        ffc7a683        lw x13 -4 x15
    17ee4:        00470713        addi x14 x14 4
    17ee8:        fed72e23        sw x13 -4 x14
    17eec:        fd07eee3        bltu x15 x16 -36
    17ef0:        f95ff06f        jal x0 -108

00017ef4 <__mcmp>:
    17ef4:        00050613        addi x12 x10 0
    17ef8:        0105a783        lw x15 16 x11
    17efc:        01052503        lw x10 16 x10
    17f00:        40f50533        sub x10 x10 x15
    17f04:        04051463        bne x10 x0 72
    17f08:        00279713        slli x14 x15 2
    17f0c:        01460613        addi x12 x12 20
    17f10:        01458593        addi x11 x11 20
    17f14:        00e607b3        add x15 x12 x14
    17f18:        00e585b3        add x11 x11 x14
    17f1c:        0080006f        jal x0 8
    17f20:        02f67663        bgeu x12 x15 44
    17f24:        ffc78793        addi x15 x15 -4
    17f28:        ffc58593        addi x11 x11 -4
    17f2c:        0007a703        lw x14 0 x15
    17f30:        0005a683        lw x13 0 x11
    17f34:        fed706e3        beq x14 x13 -20
    17f38:        00d73733        sltu x14 x14 x13
    17f3c:        40e00533        sub x10 x0 x14
    17f40:        ffe57513        andi x10 x10 -2
    17f44:        00150513        addi x10 x10 1
    17f48:        00008067        jalr x0 x1 0
    17f4c:        00008067        jalr x0 x1 0

00017f50 <__mdiff>:
    17f50:        fe010113        addi x2 x2 -32
    17f54:        01212823        sw x18 16 x2
    17f58:        01062703        lw x14 16 x12
    17f5c:        0105a903        lw x18 16 x11
    17f60:        00812c23        sw x8 24 x2
    17f64:        00912a23        sw x9 20 x2
    17f68:        01312623        sw x19 12 x2
    17f6c:        01412423        sw x20 8 x2
    17f70:        00112e23        sw x1 28 x2
    17f74:        40e90933        sub x18 x18 x14
    17f78:        00058993        addi x19 x11 0
    17f7c:        00060a13        addi x20 x12 0
    17f80:        01458413        addi x8 x11 20
    17f84:        01460493        addi x9 x12 20
    17f88:        04091863        bne x18 x0 80
    17f8c:        00271713        slli x14 x14 2
    17f90:        00e407b3        add x15 x8 x14
    17f94:        00e48733        add x14 x9 x14
    17f98:        0080006f        jal x0 8
    17f9c:        16f47263        bgeu x8 x15 356
    17fa0:        ffc78793        addi x15 x15 -4
    17fa4:        ffc70713        addi x14 x14 -4
    17fa8:        0007a583        lw x11 0 x15
    17fac:        00072683        lw x13 0 x14
    17fb0:        fed586e3        beq x11 x13 -20
    17fb4:        02d5f663        bgeu x11 x13 44
    17fb8:        00040713        addi x14 x8 0
    17fbc:        00098793        addi x15 x19 0
    17fc0:        00048413        addi x8 x9 0
    17fc4:        000a0993        addi x19 x20 0
    17fc8:        00070493        addi x9 x14 0
    17fcc:        00078a13        addi x20 x15 0
    17fd0:        00100913        addi x18 x0 1
    17fd4:        00c0006f        jal x0 12
    17fd8:        fe0940e3        blt x18 x0 -32
    17fdc:        00000913        addi x18 x0 0
    17fe0:        0049a583        lw x11 4 x19
    17fe4:        e24ff0ef        jal x1 -2524 <_Balloc>
    17fe8:        0109a303        lw x6 16 x19
    17fec:        010a2e83        lw x29 16 x20
    17ff0:        00010637        lui x12 0x10
    17ff4:        00231e13        slli x28 x6 2
    17ff8:        002e9e93        slli x29 x29 2
    17ffc:        01252623        sw x18 12 x10
    18000:        01c40e33        add x28 x8 x28
    18004:        01d48eb3        add x29 x9 x29
    18008:        01450813        addi x16 x10 20
    1800c:        00000793        addi x15 x0 0
    18010:        fff60613        addi x12 x12 -1
    18014:        0080006f        jal x0 8
    18018:        00088813        addi x16 x17 0
    1801c:        00042703        lw x14 0 x8
    18020:        0004a583        lw x11 0 x9
    18024:        00480893        addi x17 x16 4
    18028:        00c776b3        and x13 x14 x12
    1802c:        00f686b3        add x13 x13 x15
    18030:        00c5f7b3        and x15 x11 x12
    18034:        40f686b3        sub x13 x13 x15
    18038:        0105d593        srli x11 x11 16
    1803c:        01075793        srli x15 x14 16
    18040:        40b787b3        sub x15 x15 x11
    18044:        4106d713        srai x14 x13 16
    18048:        00e787b3        add x15 x15 x14
    1804c:        01079713        slli x14 x15 16
    18050:        00c6f6b3        and x13 x13 x12
    18054:        00d766b3        or x13 x14 x13
    18058:        00448493        addi x9 x9 4
    1805c:        fed8ae23        sw x13 -4 x17
    18060:        00440413        addi x8 x8 4
    18064:        4107d793        srai x15 x15 16
    18068:        fbd4e8e3        bltu x9 x29 -80
    1806c:        05c47e63        bgeu x8 x28 92
    18070:        00010eb7        lui x29 0x10
    18074:        00088813        addi x16 x17 0
    18078:        00040593        addi x11 x8 0
    1807c:        fffe8e93        addi x29 x29 -1
    18080:        0005a703        lw x14 0 x11
    18084:        00480813        addi x16 x16 4
    18088:        00458593        addi x11 x11 4
    1808c:        01d77633        and x12 x14 x29
    18090:        00f60633        add x12 x12 x15
    18094:        41065693        srai x13 x12 16
    18098:        01075793        srli x15 x14 16
    1809c:        00d787b3        add x15 x15 x13
    180a0:        01079693        slli x13 x15 16
    180a4:        01d67633        and x12 x12 x29
    180a8:        00c6e6b3        or x13 x13 x12
    180ac:        fed82e23        sw x13 -4 x16
    180b0:        4107d793        srai x15 x15 16
    180b4:        fdc5e6e3        bltu x11 x28 -52
    180b8:        fffe0813        addi x16 x28 -1
    180bc:        40880833        sub x16 x16 x8
    180c0:        ffc87813        andi x16 x16 -4
    180c4:        01088833        add x16 x17 x16
    180c8:        00069a63        bne x13 x0 20
    180cc:        ffc80813        addi x16 x16 -4
    180d0:        00082783        lw x15 0 x16
    180d4:        fff30313        addi x6 x6 -1
    180d8:        fe078ae3        beq x15 x0 -12
    180dc:        01c12083        lw x1 28 x2
    180e0:        01812403        lw x8 24 x2
    180e4:        00652823        sw x6 16 x10
    180e8:        01412483        lw x9 20 x2
    180ec:        01012903        lw x18 16 x2
    180f0:        00c12983        lw x19 12 x2
    180f4:        00812a03        lw x20 8 x2
    180f8:        02010113        addi x2 x2 32
    180fc:        00008067        jalr x0 x1 0
    18100:        00000593        addi x11 x0 0
    18104:        d04ff0ef        jal x1 -2812 <_Balloc>
    18108:        01c12083        lw x1 28 x2
    1810c:        01812403        lw x8 24 x2
    18110:        00100793        addi x15 x0 1
    18114:        00f52823        sw x15 16 x10
    18118:        00052a23        sw x0 20 x10
    1811c:        01412483        lw x9 20 x2
    18120:        01012903        lw x18 16 x2
    18124:        00c12983        lw x19 12 x2
    18128:        00812a03        lw x20 8 x2
    1812c:        02010113        addi x2 x2 32
    18130:        00008067        jalr x0 x1 0

00018134 <__ulp>:
    18134:        7ff007b7        lui x15 0x7ff00
    18138:        00b7f5b3        and x11 x15 x11
    1813c:        fcc007b7        lui x15 0xfcc00
    18140:        00f585b3        add x11 x11 x15
    18144:        00b05863        bge x0 x11 16
    18148:        00000793        addi x15 x0 0
    1814c:        00078513        addi x10 x15 0
    18150:        00008067        jalr x0 x1 0
    18154:        40b005b3        sub x11 x0 x11
    18158:        4145d593        srai x11 x11 20
    1815c:        01300793        addi x15 x0 19
    18160:        00b7c863        blt x15 x11 16
    18164:        000807b7        lui x15 0x80
    18168:        40b7d5b3        sra x11 x15 x11
    1816c:        fddff06f        jal x0 -36
    18170:        fec58713        addi x14 x11 -20
    18174:        01e00693        addi x13 x0 30
    18178:        00000593        addi x11 x0 0
    1817c:        00100793        addi x15 x0 1
    18180:        fce6c6e3        blt x13 x14 -52
    18184:        800007b7        lui x15 0x80000
    18188:        00e7d7b3        srl x15 x15 x14
    1818c:        00078513        addi x10 x15 0
    18190:        00008067        jalr x0 x1 0

00018194 <__b2d>:
    18194:        fe010113        addi x2 x2 -32
    18198:        00812c23        sw x8 24 x2
    1819c:        01052403        lw x8 16 x10
    181a0:        00912a23        sw x9 20 x2
    181a4:        01450493        addi x9 x10 20
    181a8:        00241413        slli x8 x8 2
    181ac:        00848433        add x8 x9 x8
    181b0:        01212823        sw x18 16 x2
    181b4:        ffc42903        lw x18 -4 x8
    181b8:        01312623        sw x19 12 x2
    181bc:        01412423        sw x20 8 x2
    181c0:        00090513        addi x10 x18 0
    181c4:        00058a13        addi x20 x11 0
    181c8:        00112e23        sw x1 28 x2
    181cc:        f3cff0ef        jal x1 -2244 <__hi0bits>
    181d0:        02000713        addi x14 x0 32
    181d4:        40a707b3        sub x15 x14 x10
    181d8:        00fa2023        sw x15 0 x20
    181dc:        00a00793        addi x15 x0 10
    181e0:        ffc40993        addi x19 x8 -4
    181e4:        08a7d063        bge x15 x10 128
    181e8:        ff550513        addi x10 x10 -11
    181ec:        0534f063        bgeu x9 x19 64
    181f0:        ff842783        lw x15 -8 x8
    181f4:        04050063        beq x10 x0 64
    181f8:        40a70633        sub x12 x14 x10
    181fc:        00c7d733        srl x14 x15 x12
    18200:        00a916b3        sll x13 x18 x10
    18204:        00e6e6b3        or x13 x13 x14
    18208:        ff840593        addi x11 x8 -8
    1820c:        3ff00737        lui x14 0x3ff00
    18210:        00e6e6b3        or x13 x13 x14
    18214:        00a797b3        sll x15 x15 x10
    18218:        02b4f263        bgeu x9 x11 36
    1821c:        ff442703        lw x14 -12 x8
    18220:        00c75733        srl x14 x14 x12
    18224:        00e7e7b3        or x15 x15 x14
    18228:        0140006f        jal x0 20
    1822c:        00000793        addi x15 x0 0
    18230:        06051463        bne x10 x0 104
    18234:        3ff00737        lui x14 0x3ff00
    18238:        00e966b3        or x13 x18 x14
    1823c:        01c12083        lw x1 28 x2
    18240:        01812403        lw x8 24 x2
    18244:        01412483        lw x9 20 x2
    18248:        01012903        lw x18 16 x2
    1824c:        00c12983        lw x19 12 x2
    18250:        00812a03        lw x20 8 x2
    18254:        00078513        addi x10 x15 0
    18258:        00068593        addi x11 x13 0
    1825c:        02010113        addi x2 x2 32
    18260:        00008067        jalr x0 x1 0
    18264:        00b00613        addi x12 x0 11
    18268:        40a60633        sub x12 x12 x10
    1826c:        00c95733        srl x14 x18 x12
    18270:        3ff006b7        lui x13 0x3ff00
    18274:        00d766b3        or x13 x14 x13
    18278:        00000713        addi x14 x0 0
    1827c:        0134f663        bgeu x9 x19 12
    18280:        ff842703        lw x14 -8 x8
    18284:        00c75733        srl x14 x14 x12
    18288:        01550513        addi x10 x10 21
    1828c:        00a91533        sll x10 x18 x10
    18290:        00e567b3        or x15 x10 x14
    18294:        fa9ff06f        jal x0 -88
    18298:        00a91533        sll x10 x18 x10
    1829c:        3ff00737        lui x14 0x3ff00
    182a0:        00e566b3        or x13 x10 x14
    182a4:        00000793        addi x15 x0 0
    182a8:        f95ff06f        jal x0 -108

000182ac <__d2b>:
    182ac:        fd010113        addi x2 x2 -48
    182b0:        01512a23        sw x21 20 x2
    182b4:        00058a93        addi x21 x11 0
    182b8:        00100593        addi x11 x0 1
    182bc:        02812423        sw x8 40 x2
    182c0:        02912223        sw x9 36 x2
    182c4:        03212023        sw x18 32 x2
    182c8:        00060493        addi x9 x12 0
    182cc:        01312e23        sw x19 28 x2
    182d0:        01412c23        sw x20 24 x2
    182d4:        02112623        sw x1 44 x2
    182d8:        00068a13        addi x20 x13 0
    182dc:        00070993        addi x19 x14 0
    182e0:        b28ff0ef        jal x1 -3288 <_Balloc>
    182e4:        00100637        lui x12 0x100
    182e8:        0144d413        srli x8 x9 20
    182ec:        fff60793        addi x15 x12 -1
    182f0:        7ff47413        andi x8 x8 2047
    182f4:        00050913        addi x18 x10 0
    182f8:        0097f7b3        and x15 x15 x9
    182fc:        00040463        beq x8 x0 8
    18300:        00c7e7b3        or x15 x15 x12
    18304:        00f12623        sw x15 12 x2
    18308:        080a8e63        beq x21 x0 156
    1830c:        00810513        addi x10 x2 8
    18310:        01512423        sw x21 8 x2
    18314:        e68ff0ef        jal x1 -2456 <__lo0bits>
    18318:        00050793        addi x15 x10 0
    1831c:        00c12703        lw x14 12 x2
    18320:        06051063        bne x10 x0 96
    18324:        00812683        lw x13 8 x2
    18328:        00d92a23        sw x13 20 x18
    1832c:        00e034b3        sltu x9 x0 x14
    18330:        00148493        addi x9 x9 1
    18334:        00e92c23        sw x14 24 x18
    18338:        00992823        sw x9 16 x18
    1833c:        08040663        beq x8 x0 140
    18340:        bcd40413        addi x8 x8 -1075
    18344:        00f40433        add x8 x8 x15
    18348:        03500713        addi x14 x0 53
    1834c:        008a2023        sw x8 0 x20
    18350:        40f707b3        sub x15 x14 x15
    18354:        00f9a023        sw x15 0 x19
    18358:        02c12083        lw x1 44 x2
    1835c:        02812403        lw x8 40 x2
    18360:        00090513        addi x10 x18 0
    18364:        02412483        lw x9 36 x2
    18368:        02012903        lw x18 32 x2
    1836c:        01c12983        lw x19 28 x2
    18370:        01812a03        lw x20 24 x2
    18374:        01412a83        lw x21 20 x2
    18378:        03010113        addi x2 x2 48
    1837c:        00008067        jalr x0 x1 0
    18380:        02000693        addi x13 x0 32
    18384:        00812603        lw x12 8 x2
    18388:        40a686b3        sub x13 x13 x10
    1838c:        00d716b3        sll x13 x14 x13
    18390:        00c6e6b3        or x13 x13 x12
    18394:        00a75733        srl x14 x14 x10
    18398:        00d92a23        sw x13 20 x18
    1839c:        00e12623        sw x14 12 x2
    183a0:        f8dff06f        jal x0 -116
    183a4:        00c10513        addi x10 x2 12
    183a8:        dd4ff0ef        jal x1 -2604 <__lo0bits>
    183ac:        00100793        addi x15 x0 1
    183b0:        00f92823        sw x15 16 x18
    183b4:        00c12783        lw x15 12 x2
    183b8:        00100493        addi x9 x0 1
    183bc:        00f92a23        sw x15 20 x18
    183c0:        02050793        addi x15 x10 32
    183c4:        f6041ee3        bne x8 x0 -132
    183c8:        00249713        slli x14 x9 2
    183cc:        00e90733        add x14 x18 x14
    183d0:        01072503        lw x10 16 x14
    183d4:        bce78793        addi x15 x15 -1074
    183d8:        00fa2023        sw x15 0 x20
    183dc:        d2cff0ef        jal x1 -2772 <__hi0bits>
    183e0:        00549493        slli x9 x9 5
    183e4:        40a484b3        sub x9 x9 x10
    183e8:        0099a023        sw x9 0 x19
    183ec:        f6dff06f        jal x0 -148

000183f0 <__ratio>:
    183f0:        fd010113        addi x2 x2 -48
    183f4:        03212023        sw x18 32 x2
    183f8:        00058913        addi x18 x11 0
    183fc:        00810593        addi x11 x2 8
    18400:        02112623        sw x1 44 x2
    18404:        02812423        sw x8 40 x2
    18408:        02912223        sw x9 36 x2
    1840c:        01312e23        sw x19 28 x2
    18410:        00050993        addi x19 x10 0
    18414:        d81ff0ef        jal x1 -640 <__b2d>
    18418:        00050493        addi x9 x10 0
    1841c:        00058413        addi x8 x11 0
    18420:        00090513        addi x10 x18 0
    18424:        00c10593        addi x11 x2 12
    18428:        d6dff0ef        jal x1 -660 <__b2d>
    1842c:        01092783        lw x15 16 x18
    18430:        0109a703        lw x14 16 x19
    18434:        00812683        lw x13 8 x2
    18438:        40f70733        sub x14 x14 x15
    1843c:        00c12783        lw x15 12 x2
    18440:        00571713        slli x14 x14 5
    18444:        40f686b3        sub x13 x13 x15
    18448:        00d707b3        add x15 x14 x13
    1844c:        02f05e63        bge x0 x15 60
    18450:        01479793        slli x15 x15 20
    18454:        00878433        add x8 x15 x8
    18458:        00050613        addi x12 x10 0
    1845c:        00058693        addi x13 x11 0
    18460:        00048513        addi x10 x9 0
    18464:        00040593        addi x11 x8 0
    18468:        515070ef        jal x1 32020 <__divdf3>
    1846c:        02c12083        lw x1 44 x2
    18470:        02812403        lw x8 40 x2
    18474:        02412483        lw x9 36 x2
    18478:        02012903        lw x18 32 x2
    1847c:        01c12983        lw x19 28 x2
    18480:        03010113        addi x2 x2 48
    18484:        00008067        jalr x0 x1 0
    18488:        01479713        slli x14 x15 20
    1848c:        40e585b3        sub x11 x11 x14
    18490:        fc9ff06f        jal x0 -56

00018494 <_mprec_log10>:
    18494:        ff010113        addi x2 x2 -16
    18498:        00812423        sw x8 8 x2
    1849c:        00112623        sw x1 12 x2
    184a0:        01212223        sw x18 4 x2
    184a4:        01312023        sw x19 0 x2
    184a8:        01700793        addi x15 x0 23
    184ac:        00050413        addi x8 x10 0
    184b0:        04a7d863        bge x15 x10 80
    184b4:        0000d797        auipc x15 0xd
    184b8:        53c78793        addi x15 x15 1340
    184bc:        0007a503        lw x10 0 x15
    184c0:        0047a583        lw x11 4 x15
    184c4:        0000d797        auipc x15 0xd
    184c8:        53478793        addi x15 x15 1332
    184cc:        0007a903        lw x18 0 x15
    184d0:        0047a983        lw x19 4 x15
    184d4:        fff40413        addi x8 x8 -1
    184d8:        00090613        addi x12 x18 0
    184dc:        00098693        addi x13 x19 0
    184e0:        368080ef        jal x1 33640 <__muldf3>
    184e4:        fe0418e3        bne x8 x0 -16
    184e8:        00c12083        lw x1 12 x2
    184ec:        00812403        lw x8 8 x2
    184f0:        00412903        lw x18 4 x2
    184f4:        00012983        lw x19 0 x2
    184f8:        01010113        addi x2 x2 16
    184fc:        00008067        jalr x0 x1 0
    18500:        00351413        slli x8 x10 3
    18504:        0000c797        auipc x15 0xc
    18508:        e4c78793        addi x15 x15 -436
    1850c:        00878433        add x8 x15 x8
    18510:        01042503        lw x10 16 x8
    18514:        01442583        lw x11 20 x8
    18518:        00c12083        lw x1 12 x2
    1851c:        00812403        lw x8 8 x2
    18520:        00412903        lw x18 4 x2
    18524:        00012983        lw x19 0 x2
    18528:        01010113        addi x2 x2 16
    1852c:        00008067        jalr x0 x1 0

00018530 <__copybits>:
    18530:        01062683        lw x13 16 x12
    18534:        fff58593        addi x11 x11 -1
    18538:        4055d593        srai x11 x11 5
    1853c:        00158593        addi x11 x11 1
    18540:        01460793        addi x15 x12 20
    18544:        00269693        slli x13 x13 2
    18548:        00259593        slli x11 x11 2
    1854c:        00d786b3        add x13 x15 x13
    18550:        00b505b3        add x11 x10 x11
    18554:        02d7f863        bgeu x15 x13 48
    18558:        00050713        addi x14 x10 0
    1855c:        00478793        addi x15 x15 4
    18560:        ffc7a803        lw x16 -4 x15
    18564:        00470713        addi x14 x14 4
    18568:        ff072e23        sw x16 -4 x14
    1856c:        fed7e8e3        bltu x15 x13 -16
    18570:        40c687b3        sub x15 x13 x12
    18574:        feb78793        addi x15 x15 -21
    18578:        ffc7f793        andi x15 x15 -4
    1857c:        00478793        addi x15 x15 4
    18580:        00f50533        add x10 x10 x15
    18584:        00b57863        bgeu x10 x11 16
    18588:        00450513        addi x10 x10 4
    1858c:        fe052e23        sw x0 -4 x10
    18590:        feb56ce3        bltu x10 x11 -8
    18594:        00008067        jalr x0 x1 0

00018598 <__any_on>:
    18598:        01052703        lw x14 16 x10
    1859c:        4055d613        srai x12 x11 5
    185a0:        01450693        addi x13 x10 20
    185a4:        02c75a63        bge x14 x12 52
    185a8:        00271793        slli x15 x14 2
    185ac:        00f687b3        add x15 x13 x15
    185b0:        04f6fc63        bgeu x13 x15 88
    185b4:        ffc7a503        lw x10 -4 x15
    185b8:        ffc78793        addi x15 x15 -4
    185bc:        00051a63        bne x10 x0 20
    185c0:        04f6f263        bgeu x13 x15 68
    185c4:        ffc78793        addi x15 x15 -4
    185c8:        0007a703        lw x14 0 x15
    185cc:        fe070ae3        beq x14 x0 -12
    185d0:        00100513        addi x10 x0 1
    185d4:        00008067        jalr x0 x1 0
    185d8:        00261793        slli x15 x12 2
    185dc:        00f687b3        add x15 x13 x15
    185e0:        fce658e3        bge x12 x14 -48
    185e4:        01f5f593        andi x11 x11 31
    185e8:        fc0584e3        beq x11 x0 -56
    185ec:        0007a603        lw x12 0 x15
    185f0:        00100513        addi x10 x0 1
    185f4:        00b65733        srl x14 x12 x11
    185f8:        00b715b3        sll x11 x14 x11
    185fc:        fab60ae3        beq x12 x11 -76
    18600:        00008067        jalr x0 x1 0
    18604:        00008067        jalr x0 x1 0
    18608:        00000513        addi x10 x0 0
    1860c:        00008067        jalr x0 x1 0

00018610 <_sbrk_r>:
    18610:        ff010113        addi x2 x2 -16
    18614:        00812423        sw x8 8 x2
    18618:        00050413        addi x8 x10 0
    1861c:        00058513        addi x10 x11 0
    18620:        2201a223        sw x0 548 x3
    18624:        00112623        sw x1 12 x2
    18628:        170070ef        jal x1 29040 <_sbrk>
    1862c:        fff00793        addi x15 x0 -1
    18630:        00f50a63        beq x10 x15 20
    18634:        00c12083        lw x1 12 x2
    18638:        00812403        lw x8 8 x2
    1863c:        01010113        addi x2 x2 16
    18640:        00008067        jalr x0 x1 0
    18644:        22418793        addi x15 x3 548
    18648:        0007a783        lw x15 0 x15
    1864c:        fe0784e3        beq x15 x0 -24
    18650:        00f42023        sw x15 0 x8
    18654:        00c12083        lw x1 12 x2
    18658:        00812403        lw x8 8 x2
    1865c:        01010113        addi x2 x2 16
    18660:        00008067        jalr x0 x1 0

00018664 <frexp>:
    18664:        ff010113        addi x2 x2 -16
    18668:        00812423        sw x8 8 x2
    1866c:        80000437        lui x8 0x80000
    18670:        00912223        sw x9 4 x2
    18674:        00112623        sw x1 12 x2
    18678:        fff44413        xori x8 x8 -1
    1867c:        00060493        addi x9 x12 0
    18680:        00062023        sw x0 0 x12
    18684:        00b47733        and x14 x8 x11
    18688:        7ff00637        lui x12 0x7ff00
    1868c:        00058793        addi x15 x11 0
    18690:        00050693        addi x13 x10 0
    18694:        06c75263        bge x14 x12 100
    18698:        00a768b3        or x17 x14 x10
    1869c:        04088e63        beq x17 x0 92
    186a0:        00c5f633        and x12 x11 x12
    186a4:        00058813        addi x16 x11 0
    186a8:        00000893        addi x17 x0 0
    186ac:        02061463        bne x12 x0 40
    186b0:        0000d797        auipc x15 0xd
    186b4:        35078793        addi x15 x15 848
    186b8:        0047a683        lw x13 4 x15
    186bc:        0007a603        lw x12 0 x15
    186c0:        188080ef        jal x1 33160 <__muldf3>
    186c4:        00050693        addi x13 x10 0
    186c8:        00058813        addi x16 x11 0
    186cc:        00b47733        and x14 x8 x11
    186d0:        fca00893        addi x17 x0 -54
    186d4:        41475713        srai x14 x14 20
    186d8:        801007b7        lui x15 0x80100
    186dc:        fff78793        addi x15 x15 -1
    186e0:        c0270713        addi x14 x14 -1022
    186e4:        00f87833        and x16 x16 x15
    186e8:        01170733        add x14 x14 x17
    186ec:        3fe007b7        lui x15 0x3fe00
    186f0:        00f867b3        or x15 x16 x15
    186f4:        00e4a023        sw x14 0 x9
    186f8:        00c12083        lw x1 12 x2
    186fc:        00812403        lw x8 8 x2
    18700:        00412483        lw x9 4 x2
    18704:        00068513        addi x10 x13 0
    18708:        00078593        addi x11 x15 0
    1870c:        01010113        addi x2 x2 16
    18710:        00008067        jalr x0 x1 0

00018714 <_sprintf_r>:
    18714:        f6010113        addi x2 x2 -160
    18718:        08c10e13        addi x28 x2 140
    1871c:        08f12a23        sw x15 148 x2
    18720:        80000337        lui x6 0x80000
    18724:        ffff07b7        lui x15 0xffff0
    18728:        00058e93        addi x29 x11 0
    1872c:        fff34313        xori x6 x6 -1
    18730:        08d12623        sw x13 140 x2
    18734:        20878793        addi x15 x15 520
    18738:        00810593        addi x11 x2 8
    1873c:        000e0693        addi x13 x28 0
    18740:        06112e23        sw x1 124 x2
    18744:        00f12a23        sw x15 20 x2
    18748:        08e12823        sw x14 144 x2
    1874c:        09012c23        sw x16 152 x2
    18750:        09112e23        sw x17 156 x2
    18754:        01d12423        sw x29 8 x2
    18758:        01d12c23        sw x29 24 x2
    1875c:        00612e23        sw x6 28 x2
    18760:        00612823        sw x6 16 x2
    18764:        01c12223        sw x28 4 x2
    18768:        574000ef        jal x1 1396 <_svfprintf_r>
    1876c:        00812783        lw x15 8 x2
    18770:        00078023        sb x0 0 x15
    18774:        07c12083        lw x1 124 x2
    18778:        0a010113        addi x2 x2 160
    1877c:        00008067        jalr x0 x1 0

00018780 <sprintf>:
    18780:        00050e93        addi x29 x10 0
    18784:        1c018513        addi x10 x3 448
    18788:        f6010113        addi x2 x2 -160
    1878c:        00052503        lw x10 0 x10
    18790:        08810e13        addi x28 x2 136
    18794:        08f12a23        sw x15 148 x2
    18798:        80000337        lui x6 0x80000
    1879c:        ffff07b7        lui x15 0xffff0
    187a0:        fff34313        xori x6 x6 -1
    187a4:        08c12423        sw x12 136 x2
    187a8:        08d12623        sw x13 140 x2
    187ac:        20878793        addi x15 x15 520
    187b0:        00058613        addi x12 x11 0
    187b4:        000e0693        addi x13 x28 0
    187b8:        00810593        addi x11 x2 8
    187bc:        06112e23        sw x1 124 x2
    187c0:        00f12a23        sw x15 20 x2
    187c4:        08e12823        sw x14 144 x2
    187c8:        09012c23        sw x16 152 x2
    187cc:        09112e23        sw x17 156 x2
    187d0:        01d12423        sw x29 8 x2
    187d4:        01d12c23        sw x29 24 x2
    187d8:        00612e23        sw x6 28 x2
    187dc:        00612823        sw x6 16 x2
    187e0:        01c12223        sw x28 4 x2
    187e4:        4f8000ef        jal x1 1272 <_svfprintf_r>
    187e8:        00812783        lw x15 8 x2
    187ec:        00078023        sb x0 0 x15
    187f0:        07c12083        lw x1 124 x2
    187f4:        0a010113        addi x2 x2 160
    187f8:        00008067        jalr x0 x1 0

000187fc <__sread>:
    187fc:        ff010113        addi x2 x2 -16
    18800:        00812423        sw x8 8 x2
    18804:        00058413        addi x8 x11 0
    18808:        00e59583        lh x11 14 x11
    1880c:        00112623        sw x1 12 x2
    18810:        0e0050ef        jal x1 20704 <_read_r>
    18814:        02054063        blt x10 x0 32
    18818:        05042783        lw x15 80 x8
    1881c:        00c12083        lw x1 12 x2
    18820:        00a787b3        add x15 x15 x10
    18824:        04f42823        sw x15 80 x8
    18828:        00812403        lw x8 8 x2
    1882c:        01010113        addi x2 x2 16
    18830:        00008067        jalr x0 x1 0
    18834:        00c45783        lhu x15 12 x8
    18838:        fffff737        lui x14 0xfffff
    1883c:        fff70713        addi x14 x14 -1
    18840:        00e7f7b3        and x15 x15 x14
    18844:        00f41623        sh x15 12 x8
    18848:        00c12083        lw x1 12 x2
    1884c:        00812403        lw x8 8 x2
    18850:        01010113        addi x2 x2 16
    18854:        00008067        jalr x0 x1 0

00018858 <__seofread>:
    18858:        00000513        addi x10 x0 0
    1885c:        00008067        jalr x0 x1 0

00018860 <__swrite>:
    18860:        00c59783        lh x15 12 x11
    18864:        fe010113        addi x2 x2 -32
    18868:        00812c23        sw x8 24 x2
    1886c:        00912a23        sw x9 20 x2
    18870:        01212823        sw x18 16 x2
    18874:        01312623        sw x19 12 x2
    18878:        00112e23        sw x1 28 x2
    1887c:        1007f713        andi x14 x15 256
    18880:        00058413        addi x8 x11 0
    18884:        00050493        addi x9 x10 0
    18888:        00060913        addi x18 x12 0
    1888c:        00068993        addi x19 x13 0
    18890:        00e59583        lh x11 14 x11
    18894:        02071e63        bne x14 x0 60
    18898:        fffff737        lui x14 0xfffff
    1889c:        fff70713        addi x14 x14 -1
    188a0:        00e7f7b3        and x15 x15 x14
    188a4:        00f41623        sh x15 12 x8
    188a8:        01812403        lw x8 24 x2
    188ac:        01c12083        lw x1 28 x2
    188b0:        00098693        addi x13 x19 0
    188b4:        00090613        addi x12 x18 0
    188b8:        00c12983        lw x19 12 x2
    188bc:        01012903        lw x18 16 x2
    188c0:        00048513        addi x10 x9 0
    188c4:        01412483        lw x9 20 x2
    188c8:        02010113        addi x2 x2 32
    188cc:        3c80406f        jal x0 17352 <_write_r>
    188d0:        00200693        addi x13 x0 2
    188d4:        00000613        addi x12 x0 0
    188d8:        57d040ef        jal x1 19836 <_lseek_r>
    188dc:        00c41783        lh x15 12 x8
    188e0:        00e41583        lh x11 14 x8
    188e4:        fb5ff06f        jal x0 -76

000188e8 <__sseek>:
    188e8:        ff010113        addi x2 x2 -16
    188ec:        00812423        sw x8 8 x2
    188f0:        00058413        addi x8 x11 0
    188f4:        00e59583        lh x11 14 x11
    188f8:        00112623        sw x1 12 x2
    188fc:        559040ef        jal x1 19800 <_lseek_r>
    18900:        fff00793        addi x15 x0 -1
    18904:        02f50463        beq x10 x15 40
    18908:        00c45783        lhu x15 12 x8
    1890c:        00001737        lui x14 0x1
    18910:        04a42823        sw x10 80 x8
    18914:        00e7e7b3        or x15 x15 x14
    18918:        00f41623        sh x15 12 x8
    1891c:        00c12083        lw x1 12 x2
    18920:        00812403        lw x8 8 x2
    18924:        01010113        addi x2 x2 16
    18928:        00008067        jalr x0 x1 0
    1892c:        00c45783        lhu x15 12 x8
    18930:        fffff737        lui x14 0xfffff
    18934:        fff70713        addi x14 x14 -1
    18938:        00e7f7b3        and x15 x15 x14
    1893c:        00f41623        sh x15 12 x8
    18940:        00c12083        lw x1 12 x2
    18944:        00812403        lw x8 8 x2
    18948:        01010113        addi x2 x2 16
    1894c:        00008067        jalr x0 x1 0

00018950 <__sclose>:
    18950:        00e59583        lh x11 14 x11
    18954:        4500406f        jal x0 17488 <_close_r>

00018958 <strcmp>:
    18958:        00b56733        or x14 x10 x11
    1895c:        fff00393        addi x7 x0 -1
    18960:        00377713        andi x14 x14 3
    18964:        10071063        bne x14 x0 256
    18968:        7f7f87b7        lui x15 0x7f7f8
    1896c:        f7f78793        addi x15 x15 -129
    18970:        00052603        lw x12 0 x10
    18974:        0005a683        lw x13 0 x11
    18978:        00f672b3        and x5 x12 x15
    1897c:        00f66333        or x6 x12 x15
    18980:        00f282b3        add x5 x5 x15
    18984:        0062e2b3        or x5 x5 x6
    18988:        10729263        bne x5 x7 260
    1898c:        08d61663        bne x12 x13 140
    18990:        00452603        lw x12 4 x10
    18994:        0045a683        lw x13 4 x11
    18998:        00f672b3        and x5 x12 x15
    1899c:        00f66333        or x6 x12 x15
    189a0:        00f282b3        add x5 x5 x15
    189a4:        0062e2b3        or x5 x5 x6
    189a8:        0c729e63        bne x5 x7 220
    189ac:        06d61663        bne x12 x13 108
    189b0:        00852603        lw x12 8 x10
    189b4:        0085a683        lw x13 8 x11
    189b8:        00f672b3        and x5 x12 x15
    189bc:        00f66333        or x6 x12 x15
    189c0:        00f282b3        add x5 x5 x15
    189c4:        0062e2b3        or x5 x5 x6
    189c8:        0c729863        bne x5 x7 208
    189cc:        04d61663        bne x12 x13 76
    189d0:        00c52603        lw x12 12 x10
    189d4:        00c5a683        lw x13 12 x11
    189d8:        00f672b3        and x5 x12 x15
    189dc:        00f66333        or x6 x12 x15
    189e0:        00f282b3        add x5 x5 x15
    189e4:        0062e2b3        or x5 x5 x6
    189e8:        0c729263        bne x5 x7 196
    189ec:        02d61663        bne x12 x13 44
    189f0:        01052603        lw x12 16 x10
    189f4:        0105a683        lw x13 16 x11
    189f8:        00f672b3        and x5 x12 x15
    189fc:        00f66333        or x6 x12 x15
    18a00:        00f282b3        add x5 x5 x15
    18a04:        0062e2b3        or x5 x5 x6
    18a08:        0a729c63        bne x5 x7 184
    18a0c:        01450513        addi x10 x10 20
    18a10:        01458593        addi x11 x11 20
    18a14:        f4d60ee3        beq x12 x13 -164
    18a18:        01061713        slli x14 x12 16
    18a1c:        01069793        slli x15 x13 16
    18a20:        00f71e63        bne x14 x15 28
    18a24:        01065713        srli x14 x12 16
    18a28:        0106d793        srli x15 x13 16
    18a2c:        40f70533        sub x10 x14 x15
    18a30:        0ff57593        andi x11 x10 255
    18a34:        02059063        bne x11 x0 32
    18a38:        00008067        jalr x0 x1 0
    18a3c:        01075713        srli x14 x14 16
    18a40:        0107d793        srli x15 x15 16
    18a44:        40f70533        sub x10 x14 x15
    18a48:        0ff57593        andi x11 x10 255
    18a4c:        00059463        bne x11 x0 8
    18a50:        00008067        jalr x0 x1 0
    18a54:        0ff77713        andi x14 x14 255
    18a58:        0ff7f793        andi x15 x15 255
    18a5c:        40f70533        sub x10 x14 x15
    18a60:        00008067        jalr x0 x1 0
    18a64:        00054603        lbu x12 0 x10
    18a68:        0005c683        lbu x13 0 x11
    18a6c:        00150513        addi x10 x10 1
    18a70:        00158593        addi x11 x11 1
    18a74:        00d61463        bne x12 x13 8
    18a78:        fe0616e3        bne x12 x0 -20
    18a7c:        40d60533        sub x10 x12 x13
    18a80:        00008067        jalr x0 x1 0
    18a84:        00450513        addi x10 x10 4
    18a88:        00458593        addi x11 x11 4
    18a8c:        fcd61ce3        bne x12 x13 -40
    18a90:        00000513        addi x10 x0 0
    18a94:        00008067        jalr x0 x1 0
    18a98:        00850513        addi x10 x10 8
    18a9c:        00858593        addi x11 x11 8
    18aa0:        fcd612e3        bne x12 x13 -60
    18aa4:        00000513        addi x10 x0 0
    18aa8:        00008067        jalr x0 x1 0
    18aac:        00c50513        addi x10 x10 12
    18ab0:        00c58593        addi x11 x11 12
    18ab4:        fad618e3        bne x12 x13 -80
    18ab8:        00000513        addi x10 x0 0
    18abc:        00008067        jalr x0 x1 0
    18ac0:        01050513        addi x10 x10 16
    18ac4:        01058593        addi x11 x11 16
    18ac8:        f8d61ee3        bne x12 x13 -100
    18acc:        00000513        addi x10 x0 0
    18ad0:        00008067        jalr x0 x1 0

00018ad4 <strcpy>:
    18ad4:        00b567b3        or x15 x10 x11
    18ad8:        0037f793        andi x15 x15 3
    18adc:        08079263        bne x15 x0 132
    18ae0:        0005a703        lw x14 0 x11
    18ae4:        7f7f86b7        lui x13 0x7f7f8
    18ae8:        f7f68693        addi x13 x13 -129
    18aec:        00d777b3        and x15 x14 x13
    18af0:        00d787b3        add x15 x15 x13
    18af4:        00e7e7b3        or x15 x15 x14
    18af8:        00d7e7b3        or x15 x15 x13
    18afc:        fff00613        addi x12 x0 -1
    18b00:        06c79e63        bne x15 x12 124
    18b04:        00050613        addi x12 x10 0
    18b08:        fff00813        addi x16 x0 -1
    18b0c:        00460613        addi x12 x12 4
    18b10:        00458593        addi x11 x11 4
    18b14:        fee62e23        sw x14 -4 x12
    18b18:        0005a703        lw x14 0 x11
    18b1c:        00d777b3        and x15 x14 x13
    18b20:        00d787b3        add x15 x15 x13
    18b24:        00e7e7b3        or x15 x15 x14
    18b28:        00d7e7b3        or x15 x15 x13
    18b2c:        ff0780e3        beq x15 x16 -32
    18b30:        0005c783        lbu x15 0 x11
    18b34:        0015c703        lbu x14 1 x11
    18b38:        0025c683        lbu x13 2 x11
    18b3c:        00f60023        sb x15 0 x12
    18b40:        00078a63        beq x15 x0 20
    18b44:        00e600a3        sb x14 1 x12
    18b48:        00070663        beq x14 x0 12
    18b4c:        00d60123        sb x13 2 x12
    18b50:        00069463        bne x13 x0 8
    18b54:        00008067        jalr x0 x1 0
    18b58:        000601a3        sb x0 3 x12
    18b5c:        00008067        jalr x0 x1 0
    18b60:        00050793        addi x15 x10 0
    18b64:        0005c703        lbu x14 0 x11
    18b68:        00178793        addi x15 x15 1
    18b6c:        00158593        addi x11 x11 1
    18b70:        fee78fa3        sb x14 -1 x15
    18b74:        fe0718e3        bne x14 x0 -16
    18b78:        00008067        jalr x0 x1 0
    18b7c:        00050613        addi x12 x10 0
    18b80:        fb1ff06f        jal x0 -80

00018b84 <strlen>:
    18b84:        00357793        andi x15 x10 3
    18b88:        00050713        addi x14 x10 0
    18b8c:        04079c63        bne x15 x0 88
    18b90:        7f7f86b7        lui x13 0x7f7f8
    18b94:        f7f68693        addi x13 x13 -129
    18b98:        fff00593        addi x11 x0 -1
    18b9c:        00470713        addi x14 x14 4
    18ba0:        ffc72603        lw x12 -4 x14
    18ba4:        00d677b3        and x15 x12 x13
    18ba8:        00d787b3        add x15 x15 x13
    18bac:        00c7e7b3        or x15 x15 x12
    18bb0:        00d7e7b3        or x15 x15 x13
    18bb4:        feb784e3        beq x15 x11 -24
    18bb8:        ffc74683        lbu x13 -4 x14
    18bbc:        40a707b3        sub x15 x14 x10
    18bc0:        ffd74603        lbu x12 -3 x14
    18bc4:        ffe74503        lbu x10 -2 x14
    18bc8:        04068063        beq x13 x0 64
    18bcc:        02060a63        beq x12 x0 52
    18bd0:        00a03533        sltu x10 x0 x10
    18bd4:        00f50533        add x10 x10 x15
    18bd8:        ffe50513        addi x10 x10 -2
    18bdc:        00008067        jalr x0 x1 0
    18be0:        fa0688e3        beq x13 x0 -80
    18be4:        00074783        lbu x15 0 x14
    18be8:        00170713        addi x14 x14 1
    18bec:        00377693        andi x13 x14 3
    18bf0:        fe0798e3        bne x15 x0 -16
    18bf4:        40a70733        sub x14 x14 x10
    18bf8:        fff70513        addi x10 x14 -1
    18bfc:        00008067        jalr x0 x1 0
    18c00:        ffd78513        addi x10 x15 -3
    18c04:        00008067        jalr x0 x1 0
    18c08:        ffc78513        addi x10 x15 -4
    18c0c:        00008067        jalr x0 x1 0

00018c10 <strncpy>:
    18c10:        00a5e7b3        or x15 x11 x10
    18c14:        0037f793        andi x15 x15 3
    18c18:        06079a63        bne x15 x0 116
    18c1c:        00300793        addi x15 x0 3
    18c20:        00050713        addi x14 x10 0
    18c24:        06c7e863        bltu x15 x12 112
    18c28:        06060063        beq x12 x0 96
    18c2c:        0005c803        lbu x16 0 x11
    18c30:        fff60693        addi x13 x12 -1
    18c34:        00158593        addi x11 x11 1
    18c38:        01070023        sb x16 0 x14
    18c3c:        00170793        addi x15 x14 1
    18c40:        02080863        beq x16 x0 48
    18c44:        00c70633        add x12 x14 x12
    18c48:        00d706b3        add x13 x14 x13
    18c4c:        0140006f        jal x0 20
    18c50:        fff5c703        lbu x14 -1 x11
    18c54:        00178793        addi x15 x15 1
    18c58:        fee78fa3        sb x14 -1 x15
    18c5c:        00070c63        beq x14 x0 24
    18c60:        00158593        addi x11 x11 1
    18c64:        40f68833        sub x16 x13 x15
    18c68:        fec794e3        bne x15 x12 -24
    18c6c:        00008067        jalr x0 x1 0
    18c70:        00068813        addi x16 x13 0
    18c74:        01078733        add x14 x15 x16
    18c78:        06080063        beq x16 x0 96
    18c7c:        00178793        addi x15 x15 1
    18c80:        fe078fa3        sb x0 -1 x15
    18c84:        fee79ce3        bne x15 x14 -8
    18c88:        00008067        jalr x0 x1 0
    18c8c:        00050713        addi x14 x10 0
    18c90:        f99ff06f        jal x0 -104
    18c94:        feff0337        lui x6 0xfeff0
    18c98:        808088b7        lui x17 0x80808
    18c9c:        eff30313        addi x6 x6 -257
    18ca0:        08088893        addi x17 x17 128
    18ca4:        00300e13        addi x28 x0 3
    18ca8:        0005a683        lw x13 0 x11
    18cac:        006687b3        add x15 x13 x6
    18cb0:        fff6c813        xori x16 x13 -1
    18cb4:        0107f7b3        and x15 x15 x16
    18cb8:        0117f7b3        and x15 x15 x17
    18cbc:        f60798e3        bne x15 x0 -144
    18cc0:        00470713        addi x14 x14 4
    18cc4:        ffc60613        addi x12 x12 -4
    18cc8:        fed72e23        sw x13 -4 x14
    18ccc:        00458593        addi x11 x11 4
    18cd0:        fcce6ce3        bltu x28 x12 -40
    18cd4:        f55ff06f        jal x0 -172
    18cd8:        00008067        jalr x0 x1 0

00018cdc <_svfprintf_r>:
    18cdc:        e1010113        addi x2 x2 -496
    18ce0:        1e112623        sw x1 492 x2
    18ce4:        1e812423        sw x8 488 x2
    18ce8:        1d812423        sw x24 456 x2
    18cec:        00058413        addi x8 x11 0
    18cf0:        00b12423        sw x11 8 x2
    18cf4:        00060c13        addi x24 x12 0
    18cf8:        00d12823        sw x13 16 x2
    18cfc:        1e912223        sw x9 484 x2
    18d00:        1f212023        sw x18 480 x2
    18d04:        1d312e23        sw x19 476 x2
    18d08:        1d412c23        sw x20 472 x2
    18d0c:        1d512a23        sw x21 468 x2
    18d10:        1d612823        sw x22 464 x2
    18d14:        1d712623        sw x23 460 x2
    18d18:        1d912223        sw x25 452 x2
    18d1c:        1da12023        sw x26 448 x2
    18d20:        1bb12e23        sw x27 444 x2
    18d24:        02a12223        sw x10 36 x2
    18d28:        d25fd0ef        jal x1 -8924 <_localeconv_r>
    18d2c:        00052783        lw x15 0 x10
    18d30:        00078513        addi x10 x15 0
    18d34:        02f12823        sw x15 48 x2
    18d38:        e4dff0ef        jal x1 -436 <strlen>
    18d3c:        00c45783        lhu x15 12 x8
    18d40:        02a12423        sw x10 40 x2
    18d44:        0e012823        sw x0 240 x2
    18d48:        0e012a23        sw x0 244 x2
    18d4c:        0e012c23        sw x0 248 x2
    18d50:        0e012e23        sw x0 252 x2
    18d54:        0807f793        andi x15 x15 128
    18d58:        00078863        beq x15 x0 16
    18d5c:        01042783        lw x15 16 x8
    18d60:        00079463        bne x15 x0 8
    18d64:        6ec0106f        jal x0 5868
    18d68:        000c0c93        addi x25 x24 0
    18d6c:        000cc703        lbu x14 0 x25
    18d70:        10c10793        addi x15 x2 268
    18d74:        0ef12223        sw x15 228 x2
    18d78:        0e012623        sw x0 236 x2
    18d7c:        0e012423        sw x0 232 x2
    18d80:        00012c23        sw x0 24 x2
    18d84:        02012623        sw x0 44 x2
    18d88:        02012c23        sw x0 56 x2
    18d8c:        02012e23        sw x0 60 x2
    18d90:        04012023        sw x0 64 x2
    18d94:        04012223        sw x0 68 x2
    18d98:        00012223        sw x0 4 x2
    18d9c:        01000b93        addi x23 x0 16
    18da0:        00078d13        addi x26 x15 0
    18da4:        02412a03        lw x20 36 x2
    18da8:        3a070463        beq x14 x0 936
    18dac:        02500693        addi x13 x0 37
    18db0:        00d71463        bne x14 x13 8
    18db4:        5400106f        jal x0 5440
    18db8:        000c8413        addi x8 x25 0
    18dbc:        00c0006f        jal x0 12
    18dc0:        0ed78e63        beq x15 x13 252
    18dc4:        00090413        addi x8 x18 0
    18dc8:        00144783        lbu x15 1 x8
    18dcc:        00140913        addi x18 x8 1
    18dd0:        fe0798e3        bne x15 x0 -16
    18dd4:        419904b3        sub x9 x18 x25
    18dd8:        36048c63        beq x9 x0 888
    18ddc:        0ec12683        lw x13 236 x2
    18de0:        0e812703        lw x14 232 x2
    18de4:        019d2023        sw x25 0 x26
    18de8:        009686b3        add x13 x13 x9
    18dec:        00170713        addi x14 x14 1
    18df0:        009d2223        sw x9 4 x26
    18df4:        0ed12623        sw x13 236 x2
    18df8:        0ee12423        sw x14 232 x2
    18dfc:        00700693        addi x13 x0 7
    18e00:        008d0d13        addi x26 x26 8
    18e04:        0ce6c263        blt x13 x14 196
    18e08:        00412783        lw x15 4 x2
    18e0c:        00144703        lbu x14 1 x8
    18e10:        009787b3        add x15 x15 x9
    18e14:        00f12223        sw x15 4 x2
    18e18:        32070c63        beq x14 x0 824
    18e1c:        fff00313        addi x6 x0 -1
    18e20:        00190493        addi x9 x18 1
    18e24:        00194e03        lbu x28 1 x18
    18e28:        0c0103a3        sb x0 199 x2
    18e2c:        00000413        addi x8 x0 0
    18e30:        00000913        addi x18 x0 0
    18e34:        00900993        addi x19 x0 9
    18e38:        02a00b13        addi x22 x0 42
    18e3c:        00030c13        addi x24 x6 0
    18e40:        00148493        addi x9 x9 1
    18e44:        000e0a93        addi x21 x28 0
    18e48:        05a00713        addi x14 x0 90
    18e4c:        fe0a8793        addi x15 x21 -32
    18e50:        1ef76863        bltu x14 x15 496
    18e54:        0000b697        auipc x13 0xb
    18e58:        62468693        addi x13 x13 1572
    18e5c:        00279793        slli x15 x15 2
    18e60:        00d787b3        add x15 x15 x13
    18e64:        0007a783        lw x15 0 x15
    18e68:        00d787b3        add x15 x15 x13
    18e6c:        00078067        jalr x0 x15 0
    18e70:        000a0513        addi x10 x20 0
    18e74:        bd9fd0ef        jal x1 -9256 <_localeconv_r>
    18e78:        00452783        lw x15 4 x10
    18e7c:        00078513        addi x10 x15 0
    18e80:        04f12223        sw x15 68 x2
    18e84:        d01ff0ef        jal x1 -768 <strlen>
    18e88:        04a12023        sw x10 64 x2
    18e8c:        00050a93        addi x21 x10 0
    18e90:        000a0513        addi x10 x20 0
    18e94:        bb9fd0ef        jal x1 -9288 <_localeconv_r>
    18e98:        00852783        lw x15 8 x10
    18e9c:        02f12e23        sw x15 60 x2
    18ea0:        000a8463        beq x21 x0 8
    18ea4:        5040106f        jal x0 5380
    18ea8:        0004ce03        lbu x28 0 x9
    18eac:        f95ff06f        jal x0 -108
    18eb0:        02096913        ori x18 x18 32
    18eb4:        0004ce03        lbu x28 0 x9
    18eb8:        f89ff06f        jal x0 -120
    18ebc:        419904b3        sub x9 x18 x25
    18ec0:        f4048ee3        beq x9 x0 -164
    18ec4:        f19ff06f        jal x0 -232
    18ec8:        00812583        lw x11 8 x2
    18ecc:        0e410613        addi x12 x2 228
    18ed0:        000a0513        addi x10 x20 0
    18ed4:        19c050ef        jal x1 20892 <__ssprint_r>
    18ed8:        02051a63        bne x10 x0 52
    18edc:        10c10d13        addi x26 x2 268
    18ee0:        f29ff06f        jal x0 -216
    18ee4:        00812583        lw x11 8 x2
    18ee8:        0e410613        addi x12 x2 228
    18eec:        000a0513        addi x10 x20 0
    18ef0:        180050ef        jal x1 20864 <__ssprint_r>
    18ef4:        040506e3        beq x10 x0 2124
    18ef8:        00c12783        lw x15 12 x2
    18efc:        00078863        beq x15 x0 16
    18f00:        00c12583        lw x11 12 x2
    18f04:        02412503        lw x10 36 x2
    18f08:        badfa0ef        jal x1 -21588 <_free_r>
    18f0c:        00812783        lw x15 8 x2
    18f10:        00c7d783        lhu x15 12 x15
    18f14:        0407f793        andi x15 x15 64
    18f18:        00078463        beq x15 x0 8
    18f1c:        56c0206f        jal x0 9580
    18f20:        1ec12083        lw x1 492 x2
    18f24:        1e812403        lw x8 488 x2
    18f28:        00412503        lw x10 4 x2
    18f2c:        1e412483        lw x9 484 x2
    18f30:        1e012903        lw x18 480 x2
    18f34:        1dc12983        lw x19 476 x2
    18f38:        1d812a03        lw x20 472 x2
    18f3c:        1d412a83        lw x21 468 x2
    18f40:        1d012b03        lw x22 464 x2
    18f44:        1cc12b83        lw x23 460 x2
    18f48:        1c812c03        lw x24 456 x2
    18f4c:        1c412c83        lw x25 452 x2
    18f50:        1c012d03        lw x26 448 x2
    18f54:        1bc12d83        lw x27 444 x2
    18f58:        1f010113        addi x2 x2 496
    18f5c:        00008067        jalr x0 x1 0
    18f60:        0000b797        auipc x15 0xb
    18f64:        13078793        addi x15 x15 304
    18f68:        02f12623        sw x15 44 x2
    18f6c:        02097793        andi x15 x18 32
    18f70:        000c0313        addi x6 x24 0
    18f74:        10078063        beq x15 x0 256
    18f78:        01012783        lw x15 16 x2
    18f7c:        00778793        addi x15 x15 7
    18f80:        ff87f793        andi x15 x15 -8
    18f84:        0007ac03        lw x24 0 x15
    18f88:        0047ad83        lw x27 4 x15
    18f8c:        00878713        addi x14 x15 8
    18f90:        00e12823        sw x14 16 x2
    18f94:        00197793        andi x15 x18 1
    18f98:        00078863        beq x15 x0 16
    18f9c:        01bc67b3        or x15 x24 x27
    18fa0:        00078463        beq x15 x0 8
    18fa4:        3e80106f        jal x0 5096
    18fa8:        bff97993        andi x19 x18 -1025
    18fac:        00200793        addi x15 x0 2
    18fb0:        0c0103a3        sb x0 199 x2
    18fb4:        fff00713        addi x14 x0 -1
    18fb8:        0ee308e3        beq x6 x14 2288
    18fbc:        01bc6733        or x14 x24 x27
    18fc0:        f7f9f913        andi x18 x19 -129
    18fc4:        00070463        beq x14 x0 8
    18fc8:        7bd0006f        jal x0 4028
    18fcc:        2e0310e3        bne x6 x0 2784
    18fd0:        62079a63        bne x15 x0 1588
    18fd4:        0019fb13        andi x22 x19 1
    18fd8:        1b010c93        addi x25 x2 432
    18fdc:        000b0463        beq x22 x0 8
    18fe0:        36c0106f        jal x0 4972
    18fe4:        000b0993        addi x19 x22 0
    18fe8:        006b5463        bge x22 x6 8
    18fec:        00030993        addi x19 x6 0
    18ff0:        0c714703        lbu x14 199 x2
    18ff4:        00012623        sw x0 12 x2
    18ff8:        02012023        sw x0 32 x2
    18ffc:        00012e23        sw x0 28 x2
    19000:        00012a23        sw x0 20 x2
    19004:        64070463        beq x14 x0 1608
    19008:        00198993        addi x19 x19 1
    1900c:        6400006f        jal x0 1600
    19010:        00000413        addi x8 x0 0
    19014:        fd0a8693        addi x13 x21 -48
    19018:        00148493        addi x9 x9 1
    1901c:        00241793        slli x15 x8 2
    19020:        fff4ca83        lbu x21 -1 x9
    19024:        008787b3        add x15 x15 x8
    19028:        00179793        slli x15 x15 1
    1902c:        00f68433        add x8 x13 x15
    19030:        fd0a8693        addi x13 x21 -48
    19034:        fed9f2e3        bgeu x19 x13 -28
    19038:        fe0a8793        addi x15 x21 -32
    1903c:        e0f77ce3        bgeu x14 x15 -488
    19040:        100a8863        beq x21 x0 272
    19044:        15510623        sb x21 332 x2
    19048:        0c0103a3        sb x0 199 x2
    1904c:        00100993        addi x19 x0 1
    19050:        00100b13        addi x22 x0 1
    19054:        14c10c93        addi x25 x2 332
    19058:        5e00006f        jal x0 1504
    1905c:        0000b797        auipc x15 0xb
    19060:        04878793        addi x15 x15 72
    19064:        02f12623        sw x15 44 x2
    19068:        02097793        andi x15 x18 32
    1906c:        000c0313        addi x6 x24 0
    19070:        f00794e3        bne x15 x0 -248
    19074:        01012703        lw x14 16 x2
    19078:        01097793        andi x15 x18 16
    1907c:        00072c03        lw x24 0 x14
    19080:        00470713        addi x14 x14 4
    19084:        00e12823        sw x14 16 x2
    19088:        00078463        beq x15 x0 8
    1908c:        2d80106f        jal x0 4824
    19090:        04097793        andi x15 x18 64
    19094:        00079463        bne x15 x0 8
    19098:        2c40106f        jal x0 4804
    1909c:        010c1c13        slli x24 x24 16
    190a0:        010c5c13        srli x24 x24 16
    190a4:        00000d93        addi x27 x0 0
    190a8:        eedff06f        jal x0 -276
    190ac:        0004ce03        lbu x28 0 x9
    190b0:        00496913        ori x18 x18 4
    190b4:        d8dff06f        jal x0 -628
    190b8:        02097793        andi x15 x18 32
    190bc:        000c0313        addi x6 x24 0
    190c0:        140796e3        bne x15 x0 2380
    190c4:        01012683        lw x13 16 x2
    190c8:        01097713        andi x14 x18 16
    190cc:        00468793        addi x15 x13 4
    190d0:        0006ac03        lw x24 0 x13
    190d4:        4c071263        bne x14 x0 1220
    190d8:        04097713        andi x14 x18 64
    190dc:        00071463        bne x14 x0 8
    190e0:        1a90106f        jal x0 6568
    190e4:        010c1c13        slli x24 x24 16
    190e8:        010c5c13        srli x24 x24 16
    190ec:        00000d93        addi x27 x0 0
    190f0:        00f12823        sw x15 16 x2
    190f4:        1350006f        jal x0 2356
    190f8:        01012683        lw x13 16 x2
    190fc:        02097793        andi x15 x18 32
    19100:        00468713        addi x14 x13 4
    19104:        00078463        beq x15 x0 8
    19108:        2640106f        jal x0 4708
    1910c:        01097793        andi x15 x18 16
    19110:        00078463        beq x15 x0 8
    19114:        0450106f        jal x0 6212
    19118:        04097793        andi x15 x18 64
    1911c:        00078463        beq x15 x0 8
    19120:        2710106f        jal x0 6768
    19124:        20097913        andi x18 x18 512
    19128:        00091463        bne x18 x0 8
    1912c:        02d0106f        jal x0 6188
    19130:        01012783        lw x15 16 x2
    19134:        00e12823        sw x14 16 x2
    19138:        00412703        lw x14 4 x2
    1913c:        0007a783        lw x15 0 x15
    19140:        00048c93        addi x25 x9 0
    19144:        00e78023        sb x14 0 x15
    19148:        000cc703        lbu x14 0 x25
    1914c:        c60710e3        bne x14 x0 -928
    19150:        0ec12783        lw x15 236 x2
    19154:        da078ce3        beq x15 x0 -584
    19158:        00812403        lw x8 8 x2
    1915c:        02412503        lw x10 36 x2
    19160:        0e410613        addi x12 x2 228
    19164:        00040593        addi x11 x8 0
    19168:        709040ef        jal x1 20232 <__ssprint_r>
    1916c:        00c45783        lhu x15 12 x8
    19170:        da5ff06f        jal x0 -604
    19174:        0004ce03        lbu x28 0 x9
    19178:        06c00793        addi x15 x0 108
    1917c:        00fe1463        bne x28 x15 8
    19180:        2c00106f        jal x0 4800
    19184:        01096913        ori x18 x18 16
    19188:        cb9ff06f        jal x0 -840
    1918c:        0004ce03        lbu x28 0 x9
    19190:        06800793        addi x15 x0 104
    19194:        00fe1463        bne x28 x15 8
    19198:        2980106f        jal x0 4760
    1919c:        04096913        ori x18 x18 64
    191a0:        ca1ff06f        jal x0 -864
    191a4:        01012703        lw x14 16 x2
    191a8:        ffff87b7        lui x15 0xffff8
    191ac:        8307c793        xori x15 x15 -2000
    191b0:        0cf11423        sh x15 200 x2
    191b4:        00470793        addi x15 x14 4
    191b8:        00f12823        sw x15 16 x2
    191bc:        0000b797        auipc x15 0xb
    191c0:        ed478793        addi x15 x15 -300
    191c4:        000c0313        addi x6 x24 0
    191c8:        02f12623        sw x15 44 x2
    191cc:        00072c03        lw x24 0 x14
    191d0:        00000d93        addi x27 x0 0
    191d4:        00296993        ori x19 x18 2
    191d8:        00200793        addi x15 x0 2
    191dc:        07800a93        addi x21 x0 120
    191e0:        dd1ff06f        jal x0 -560
    191e4:        00897713        andi x14 x18 8
    191e8:        000c0313        addi x6 x24 0
    191ec:        00070463        beq x14 x0 8
    191f0:        1dc0106f        jal x0 4572
    191f4:        01012783        lw x15 16 x2
    191f8:        0b010513        addi x10 x2 176
    191fc:        01812623        sw x24 12 x2
    19200:        00778793        addi x15 x15 7
    19204:        ff87f793        andi x15 x15 -8
    19208:        0007a583        lw x11 0 x15
    1920c:        0047a603        lw x12 4 x15
    19210:        00878793        addi x15 x15 8
    19214:        00f12823        sw x15 16 x2
    19218:        7440a0ef        jal x1 42820 <__extenddftf2>
    1921c:        0b012703        lw x14 176 x2
    19220:        00c12303        lw x6 12 x2
    19224:        0ee12823        sw x14 240 x2
    19228:        0b412703        lw x14 180 x2
    1922c:        0ee12a23        sw x14 244 x2
    19230:        0b812703        lw x14 184 x2
    19234:        0ee12c23        sw x14 248 x2
    19238:        0bc12703        lw x14 188 x2
    1923c:        0ee12e23        sw x14 252 x2
    19240:        0f010513        addi x10 x2 240
    19244:        00612623        sw x6 12 x2
    19248:        f98fd0ef        jal x1 -10344 <_ldcheck>
    1924c:        0ca12623        sw x10 204 x2
    19250:        00200713        addi x14 x0 2
    19254:        00c12303        lw x6 12 x2
    19258:        00e51463        bne x10 x14 8
    1925c:        67c0106f        jal x0 5756
    19260:        00100713        addi x14 x0 1
    19264:        00e51463        bne x10 x14 8
    19268:        05d0106f        jal x0 6236
    1926c:        06100713        addi x14 x0 97
    19270:        00ea9463        bne x21 x14 8
    19274:        12c0206f        jal x0 8492
    19278:        04100713        addi x14 x0 65
    1927c:        00ea9463        bne x21 x14 8
    19280:        4b90106f        jal x0 7352
    19284:        fdfaf793        andi x15 x21 -33
    19288:        fff00713        addi x14 x0 -1
    1928c:        04f12423        sw x15 72 x2
    19290:        00e31463        bne x6 x14 8
    19294:        1a10106f        jal x0 6560
    19298:        04700713        addi x14 x0 71
    1929c:        00e79463        bne x15 x14 8
    192a0:        1d80206f        jal x0 8664
    192a4:        0fc12b03        lw x22 252 x2
    192a8:        05212a23        sw x18 84 x2
    192ac:        10096713        ori x14 x18 256
    192b0:        0f012f03        lw x30 240 x2
    192b4:        0f412d83        lw x27 244 x2
    192b8:        0f812e83        lw x29 248 x2
    192bc:        000b5463        bge x22 x0 8
    192c0:        0400206f        jal x0 8256
    192c4:        04012e23        sw x0 92 x2
    192c8:        00070913        addi x18 x14 0
    192cc:        00012623        sw x0 12 x2
    192d0:        04812703        lw x14 72 x2
    192d4:        04600793        addi x15 x0 70
    192d8:        00f71463        bne x14 x15 8
    192dc:        2a90106f        jal x0 6824
    192e0:        04500793        addi x15 x0 69
    192e4:        00f71463        bne x14 x15 8
    192e8:        0c80206f        jal x0 8392
    192ec:        0b010c13        addi x24 x2 176
    192f0:        0d010793        addi x15 x2 208
    192f4:        0cc10713        addi x14 x2 204
    192f8:        00030693        addi x13 x6 0
    192fc:        0dc10813        addi x16 x2 220
    19300:        00200613        addi x12 x0 2
    19304:        000c0593        addi x11 x24 0
    19308:        000a0513        addi x10 x20 0
    1930c:        00612e23        sw x6 28 x2
    19310:        0be12823        sw x30 176 x2
    19314:        01e12c23        sw x30 24 x2
    19318:        0bd12c23        sw x29 184 x2
    1931c:        01d12a23        sw x29 20 x2
    19320:        0bb12a23        sw x27 180 x2
    19324:        0b612e23        sw x22 188 x2
    19328:        bc4fc0ef        jal x1 -15420 <_ldtoa_r>
    1932c:        04812783        lw x15 72 x2
    19330:        04700713        addi x14 x0 71
    19334:        00050c93        addi x25 x10 0
    19338:        01412e83        lw x29 20 x2
    1933c:        01812f03        lw x30 24 x2
    19340:        01c12303        lw x6 28 x2
    19344:        00e78463        beq x15 x14 8
    19348:        4140206f        jal x0 9236
    1934c:        05412783        lw x15 84 x2
    19350:        0017f713        andi x14 x15 1
    19354:        00070463        beq x14 x0 8
    19358:        1100206f        jal x0 8464
    1935c:        0dc12703        lw x14 220 x2
    19360:        419707b3        sub x15 x14 x25
    19364:        00f12c23        sw x15 24 x2
    19368:        0cc12783        lw x15 204 x2
    1936c:        04700713        addi x14 x0 71
    19370:        00f12a23        sw x15 20 x2
    19374:        04812783        lw x15 72 x2
    19378:        00e79463        bne x15 x14 8
    1937c:        0f90106f        jal x0 6392
    19380:        04812783        lw x15 72 x2
    19384:        04600713        addi x14 x0 70
    19388:        00e79463        bne x15 x14 8
    1938c:        3890106f        jal x0 7048
    19390:        01412783        lw x15 20 x2
    19394:        04100593        addi x11 x0 65
    19398:        0ffaf693        andi x13 x21 255
    1939c:        fff78713        addi x14 x15 -1
    193a0:        04812783        lw x15 72 x2
    193a4:        0ce12623        sw x14 204 x2
    193a8:        00000613        addi x12 x0 0
    193ac:        00b79863        bne x15 x11 16
    193b0:        00f68693        addi x13 x13 15
    193b4:        0ff6f693        andi x13 x13 255
    193b8:        00100613        addi x12 x0 1
    193bc:        0cd10a23        sb x13 212 x2
    193c0:        02b00693        addi x13 x0 43
    193c4:        00075a63        bge x14 x0 20
    193c8:        01412783        lw x15 20 x2
    193cc:        00100713        addi x14 x0 1
    193d0:        02d00693        addi x13 x0 45
    193d4:        40f70733        sub x14 x14 x15
    193d8:        0cd10aa3        sb x13 213 x2
    193dc:        00900693        addi x13 x0 9
    193e0:        00e6c463        blt x13 x14 8
    193e4:        2440206f        jal x0 8772
    193e8:        0e310813        addi x16 x2 227
    193ec:        00080613        addi x12 x16 0
    193f0:        00a00513        addi x10 x0 10
    193f4:        06300313        addi x6 x0 99
    193f8:        00c0006f        jal x0 12
    193fc:        00058613        addi x12 x11 0
    19400:        00068713        addi x14 x13 0
    19404:        02a767b3        rem x15 x14 x10
    19408:        fff60593        addi x11 x12 -1
    1940c:        03078793        addi x15 x15 48
    19410:        fef60fa3        sb x15 -1 x12
    19414:        02a746b3        div x13 x14 x10
    19418:        fee342e3        blt x6 x14 -28
    1941c:        03068713        addi x14 x13 48
    19420:        0ff77713        andi x14 x14 255
    19424:        ffe60693        addi x13 x12 -2
    19428:        fee58fa3        sb x14 -1 x11
    1942c:        0106e463        bltu x13 x16 8
    19430:        3340206f        jal x0 9012
    19434:        0d610593        addi x11 x2 214
    19438:        0080006f        jal x0 8
    1943c:        0006c703        lbu x14 0 x13
    19440:        00158593        addi x11 x11 1
    19444:        00168693        addi x13 x13 1
    19448:        fee58fa3        sb x14 -1 x11
    1944c:        ff0698e3        bne x13 x16 -16
    19450:        0e510713        addi x14 x2 229
    19454:        0d610793        addi x15 x2 214
    19458:        40c70733        sub x14 x14 x12
    1945c:        00e78733        add x14 x15 x14
    19460:        0d410693        addi x13 x2 212
    19464:        40d707b3        sub x15 x14 x13
    19468:        02f12c23        sw x15 56 x2
    1946c:        01812783        lw x15 24 x2
    19470:        03812683        lw x13 56 x2
    19474:        00100713        addi x14 x0 1
    19478:        00d78b33        add x22 x15 x13
    1947c:        00f74463        blt x14 x15 8
    19480:        2600206f        jal x0 8800
    19484:        02812783        lw x15 40 x2
    19488:        00fb0b33        add x22 x22 x15
    1948c:        05412783        lw x15 84 x2
    19490:        fffb4993        xori x19 x22 -1
    19494:        41f9d993        srai x19 x19 31
    19498:        bff7f913        andi x18 x15 -1025
    1949c:        10096913        ori x18 x18 256
    194a0:        013b79b3        and x19 x22 x19
    194a4:        02012023        sw x0 32 x2
    194a8:        00012e23        sw x0 28 x2
    194ac:        00012a23        sw x0 20 x2
    194b0:        05c12783        lw x15 92 x2
    194b4:        00079463        bne x15 x0 8
    194b8:        0310106f        jal x0 6192
    194bc:        02d00713        addi x14 x0 45
    194c0:        0ce103a3        sb x14 199 x2
    194c4:        00000313        addi x6 x0 0
    194c8:        00198993        addi x19 x19 1
    194cc:        1800006f        jal x0 384
    194d0:        02097793        andi x15 x18 32
    194d4:        000c0313        addi x6 x24 0
    194d8:        01096993        ori x19 x18 16
    194dc:        54079e63        bne x15 x0 1372
    194e0:        01012783        lw x15 16 x2
    194e4:        00478793        addi x15 x15 4
    194e8:        01012703        lw x14 16 x2
    194ec:        00000d93        addi x27 x0 0
    194f0:        00f12823        sw x15 16 x2
    194f4:        00072c03        lw x24 0 x14
    194f8:        00100793        addi x15 x0 1
    194fc:        ab5ff06f        jal x0 -1356
    19500:        01012783        lw x15 16 x2
    19504:        0c0103a3        sb x0 199 x2
    19508:        000c0313        addi x6 x24 0
    1950c:        0007ac83        lw x25 0 x15
    19510:        00478c13        addi x24 x15 4
    19514:        760c86e3        beq x25 x0 3948
    19518:        fff00713        addi x14 x0 -1
    1951c:        00e31463        bne x6 x14 8
    19520:        4540106f        jal x0 5204
    19524:        00030613        addi x12 x6 0
    19528:        00000593        addi x11 x0 0
    1952c:        000c8513        addi x10 x25 0
    19530:        00612823        sw x6 16 x2
    19534:        ff1fd0ef        jal x1 -8208 <memchr>
    19538:        00a12623        sw x10 12 x2
    1953c:        01012303        lw x6 16 x2
    19540:        00051463        bne x10 x0 8
    19544:        1410106f        jal x0 6464
    19548:        00c12783        lw x15 12 x2
    1954c:        41978b33        sub x22 x15 x25
    19550:        0c714703        lbu x14 199 x2
    19554:        fffb4993        xori x19 x22 -1
    19558:        41f9d993        srai x19 x19 31
    1955c:        01812823        sw x24 16 x2
    19560:        00012623        sw x0 12 x2
    19564:        02012023        sw x0 32 x2
    19568:        00012e23        sw x0 28 x2
    1956c:        00012a23        sw x0 20 x2
    19570:        013b79b3        and x19 x22 x19
    19574:        00000313        addi x6 x0 0
    19578:        a80718e3        bne x14 x0 -1392
    1957c:        0d00006f        jal x0 208
    19580:        02097793        andi x15 x18 32
    19584:        000c0313        addi x6 x24 0
    19588:        01096913        ori x18 x18 16
    1958c:        48079063        bne x15 x0 1152
    19590:        01012783        lw x15 16 x2
    19594:        00478793        addi x15 x15 4
    19598:        01012703        lw x14 16 x2
    1959c:        00000d93        addi x27 x0 0
    195a0:        00f12823        sw x15 16 x2
    195a4:        00072c03        lw x24 0 x14
    195a8:        4800006f        jal x0 1152
    195ac:        00896913        ori x18 x18 8
    195b0:        0004ce03        lbu x28 0 x9
    195b4:        88dff06f        jal x0 -1908
    195b8:        02097793        andi x15 x18 32
    195bc:        000c0313        addi x6 x24 0
    195c0:        01096993        ori x19 x18 16
    195c4:        48079e63        bne x15 x0 1180
    195c8:        01012783        lw x15 16 x2
    195cc:        00478793        addi x15 x15 4
    195d0:        01012703        lw x14 16 x2
    195d4:        00f12823        sw x15 16 x2
    195d8:        00072c03        lw x24 0 x14
    195dc:        41fc5d93        srai x27 x24 31
    195e0:        000d8713        addi x14 x27 0
    195e4:        2a074063        blt x14 x0 672
    195e8:        fff00793        addi x15 x0 -1
    195ec:        48f30e63        beq x6 x15 1180
    195f0:        01bc67b3        or x15 x24 x27
    195f4:        f7f9f913        andi x18 x19 -129
    195f8:        48079663        bne x15 x0 1164
    195fc:        00030463        beq x6 x0 8
    19600:        63c0106f        jal x0 5692
    19604:        00000313        addi x6 x0 0
    19608:        00000b13        addi x22 x0 0
    1960c:        1b010c93        addi x25 x2 432
    19610:        9d5ff06f        jal x0 -1580
    19614:        01012703        lw x14 16 x2
    19618:        0c0103a3        sb x0 199 x2
    1961c:        00100993        addi x19 x0 1
    19620:        00072783        lw x15 0 x14
    19624:        00470713        addi x14 x14 4
    19628:        00e12823        sw x14 16 x2
    1962c:        14f10623        sb x15 332 x2
    19630:        00100b13        addi x22 x0 1
    19634:        14c10c93        addi x25 x2 332
    19638:        00012623        sw x0 12 x2
    1963c:        00000313        addi x6 x0 0
    19640:        02012023        sw x0 32 x2
    19644:        00012e23        sw x0 28 x2
    19648:        00012a23        sw x0 20 x2
    1964c:        00297f93        andi x31 x18 2
    19650:        000f8463        beq x31 x0 8
    19654:        00298993        addi x19 x19 2
    19658:        08497d93        andi x27 x18 132
    1965c:        0ec12703        lw x14 236 x2
    19660:        000d9663        bne x27 x0 12
    19664:        41340833        sub x16 x8 x19
    19668:        130042e3        blt x0 x16 2340
    1966c:        0c714683        lbu x13 199 x2
    19670:        02068a63        beq x13 x0 52
    19674:        0e812683        lw x13 232 x2
    19678:        0c710613        addi x12 x2 199
    1967c:        00cd2023        sw x12 0 x26
    19680:        00170713        addi x14 x14 1
    19684:        00100613        addi x12 x0 1
    19688:        00168693        addi x13 x13 1
    1968c:        00cd2223        sw x12 4 x26
    19690:        0ee12623        sw x14 236 x2
    19694:        0ed12423        sw x13 232 x2
    19698:        00700613        addi x12 x0 7
    1969c:        008d0d13        addi x26 x26 8
    196a0:        0cd64263        blt x12 x13 196
    196a4:        020f8a63        beq x31 x0 52
    196a8:        0e812683        lw x13 232 x2
    196ac:        0c810613        addi x12 x2 200
    196b0:        00cd2023        sw x12 0 x26
    196b4:        00270713        addi x14 x14 2
    196b8:        00200613        addi x12 x0 2
    196bc:        00168693        addi x13 x13 1
    196c0:        00cd2223        sw x12 4 x26
    196c4:        0ee12623        sw x14 236 x2
    196c8:        0ed12423        sw x13 232 x2
    196cc:        00700613        addi x12 x0 7
    196d0:        008d0d13        addi x26 x26 8
    196d4:        1cd64ee3        blt x12 x13 2524
    196d8:        08000693        addi x13 x0 128
    196dc:        56dd8a63        beq x27 x13 1396
    196e0:        41630c33        sub x24 x6 x22
    196e4:        67804c63        blt x0 x24 1656
    196e8:        10097693        andi x13 x18 256
    196ec:        40069e63        bne x13 x0 1052
    196f0:        0e812783        lw x15 232 x2
    196f4:        01670733        add x14 x14 x22
    196f8:        019d2023        sw x25 0 x26
    196fc:        00178793        addi x15 x15 1
    19700:        016d2223        sw x22 4 x26
    19704:        0ee12623        sw x14 236 x2
    19708:        0ef12423        sw x15 232 x2
    1970c:        00700693        addi x13 x0 7
    19710:        008d0d13        addi x26 x26 8
    19714:        04f6c6e3        blt x13 x15 2124
    19718:        00497913        andi x18 x18 4
    1971c:        00090663        beq x18 x0 12
    19720:        41340933        sub x18 x8 x19
    19724:        07204863        blt x0 x18 112
    19728:        01345463        bge x8 x19 8
    1972c:        00098413        addi x8 x19 0
    19730:        00412783        lw x15 4 x2
    19734:        008787b3        add x15 x15 x8
    19738:        00f12223        sw x15 4 x2
    1973c:        fa071463        bne x14 x0 -2136
    19740:        00c12783        lw x15 12 x2
    19744:        0e012423        sw x0 232 x2
    19748:        00078863        beq x15 x0 16
    1974c:        00c12583        lw x11 12 x2
    19750:        000a0513        addi x10 x20 0
    19754:        b60fa0ef        jal x1 -23712 <_free_r>
    19758:        10c10d13        addi x26 x2 268
    1975c:        00048c93        addi x25 x9 0
    19760:        9e9ff06f        jal x0 -1560
    19764:        00812583        lw x11 8 x2
    19768:        0e410613        addi x12 x2 228
    1976c:        000a0513        addi x10 x20 0
    19770:        04612423        sw x6 72 x2
    19774:        03f12a23        sw x31 52 x2
    19778:        0f9040ef        jal x1 18680 <__ssprint_r>
    1977c:        f6051e63        bne x10 x0 -2180
    19780:        0ec12703        lw x14 236 x2
    19784:        10c10d13        addi x26 x2 268
    19788:        04812303        lw x6 72 x2
    1978c:        03412f83        lw x31 52 x2
    19790:        f15ff06f        jal x0 -236
    19794:        0e812783        lw x15 232 x2
    19798:        0000bc17        auipc x24 0xb
    1979c:        e4cc0c13        addi x24 x24 -436
    197a0:        072bd063        bge x23 x18 96
    197a4:        00700b13        addi x22 x0 7
    197a8:        00812a83        lw x21 8 x2
    197ac:        00c0006f        jal x0 12
    197b0:        ff090913        addi x18 x18 -16
    197b4:        052bd663        bge x23 x18 76
    197b8:        01070713        addi x14 x14 16
    197bc:        00178793        addi x15 x15 1
    197c0:        018d2023        sw x24 0 x26
    197c4:        017d2223        sw x23 4 x26
    197c8:        0ee12623        sw x14 236 x2
    197cc:        0ef12423        sw x15 232 x2
    197d0:        008d0d13        addi x26 x26 8
    197d4:        fcfb5ee3        bge x22 x15 -36
    197d8:        0e410613        addi x12 x2 228
    197dc:        000a8593        addi x11 x21 0
    197e0:        000a0513        addi x10 x20 0
    197e4:        08d040ef        jal x1 18572 <__ssprint_r>
    197e8:        f0051863        bne x10 x0 -2288
    197ec:        ff090913        addi x18 x18 -16
    197f0:        0ec12703        lw x14 236 x2
    197f4:        0e812783        lw x15 232 x2
    197f8:        10c10d13        addi x26 x2 268
    197fc:        fb2bcee3        blt x23 x18 -68
    19800:        01270733        add x14 x14 x18
    19804:        00178793        addi x15 x15 1
    19808:        018d2023        sw x24 0 x26
    1980c:        012d2223        sw x18 4 x26
    19810:        0ee12623        sw x14 236 x2
    19814:        0ef12423        sw x15 232 x2
    19818:        00700693        addi x13 x0 7
    1981c:        f0f6d6e3        bge x13 x15 -244
    19820:        00812583        lw x11 8 x2
    19824:        0e410613        addi x12 x2 228
    19828:        000a0513        addi x10 x20 0
    1982c:        045040ef        jal x1 18500 <__ssprint_r>
    19830:        ec051463        bne x10 x0 -2360
    19834:        0ec12703        lw x14 236 x2
    19838:        ef1ff06f        jal x0 -272
    1983c:        02097793        andi x15 x18 32
    19840:        000c0313        addi x6 x24 0
    19844:        20079c63        bne x15 x0 536
    19848:        01012783        lw x15 16 x2
    1984c:        01097713        andi x14 x18 16
    19850:        00478793        addi x15 x15 4
    19854:        00070463        beq x14 x0 8
    19858:        6fd0106f        jal x0 7932
    1985c:        04097713        andi x14 x18 64
    19860:        00071463        bne x14 x0 8
    19864:        23c0106f        jal x0 4668
    19868:        01012703        lw x14 16 x2
    1986c:        00f12823        sw x15 16 x2
    19870:        00090993        addi x19 x18 0
    19874:        00071c03        lh x24 0 x14
    19878:        41fc5d93        srai x27 x24 31
    1987c:        000d8713        addi x14 x27 0
    19880:        d60754e3        bge x14 x0 -664
    19884:        41800c33        sub x24 x0 x24
    19888:        018037b3        sltu x15 x0 x24
    1988c:        41b00db3        sub x27 x0 x27
    19890:        40fd8db3        sub x27 x27 x15
    19894:        02d00793        addi x15 x0 45
    19898:        0cf103a3        sb x15 199 x2
    1989c:        fff00713        addi x14 x0 -1
    198a0:        00100793        addi x15 x0 1
    198a4:        f0e31c63        bne x6 x14 -2280
    198a8:        00100713        addi x14 x0 1
    198ac:        1ce78e63        beq x15 x14 476
    198b0:        00200713        addi x14 x0 2
    198b4:        20e78863        beq x15 x14 528
    198b8:        1b010693        addi x13 x2 432
    198bc:        0080006f        jal x0 8
    198c0:        000c8693        addi x13 x25 0
    198c4:        01dd9793        slli x15 x27 29
    198c8:        007c7713        andi x14 x24 7
    198cc:        003c5c13        srli x24 x24 3
    198d0:        03070713        addi x14 x14 48
    198d4:        0187ec33        or x24 x15 x24
    198d8:        003ddd93        srli x27 x27 3
    198dc:        fee68fa3        sb x14 -1 x13
    198e0:        01bc67b3        or x15 x24 x27
    198e4:        fff68c93        addi x25 x13 -1
    198e8:        fc079ce3        bne x15 x0 -40
    198ec:        0019f613        andi x12 x19 1
    198f0:        20060463        beq x12 x0 520
    198f4:        03000613        addi x12 x0 48
    198f8:        20c70063        beq x14 x12 512
    198fc:        ffe68693        addi x13 x13 -2
    19900:        1b010793        addi x15 x2 432
    19904:        fecc8fa3        sb x12 -1 x25
    19908:        40d78b33        sub x22 x15 x13
    1990c:        00098913        addi x18 x19 0
    19910:        00068c93        addi x25 x13 0
    19914:        ed0ff06f        jal x0 -2352
    19918:        02b00793        addi x15 x0 43
    1991c:        0cf103a3        sb x15 199 x2
    19920:        0004ce03        lbu x28 0 x9
    19924:        d1cff06f        jal x0 -2788
    19928:        01012783        lw x15 16 x2
    1992c:        0004ce03        lbu x28 0 x9
    19930:        0007a403        lw x8 0 x15
    19934:        00478793        addi x15 x15 4
    19938:        00f12823        sw x15 16 x2
    1993c:        d0045263        bge x8 x0 -2812
    19940:        40800433        sub x8 x0 x8
    19944:        00496913        ori x18 x18 4
    19948:        cf8ff06f        jal x0 -2824
    1994c:        08096913        ori x18 x18 128
    19950:        0004ce03        lbu x28 0 x9
    19954:        cecff06f        jal x0 -2836
    19958:        0004ca83        lbu x21 0 x9
    1995c:        00148793        addi x15 x9 1
    19960:        016a9463        bne x21 x22 8
    19964:        5cd0106f        jal x0 7628
    19968:        fd0a8693        addi x13 x21 -48
    1996c:        00078493        addi x9 x15 0
    19970:        00000c13        addi x24 x0 0
    19974:        ccd9ec63        bltu x19 x13 -2856
    19978:        00148493        addi x9 x9 1
    1997c:        002c1793        slli x15 x24 2
    19980:        fff4ca83        lbu x21 -1 x9
    19984:        018787b3        add x15 x15 x24
    19988:        00179793        slli x15 x15 1
    1998c:        00d78c33        add x24 x15 x13
    19990:        fd0a8693        addi x13 x21 -48
    19994:        fed9f2e3        bgeu x19 x13 -28
    19998:        cb4ff06f        jal x0 -2892
    1999c:        00196913        ori x18 x18 1
    199a0:        0004ce03        lbu x28 0 x9
    199a4:        c9cff06f        jal x0 -2916
    199a8:        0c714783        lbu x15 199 x2
    199ac:        0004ce03        lbu x28 0 x9
    199b0:        c8079863        bne x15 x0 -2928
    199b4:        02000793        addi x15 x0 32
    199b8:        0cf103a3        sb x15 199 x2
    199bc:        c84ff06f        jal x0 -2940
    199c0:        02097793        andi x15 x18 32
    199c4:        000c0313        addi x6 x24 0
    199c8:        06079663        bne x15 x0 108
    199cc:        01012683        lw x13 16 x2
    199d0:        01097713        andi x14 x18 16
    199d4:        00468793        addi x15 x13 4
    199d8:        0006ac03        lw x24 0 x13
    199dc:        00070463        beq x14 x0 8
    199e0:        5a90106f        jal x0 7592
    199e4:        04097713        andi x14 x18 64
    199e8:        00071463        bne x14 x0 8
    199ec:        07c0106f        jal x0 4220
    199f0:        010c1c13        slli x24 x24 16
    199f4:        00f12823        sw x15 16 x2
    199f8:        010c5c13        srli x24 x24 16
    199fc:        00000d93        addi x27 x0 0
    19a00:        00090993        addi x19 x18 0
    19a04:        00100793        addi x15 x0 1
    19a08:        da8ff06f        jal x0 -2648
    19a0c:        01012783        lw x15 16 x2
    19a10:        00778793        addi x15 x15 7
    19a14:        ff87f793        andi x15 x15 -8
    19a18:        0007ac03        lw x24 0 x15
    19a1c:        0047ad83        lw x27 4 x15
    19a20:        00878713        addi x14 x15 8
    19a24:        00e12823        sw x14 16 x2
    19a28:        bff97993        andi x19 x18 -1025
    19a2c:        00000793        addi x15 x0 0
    19a30:        d80ff06f        jal x0 -2688
    19a34:        00090993        addi x19 x18 0
    19a38:        01012783        lw x15 16 x2
    19a3c:        00778793        addi x15 x15 7
    19a40:        ff87f793        andi x15 x15 -8
    19a44:        00878713        addi x14 x15 8
    19a48:        0007ac03        lw x24 0 x15
    19a4c:        0047ad83        lw x27 4 x15
    19a50:        00e12823        sw x14 16 x2
    19a54:        00100793        addi x15 x0 1
    19a58:        d58ff06f        jal x0 -2728
    19a5c:        00090993        addi x19 x18 0
    19a60:        01012783        lw x15 16 x2
    19a64:        00778793        addi x15 x15 7
    19a68:        ff87f793        andi x15 x15 -8
    19a6c:        0047a703        lw x14 4 x15
    19a70:        00878693        addi x13 x15 8
    19a74:        00d12823        sw x13 16 x2
    19a78:        0007ac03        lw x24 0 x15
    19a7c:        00070d93        addi x27 x14 0
    19a80:        b65ff06f        jal x0 -1180
    19a84:        00090993        addi x19 x18 0
    19a88:        540d90e3        bne x27 x0 3392
    19a8c:        00900793        addi x15 x0 9
    19a90:        5387ece3        bltu x15 x24 3384
    19a94:        030c0c13        addi x24 x24 48
    19a98:        1b8107a3        sb x24 431 x2
    19a9c:        00098913        addi x18 x19 0
    19aa0:        00100b13        addi x22 x0 1
    19aa4:        1af10c93        addi x25 x2 431
    19aa8:        d3cff06f        jal x0 -2756
    19aac:        00100713        addi x14 x0 1
    19ab0:        00e79463        bne x15 x14 8
    19ab4:        1880106f        jal x0 4488
    19ab8:        00200713        addi x14 x0 2
    19abc:        00090993        addi x19 x18 0
    19ac0:        dee79ce3        bne x15 x14 -520
    19ac4:        02c12683        lw x13 44 x2
    19ac8:        1b010c93        addi x25 x2 432
    19acc:        00fc7793        andi x15 x24 15
    19ad0:        00f687b3        add x15 x13 x15
    19ad4:        0007c783        lbu x15 0 x15
    19ad8:        01cd9713        slli x14 x27 28
    19adc:        004c5c13        srli x24 x24 4
    19ae0:        fffc8c93        addi x25 x25 -1
    19ae4:        01876c33        or x24 x14 x24
    19ae8:        004ddd93        srli x27 x27 4
    19aec:        00fc8023        sb x15 0 x25
    19af0:        01bc67b3        or x15 x24 x27
    19af4:        fc079ce3        bne x15 x0 -40
    19af8:        1b010793        addi x15 x2 432
    19afc:        41978b33        sub x22 x15 x25
    19b00:        00098913        addi x18 x19 0
    19b04:        ce0ff06f        jal x0 -2848
    19b08:        06500693        addi x13 x0 101
    19b0c:        3356d863        bge x13 x21 816
    19b10:        0f012683        lw x13 240 x2
    19b14:        0a010593        addi x11 x2 160
    19b18:        0b010513        addi x10 x2 176
    19b1c:        0ad12823        sw x13 176 x2
    19b20:        0f412683        lw x13 244 x2
    19b24:        02e12a23        sw x14 52 x2
    19b28:        0a012023        sw x0 160 x2
    19b2c:        0ad12a23        sw x13 180 x2
    19b30:        0f812683        lw x13 248 x2
    19b34:        0a012223        sw x0 164 x2
    19b38:        0a012423        sw x0 168 x2
    19b3c:        0ad12c23        sw x13 184 x2
    19b40:        0fc12683        lw x13 252 x2
    19b44:        0a012623        sw x0 172 x2
    19b48:        0ad12e23        sw x13 188 x2
    19b4c:        2b8070ef        jal x1 29368 <__netf2>
    19b50:        03412703        lw x14 52 x2
    19b54:        58051463        bne x10 x0 1416
    19b58:        0e812783        lw x15 232 x2
    19b5c:        0000a697        auipc x13 0xa
    19b60:        56468693        addi x13 x13 1380
    19b64:        00170713        addi x14 x14 1
    19b68:        00dd2023        sw x13 0 x26
    19b6c:        00178793        addi x15 x15 1
    19b70:        00100693        addi x13 x0 1
    19b74:        00dd2223        sw x13 4 x26
    19b78:        0ee12623        sw x14 236 x2
    19b7c:        0ef12423        sw x15 232 x2
    19b80:        00700713        addi x14 x0 7
    19b84:        008d0d13        addi x26 x26 8
    19b88:        42f740e3        blt x14 x15 3104
    19b8c:        0cc12783        lw x15 204 x2
    19b90:        01812703        lw x14 24 x2
    19b94:        00e7ca63        blt x15 x14 20
    19b98:        00197793        andi x15 x18 1
    19b9c:        00079663        bne x15 x0 12
    19ba0:        0ec12703        lw x14 236 x2
    19ba4:        b75ff06f        jal x0 -1164
    19ba8:        03012783        lw x15 48 x2
    19bac:        02812683        lw x13 40 x2
    19bb0:        0ec12703        lw x14 236 x2
    19bb4:        00fd2023        sw x15 0 x26
    19bb8:        0e812783        lw x15 232 x2
    19bbc:        00e68733        add x14 x13 x14
    19bc0:        00dd2223        sw x13 4 x26
    19bc4:        00178793        addi x15 x15 1
    19bc8:        0ee12623        sw x14 236 x2
    19bcc:        0ef12423        sw x15 232 x2
    19bd0:        00700693        addi x13 x0 7
    19bd4:        008d0d13        addi x26 x26 8
    19bd8:        02f6cae3        blt x13 x15 2100
    19bdc:        01812783        lw x15 24 x2
    19be0:        fff78b13        addi x22 x15 -1
    19be4:        b3605ae3        bge x0 x22 -1228
    19be8:        0e812783        lw x15 232 x2
    19bec:        4b6bd6e3        bge x23 x22 3244
    19bf0:        00700c13        addi x24 x0 7
    19bf4:        00812a83        lw x21 8 x2
    19bf8:        00c0006f        jal x0 12
    19bfc:        ff0b0b13        addi x22 x22 -16
    19c00:        496bdce3        bge x23 x22 3224
    19c04:        01070713        addi x14 x14 16
    19c08:        00178793        addi x15 x15 1
    19c0c:        0000b697        auipc x13 0xb
    19c10:        9e868693        addi x13 x13 -1560
    19c14:        00dd2023        sw x13 0 x26
    19c18:        017d2223        sw x23 4 x26
    19c1c:        0ee12623        sw x14 236 x2
    19c20:        0ef12423        sw x15 232 x2
    19c24:        008d0d13        addi x26 x26 8
    19c28:        fcfc5ae3        bge x24 x15 -44
    19c2c:        0e410613        addi x12 x2 228
    19c30:        000a8593        addi x11 x21 0
    19c34:        000a0513        addi x10 x20 0
    19c38:        438040ef        jal x1 17464 <__ssprint_r>
    19c3c:        aa051e63        bne x10 x0 -3396
    19c40:        0ec12703        lw x14 236 x2
    19c44:        0e812783        lw x15 232 x2
    19c48:        10c10d13        addi x26 x2 268
    19c4c:        fb1ff06f        jal x0 -80
    19c50:        41340c33        sub x24 x8 x19
    19c54:        a98056e3        bge x0 x24 -1396
    19c58:        0e812683        lw x13 232 x2
    19c5c:        0b8bd463        bge x23 x24 168
    19c60:        02912a23        sw x9 52 x2
    19c64:        000d0793        addi x15 x26 0
    19c68:        000c0493        addi x9 x24 0
    19c6c:        000c8d13        addi x26 x25 0
    19c70:        00098c13        addi x24 x19 0
    19c74:        000b0c93        addi x25 x22 0
    19c78:        00040993        addi x19 x8 0
    19c7c:        00700d93        addi x27 x0 7
    19c80:        00812403        lw x8 8 x2
    19c84:        00030b13        addi x22 x6 0
    19c88:        00c0006f        jal x0 12
    19c8c:        ff048493        addi x9 x9 -16
    19c90:        049bda63        bge x23 x9 84
    19c94:        01070713        addi x14 x14 16
    19c98:        00168693        addi x13 x13 1
    19c9c:        0000b617        auipc x12 0xb
    19ca0:        95860613        addi x12 x12 -1704
    19ca4:        00c7a023        sw x12 0 x15
    19ca8:        0177a223        sw x23 4 x15
    19cac:        0ee12623        sw x14 236 x2
    19cb0:        0ed12423        sw x13 232 x2
    19cb4:        00878793        addi x15 x15 8
    19cb8:        fcdddae3        bge x27 x13 -44
    19cbc:        0e410613        addi x12 x2 228
    19cc0:        00040593        addi x11 x8 0
    19cc4:        000a0513        addi x10 x20 0
    19cc8:        3a8040ef        jal x1 17320 <__ssprint_r>
    19ccc:        a2051663        bne x10 x0 -3540
    19cd0:        ff048493        addi x9 x9 -16
    19cd4:        0ec12703        lw x14 236 x2
    19cd8:        0e812683        lw x13 232 x2
    19cdc:        10c10793        addi x15 x2 268
    19ce0:        fa9bcae3        blt x23 x9 -76
    19ce4:        00098413        addi x8 x19 0
    19ce8:        000c0993        addi x19 x24 0
    19cec:        00048c13        addi x24 x9 0
    19cf0:        03412483        lw x9 52 x2
    19cf4:        000b0313        addi x6 x22 0
    19cf8:        000c8b13        addi x22 x25 0
    19cfc:        000d0c93        addi x25 x26 0
    19d00:        00078d13        addi x26 x15 0
    19d04:        01870733        add x14 x14 x24
    19d08:        00168693        addi x13 x13 1
    19d0c:        0000b797        auipc x15 0xb
    19d10:        8e878793        addi x15 x15 -1816
    19d14:        00fd2023        sw x15 0 x26
    19d18:        018d2223        sw x24 4 x26
    19d1c:        0ee12623        sw x14 236 x2
    19d20:        0ed12423        sw x13 232 x2
    19d24:        00700613        addi x12 x0 7
    19d28:        008d0d13        addi x26 x26 8
    19d2c:        9ad65ae3        bge x12 x13 -1612
    19d30:        00812583        lw x11 8 x2
    19d34:        0e410613        addi x12 x2 228
    19d38:        000a0513        addi x10 x20 0
    19d3c:        02612a23        sw x6 52 x2
    19d40:        330040ef        jal x1 17200 <__ssprint_r>
    19d44:        9a051a63        bne x10 x0 -3660
    19d48:        03412303        lw x6 52 x2
    19d4c:        0ec12703        lw x14 236 x2
    19d50:        10c10d13        addi x26 x2 268
    19d54:        41630c33        sub x24 x6 x22
    19d58:        998058e3        bge x0 x24 -1648
    19d5c:        0e812683        lw x13 232 x2
    19d60:        098bd863        bge x23 x24 144
    19d64:        02912a23        sw x9 52 x2
    19d68:        00700d93        addi x27 x0 7
    19d6c:        000c0493        addi x9 x24 0
    19d70:        000b0c13        addi x24 x22 0
    19d74:        00098b13        addi x22 x19 0
    19d78:        00040993        addi x19 x8 0
    19d7c:        00812403        lw x8 8 x2
    19d80:        00c0006f        jal x0 12
    19d84:        ff048493        addi x9 x9 -16
    19d88:        049bda63        bge x23 x9 84
    19d8c:        01070713        addi x14 x14 16
    19d90:        00168693        addi x13 x13 1
    19d94:        0000b797        auipc x15 0xb
    19d98:        86078793        addi x15 x15 -1952
    19d9c:        00fd2023        sw x15 0 x26
    19da0:        017d2223        sw x23 4 x26
    19da4:        0ee12623        sw x14 236 x2
    19da8:        0ed12423        sw x13 232 x2
    19dac:        008d0d13        addi x26 x26 8
    19db0:        fcdddae3        bge x27 x13 -44
    19db4:        0e410613        addi x12 x2 228
    19db8:        00040593        addi x11 x8 0
    19dbc:        000a0513        addi x10 x20 0
    19dc0:        2b0040ef        jal x1 17072 <__ssprint_r>
    19dc4:        92051a63        bne x10 x0 -3788
    19dc8:        ff048493        addi x9 x9 -16
    19dcc:        0ec12703        lw x14 236 x2
    19dd0:        0e812683        lw x13 232 x2
    19dd4:        10c10d13        addi x26 x2 268
    19dd8:        fa9bcae3        blt x23 x9 -76
    19ddc:        00098413        addi x8 x19 0
    19de0:        000b0993        addi x19 x22 0
    19de4:        000c0b13        addi x22 x24 0
    19de8:        00048c13        addi x24 x9 0
    19dec:        03412483        lw x9 52 x2
    19df0:        01870733        add x14 x14 x24
    19df4:        00168693        addi x13 x13 1
    19df8:        0000a797        auipc x15 0xa
    19dfc:        7fc78793        addi x15 x15 2044
    19e00:        00fd2023        sw x15 0 x26
    19e04:        018d2223        sw x24 4 x26
    19e08:        0ee12623        sw x14 236 x2
    19e0c:        0ed12423        sw x13 232 x2
    19e10:        00700613        addi x12 x0 7
    19e14:        008d0d13        addi x26 x26 8
    19e18:        8cd658e3        bge x12 x13 -1840
    19e1c:        00812583        lw x11 8 x2
    19e20:        0e410613        addi x12 x2 228
    19e24:        000a0513        addi x10 x20 0
    19e28:        248040ef        jal x1 16968 <__ssprint_r>
    19e2c:        8c051663        bne x10 x0 -3892
    19e30:        0ec12703        lw x14 236 x2
    19e34:        10c10d13        addi x26 x2 268
    19e38:        8b1ff06f        jal x0 -1872
    19e3c:        0e812603        lw x12 232 x2
    19e40:        01812783        lw x15 24 x2
    19e44:        00100693        addi x13 x0 1
    19e48:        019d2023        sw x25 0 x26
    19e4c:        00170713        addi x14 x14 1
    19e50:        00160b13        addi x22 x12 1
    19e54:        008d0c13        addi x24 x26 8
    19e58:        3ef6de63        bge x13 x15 1020
    19e5c:        00100693        addi x13 x0 1
    19e60:        00dd2223        sw x13 4 x26
    19e64:        0ee12623        sw x14 236 x2
    19e68:        0f612423        sw x22 232 x2
    19e6c:        00700693        addi x13 x0 7
    19e70:        4966c663        blt x13 x22 1164
    19e74:        02812783        lw x15 40 x2
    19e78:        03012683        lw x13 48 x2
    19e7c:        001b0b13        addi x22 x22 1
    19e80:        00f70733        add x14 x14 x15
    19e84:        00dc2023        sw x13 0 x24
    19e88:        00fc2223        sw x15 4 x24
    19e8c:        0ee12623        sw x14 236 x2
    19e90:        0f612423        sw x22 232 x2
    19e94:        00700693        addi x13 x0 7
    19e98:        008c0c13        addi x24 x24 8
    19e9c:        4966c463        blt x13 x22 1160
    19ea0:        0f012683        lw x13 240 x2
    19ea4:        01812783        lw x15 24 x2
    19ea8:        001b0813        addi x16 x22 1
    19eac:        0ad12823        sw x13 176 x2
    19eb0:        0f412683        lw x13 244 x2
    19eb4:        0a010593        addi x11 x2 160
    19eb8:        0b010513        addi x10 x2 176
    19ebc:        0ad12a23        sw x13 180 x2
    19ec0:        0f812683        lw x13 248 x2
    19ec4:        02e12023        sw x14 32 x2
    19ec8:        00080a93        addi x21 x16 0
    19ecc:        0ad12c23        sw x13 184 x2
    19ed0:        0fc12683        lw x13 252 x2
    19ed4:        01012e23        sw x16 28 x2
    19ed8:        0a012023        sw x0 160 x2
    19edc:        0ad12e23        sw x13 188 x2
    19ee0:        fff78693        addi x13 x15 -1
    19ee4:        00d12a23        sw x13 20 x2
    19ee8:        0a012223        sw x0 164 x2
    19eec:        0a012423        sw x0 168 x2
    19ef0:        0a012623        sw x0 172 x2
    19ef4:        711060ef        jal x1 28432 <__netf2>
    19ef8:        008c0d13        addi x26 x24 8
    19efc:        01412683        lw x13 20 x2
    19f00:        01c12803        lw x16 28 x2
    19f04:        02012703        lw x14 32 x2
    19f08:        36050a63        beq x10 x0 884
    19f0c:        001c8793        addi x15 x25 1
    19f10:        00d70733        add x14 x14 x13
    19f14:        00fc2023        sw x15 0 x24
    19f18:        00dc2223        sw x13 4 x24
    19f1c:        0ee12623        sw x14 236 x2
    19f20:        0f512423        sw x21 232 x2
    19f24:        00700793        addi x15 x0 7
    19f28:        7557cc63        blt x15 x21 1880
    19f2c:        010c0793        addi x15 x24 16
    19f30:        002b0a93        addi x21 x22 2
    19f34:        000d0c13        addi x24 x26 0
    19f38:        00078d13        addi x26 x15 0
    19f3c:        03812683        lw x13 56 x2
    19f40:        0d410793        addi x15 x2 212
    19f44:        00fc2023        sw x15 0 x24
    19f48:        00e68733        add x14 x13 x14
    19f4c:        00dc2223        sw x13 4 x24
    19f50:        0ee12623        sw x14 236 x2
    19f54:        0f512423        sw x21 232 x2
    19f58:        00700793        addi x15 x0 7
    19f5c:        fb57de63        bge x15 x21 -2116
    19f60:        00812583        lw x11 8 x2
    19f64:        0e410613        addi x12 x2 228
    19f68:        000a0513        addi x10 x20 0
    19f6c:        104040ef        jal x1 16644 <__ssprint_r>
    19f70:        00050463        beq x10 x0 8
    19f74:        f85fe06f        jal x0 -4220
    19f78:        0ec12703        lw x14 236 x2
    19f7c:        10c10d13        addi x26 x2 268
    19f80:        f98ff06f        jal x0 -2152
    19f84:        00090993        addi x19 x18 0
    19f88:        921ff06f        jal x0 -1760
    19f8c:        0e812683        lw x13 232 x2
    19f90:        0000ac17        auipc x24 0xa
    19f94:        654c0c13        addi x24 x24 1620
    19f98:        0d0bd063        bge x23 x16 192
    19f9c:        04912423        sw x9 72 x2
    19fa0:        05212623        sw x18 76 x2
    19fa4:        000d0793        addi x15 x26 0
    19fa8:        000c0913        addi x18 x24 0
    19fac:        000c8d13        addi x26 x25 0
    19fb0:        00098c13        addi x24 x19 0
    19fb4:        000b0c93        addi x25 x22 0
    19fb8:        00040993        addi x19 x8 0
    19fbc:        00700293        addi x5 x0 7
    19fc0:        03f12a23        sw x31 52 x2
    19fc4:        00812483        lw x9 8 x2
    19fc8:        00030b13        addi x22 x6 0
    19fcc:        00080413        addi x8 x16 0
    19fd0:        00c0006f        jal x0 12
    19fd4:        ff040413        addi x8 x8 -16
    19fd8:        048bda63        bge x23 x8 84
    19fdc:        01070713        addi x14 x14 16
    19fe0:        00168693        addi x13 x13 1
    19fe4:        0127a023        sw x18 0 x15
    19fe8:        0177a223        sw x23 4 x15
    19fec:        0ee12623        sw x14 236 x2
    19ff0:        0ed12423        sw x13 232 x2
    19ff4:        00878793        addi x15 x15 8
    19ff8:        fcd2dee3        bge x5 x13 -36
    19ffc:        0e410613        addi x12 x2 228
    1a000:        00048593        addi x11 x9 0
    1a004:        000a0513        addi x10 x20 0
    1a008:        068040ef        jal x1 16488 <__ssprint_r>
    1a00c:        00050463        beq x10 x0 8
    1a010:        ee9fe06f        jal x0 -4376
    1a014:        ff040413        addi x8 x8 -16
    1a018:        0ec12703        lw x14 236 x2
    1a01c:        0e812683        lw x13 232 x2
    1a020:        10c10793        addi x15 x2 268
    1a024:        00700293        addi x5 x0 7
    1a028:        fa8bcae3        blt x23 x8 -76
    1a02c:        00040813        addi x16 x8 0
    1a030:        03412f83        lw x31 52 x2
    1a034:        00098413        addi x8 x19 0
    1a038:        04812483        lw x9 72 x2
    1a03c:        000c0993        addi x19 x24 0
    1a040:        00090c13        addi x24 x18 0
    1a044:        04c12903        lw x18 76 x2
    1a048:        000b0313        addi x6 x22 0
    1a04c:        000c8b13        addi x22 x25 0
    1a050:        000d0c93        addi x25 x26 0
    1a054:        00078d13        addi x26 x15 0
    1a058:        01070733        add x14 x14 x16
    1a05c:        00168693        addi x13 x13 1
    1a060:        018d2023        sw x24 0 x26
    1a064:        010d2223        sw x16 4 x26
    1a068:        0ee12623        sw x14 236 x2
    1a06c:        0ed12423        sw x13 232 x2
    1a070:        00700613        addi x12 x0 7
    1a074:        008d0d13        addi x26 x26 8
    1a078:        ded65a63        bge x12 x13 -2572
    1a07c:        00812583        lw x11 8 x2
    1a080:        0e410613        addi x12 x2 228
    1a084:        000a0513        addi x10 x20 0
    1a088:        04612423        sw x6 72 x2
    1a08c:        03f12a23        sw x31 52 x2
    1a090:        7e1030ef        jal x1 16352 <__ssprint_r>
    1a094:        00050463        beq x10 x0 8
    1a098:        e61fe06f        jal x0 -4512
    1a09c:        0ec12703        lw x14 236 x2
    1a0a0:        10c10d13        addi x26 x2 268
    1a0a4:        04812303        lw x6 72 x2
    1a0a8:        03412f83        lw x31 52 x2
    1a0ac:        dc0ff06f        jal x0 -2624
    1a0b0:        00812583        lw x11 8 x2
    1a0b4:        0e410613        addi x12 x2 228
    1a0b8:        000a0513        addi x10 x20 0
    1a0bc:        02612a23        sw x6 52 x2
    1a0c0:        7b1030ef        jal x1 16304 <__ssprint_r>
    1a0c4:        00050463        beq x10 x0 8
    1a0c8:        e31fe06f        jal x0 -4560
    1a0cc:        0ec12703        lw x14 236 x2
    1a0d0:        10c10d13        addi x26 x2 268
    1a0d4:        03412303        lw x6 52 x2
    1a0d8:        e00ff06f        jal x0 -2560
    1a0dc:        0cc12603        lw x12 204 x2
    1a0e0:        5ec05a63        bge x0 x12 1524
    1a0e4:        01812783        lw x15 24 x2
    1a0e8:        01412683        lw x13 20 x2
    1a0ec:        00078b13        addi x22 x15 0
    1a0f0:        30f6c863        blt x13 x15 784
    1a0f4:        03605663        bge x0 x22 44
    1a0f8:        0e812683        lw x13 232 x2
    1a0fc:        01670733        add x14 x14 x22
    1a100:        019d2023        sw x25 0 x26
    1a104:        00168693        addi x13 x13 1
    1a108:        016d2223        sw x22 4 x26
    1a10c:        0ee12623        sw x14 236 x2
    1a110:        0ed12423        sw x13 232 x2
    1a114:        00700613        addi x12 x0 7
    1a118:        008d0d13        addi x26 x26 8
    1a11c:        22d646e3        blt x12 x13 2604
    1a120:        fffb4693        xori x13 x22 -1
    1a124:        01412783        lw x15 20 x2
    1a128:        41f6d693        srai x13 x13 31
    1a12c:        00db7b33        and x22 x22 x13
    1a130:        41678b33        sub x22 x15 x22
    1a134:        37604663        blt x0 x22 876
    1a138:        01412783        lw x15 20 x2
    1a13c:        40097693        andi x13 x18 1024
    1a140:        00fc8ab3        add x21 x25 x15
    1a144:        3c069463        bne x13 x0 968
    1a148:        0cc12b03        lw x22 204 x2
    1a14c:        01812783        lw x15 24 x2
    1a150:        00fb4663        blt x22 x15 12
    1a154:        00197693        andi x13 x18 1
    1a158:        20068ee3        beq x13 x0 2588
    1a15c:        03012683        lw x13 48 x2
    1a160:        02812783        lw x15 40 x2
    1a164:        00700613        addi x12 x0 7
    1a168:        00dd2023        sw x13 0 x26
    1a16c:        0e812683        lw x13 232 x2
    1a170:        00f70733        add x14 x14 x15
    1a174:        00fd2223        sw x15 4 x26
    1a178:        00168693        addi x13 x13 1
    1a17c:        0ee12623        sw x14 236 x2
    1a180:        0ed12423        sw x13 232 x2
    1a184:        008d0d13        addi x26 x26 8
    1a188:        4cd64ae3        blt x12 x13 3284
    1a18c:        01812683        lw x13 24 x2
    1a190:        00dc87b3        add x15 x25 x13
    1a194:        41668b33        sub x22 x13 x22
    1a198:        415787b3        sub x15 x15 x21
    1a19c:        000b0c13        addi x24 x22 0
    1a1a0:        0167d463        bge x15 x22 8
    1a1a4:        00078c13        addi x24 x15 0
    1a1a8:        03805663        bge x0 x24 44
    1a1ac:        0e812783        lw x15 232 x2
    1a1b0:        01870733        add x14 x14 x24
    1a1b4:        015d2023        sw x21 0 x26
    1a1b8:        00178793        addi x15 x15 1
    1a1bc:        018d2223        sw x24 4 x26
    1a1c0:        0ee12623        sw x14 236 x2
    1a1c4:        0ef12423        sw x15 232 x2
    1a1c8:        00700693        addi x13 x0 7
    1a1cc:        008d0d13        addi x26 x26 8
    1a1d0:        4ef6c0e3        blt x13 x15 3296
    1a1d4:        fffc4793        xori x15 x24 -1
    1a1d8:        41f7d793        srai x15 x15 31
    1a1dc:        00fc7c33        and x24 x24 x15
    1a1e0:        418b0b33        sub x22 x22 x24
    1a1e4:        d3605a63        bge x0 x22 -2764
    1a1e8:        0e812783        lw x15 232 x2
    1a1ec:        6b6bd663        bge x23 x22 1708
    1a1f0:        00700c13        addi x24 x0 7
    1a1f4:        00812a83        lw x21 8 x2
    1a1f8:        00c0006f        jal x0 12
    1a1fc:        ff0b0b13        addi x22 x22 -16
    1a200:        696bdc63        bge x23 x22 1688
    1a204:        01070713        addi x14 x14 16
    1a208:        00178793        addi x15 x15 1
    1a20c:        0000a697        auipc x13 0xa
    1a210:        3e868693        addi x13 x13 1000
    1a214:        00dd2023        sw x13 0 x26
    1a218:        017d2223        sw x23 4 x26
    1a21c:        0ee12623        sw x14 236 x2
    1a220:        0ef12423        sw x15 232 x2
    1a224:        008d0d13        addi x26 x26 8
    1a228:        fcfc5ae3        bge x24 x15 -44
    1a22c:        0e410613        addi x12 x2 228
    1a230:        000a8593        addi x11 x21 0
    1a234:        000a0513        addi x10 x20 0
    1a238:        639030ef        jal x1 15928 <__ssprint_r>
    1a23c:        00050463        beq x10 x0 8
    1a240:        cb9fe06f        jal x0 -4936
    1a244:        0ec12703        lw x14 236 x2
    1a248:        0e812783        lw x15 232 x2
    1a24c:        10c10d13        addi x26 x2 268
    1a250:        fadff06f        jal x0 -84
    1a254:        00197593        andi x11 x18 1
    1a258:        c00592e3        bne x11 x0 -1020
    1a25c:        00dd2223        sw x13 4 x26
    1a260:        0ee12623        sw x14 236 x2
    1a264:        0f612423        sw x22 232 x2
    1a268:        00700793        addi x15 x0 7
    1a26c:        4167ca63        blt x15 x22 1044
    1a270:        00260a93        addi x21 x12 2
    1a274:        010d0d13        addi x26 x26 16
    1a278:        cc5ff06f        jal x0 -828
    1a27c:        ccd050e3        bge x0 x13 -832
    1a280:        00dbc463        blt x23 x13 8
    1a284:        4700106f        jal x0 5232
    1a288:        00700a93        addi x21 x0 7
    1a28c:        00068d13        addi x26 x13 0
    1a290:        00812c83        lw x25 8 x2
    1a294:        00080b13        addi x22 x16 0
    1a298:        0100006f        jal x0 16
    1a29c:        ff0d0d13        addi x26 x26 -16
    1a2a0:        79abd463        bge x23 x26 1928
    1a2a4:        001b0b13        addi x22 x22 1
    1a2a8:        01070713        addi x14 x14 16
    1a2ac:        0000a797        auipc x15 0xa
    1a2b0:        34878793        addi x15 x15 840
    1a2b4:        00fc2023        sw x15 0 x24
    1a2b8:        017c2223        sw x23 4 x24
    1a2bc:        0ee12623        sw x14 236 x2
    1a2c0:        0f612423        sw x22 232 x2
    1a2c4:        008c0c13        addi x24 x24 8
    1a2c8:        fd6adae3        bge x21 x22 -44
    1a2cc:        0e410613        addi x12 x2 228
    1a2d0:        000c8593        addi x11 x25 0
    1a2d4:        000a0513        addi x10 x20 0
    1a2d8:        599030ef        jal x1 15768 <__ssprint_r>
    1a2dc:        00050463        beq x10 x0 8
    1a2e0:        c19fe06f        jal x0 -5096
    1a2e4:        0ec12703        lw x14 236 x2
    1a2e8:        0e812b03        lw x22 232 x2
    1a2ec:        10c10c13        addi x24 x2 268
    1a2f0:        fadff06f        jal x0 -84
    1a2f4:        000c8913        addi x18 x25 0
    1a2f8:        b25fe06f        jal x0 -5340
    1a2fc:        00812583        lw x11 8 x2
    1a300:        0e410613        addi x12 x2 228
    1a304:        000a0513        addi x10 x20 0
    1a308:        569030ef        jal x1 15720 <__ssprint_r>
    1a30c:        00050463        beq x10 x0 8
    1a310:        be9fe06f        jal x0 -5144
    1a314:        0ec12703        lw x14 236 x2
    1a318:        0e812b03        lw x22 232 x2
    1a31c:        10c10c13        addi x24 x2 268
    1a320:        b55ff06f        jal x0 -1196
    1a324:        00812583        lw x11 8 x2
    1a328:        0e410613        addi x12 x2 228
    1a32c:        000a0513        addi x10 x20 0
    1a330:        541030ef        jal x1 15680 <__ssprint_r>
    1a334:        00050463        beq x10 x0 8
    1a338:        bc1fe06f        jal x0 -5184
    1a33c:        0ec12703        lw x14 236 x2
    1a340:        0e812b03        lw x22 232 x2
    1a344:        10c10c13        addi x24 x2 268
    1a348:        b59ff06f        jal x0 -1192
    1a34c:        03000793        addi x15 x0 48
    1a350:        1af107a3        sb x15 431 x2
    1a354:        1af10c93        addi x25 x2 431
    1a358:        c8dfe06f        jal x0 -4980
    1a35c:        20097793        andi x15 x18 512
    1a360:        080794e3        bne x15 x0 2184
    1a364:        00000d93        addi x27 x0 0
    1a368:        c2dfe06f        jal x0 -5076
    1a36c:        00412603        lw x12 4 x2
    1a370:        0006a783        lw x15 0 x13
    1a374:        00e12823        sw x14 16 x2
    1a378:        41f65693        srai x13 x12 31
    1a37c:        00c7a023        sw x12 0 x15
    1a380:        00d7a223        sw x13 4 x15
    1a384:        00048c93        addi x25 x9 0
    1a388:        dc1fe06f        jal x0 -4672
    1a38c:        03000793        addi x15 x0 48
    1a390:        00296913        ori x18 x18 2
    1a394:        0cf10423        sb x15 200 x2
    1a398:        0d5104a3        sb x21 201 x2
    1a39c:        bff97993        andi x19 x18 -1025
    1a3a0:        00200793        addi x15 x0 2
    1a3a4:        c0dfe06f        jal x0 -5108
    1a3a8:        03c12783        lw x15 60 x2
    1a3ac:        0004ce03        lbu x28 0 x9
    1a3b0:        00079463        bne x15 x0 8
    1a3b4:        a8dfe06f        jal x0 -5492
    1a3b8:        0007c783        lbu x15 0 x15
    1a3bc:        00079463        bne x15 x0 8
    1a3c0:        a81fe06f        jal x0 -5504
    1a3c4:        40096913        ori x18 x18 1024
    1a3c8:        a79fe06f        jal x0 -5512
    1a3cc:        01012783        lw x15 16 x2
    1a3d0:        0007a703        lw x14 0 x15
    1a3d4:        00478793        addi x15 x15 4
    1a3d8:        00f12823        sw x15 16 x2
    1a3dc:        00072583        lw x11 0 x14
    1a3e0:        00472603        lw x12 4 x14
    1a3e4:        00872683        lw x13 8 x14
    1a3e8:        00c72703        lw x14 12 x14
    1a3ec:        0eb12823        sw x11 240 x2
    1a3f0:        0ec12a23        sw x12 244 x2
    1a3f4:        0ed12c23        sw x13 248 x2
    1a3f8:        0ee12e23        sw x14 252 x2
    1a3fc:        e45fe06f        jal x0 -4540
    1a400:        00068b13        addi x22 x13 0
    1a404:        cf604ae3        blt x0 x22 -780
    1a408:        d19ff06f        jal x0 -744
    1a40c:        00812583        lw x11 8 x2
    1a410:        0e410613        addi x12 x2 228
    1a414:        000a0513        addi x10 x20 0
    1a418:        459030ef        jal x1 15448 <__ssprint_r>
    1a41c:        00050463        beq x10 x0 8
    1a420:        ad9fe06f        jal x0 -5416
    1a424:        0ec12703        lw x14 236 x2
    1a428:        10c10d13        addi x26 x2 268
    1a42c:        fb0ff06f        jal x0 -2128
    1a430:        0014ce03        lbu x28 1 x9
    1a434:        20096913        ori x18 x18 512
    1a438:        00148493        addi x9 x9 1
    1a43c:        a05fe06f        jal x0 -5628
    1a440:        0014ce03        lbu x28 1 x9
    1a444:        02096913        ori x18 x18 32
    1a448:        00148493        addi x9 x9 1
    1a44c:        9f5fe06f        jal x0 -5644
    1a450:        02412503        lw x10 36 x2
    1a454:        04000593        addi x11 x0 64
    1a458:        88dfc0ef        jal x1 -14196 <_malloc_r>
    1a45c:        00812783        lw x15 8 x2
    1a460:        00a7a023        sw x10 0 x15
    1a464:        00a7a823        sw x10 16 x15
    1a468:        00051463        bne x10 x0 8
    1a46c:        3040106f        jal x0 4868
    1a470:        00812703        lw x14 8 x2
    1a474:        04000793        addi x15 x0 64
    1a478:        00f72a23        sw x15 20 x14
    1a47c:        8edfe06f        jal x0 -5908
    1a480:        00600793        addi x15 x0 6
    1a484:        00030b13        addi x22 x6 0
    1a488:        6e67e263        bltu x15 x6 1764
    1a48c:        000b0993        addi x19 x22 0
    1a490:        01812823        sw x24 16 x2
    1a494:        0000ac97        auipc x25 0xa
    1a498:        c24c8c93        addi x25 x25 -988
    1a49c:        99cff06f        jal x0 -3684
    1a4a0:        0e812683        lw x13 232 x2
    1a4a4:        656bd463        bge x23 x22 1608
    1a4a8:        00700a93        addi x21 x0 7
    1a4ac:        00812c03        lw x24 8 x2
    1a4b0:        00c0006f        jal x0 12
    1a4b4:        ff0b0b13        addi x22 x22 -16
    1a4b8:        636bda63        bge x23 x22 1588
    1a4bc:        01070713        addi x14 x14 16
    1a4c0:        00168693        addi x13 x13 1
    1a4c4:        0000a797        auipc x15 0xa
    1a4c8:        13078793        addi x15 x15 304
    1a4cc:        00fd2023        sw x15 0 x26
    1a4d0:        017d2223        sw x23 4 x26
    1a4d4:        0ee12623        sw x14 236 x2
    1a4d8:        0ed12423        sw x13 232 x2
    1a4dc:        008d0d13        addi x26 x26 8
    1a4e0:        fcdadae3        bge x21 x13 -44
    1a4e4:        0e410613        addi x12 x2 228
    1a4e8:        000c0593        addi x11 x24 0
    1a4ec:        000a0513        addi x10 x20 0
    1a4f0:        381030ef        jal x1 15232 <__ssprint_r>
    1a4f4:        00050463        beq x10 x0 8
    1a4f8:        a01fe06f        jal x0 -5632
    1a4fc:        0ec12703        lw x14 236 x2
    1a500:        0e812683        lw x13 232 x2
    1a504:        10c10d13        addi x26 x2 268
    1a508:        fadff06f        jal x0 -84
    1a50c:        01812783        lw x15 24 x2
    1a510:        01c12c03        lw x24 28 x2
    1a514:        00912a23        sw x9 20 x2
    1a518:        03212a23        sw x18 52 x2
    1a51c:        04812423        sw x8 72 x2
    1a520:        02012483        lw x9 32 x2
    1a524:        01312e23        sw x19 28 x2
    1a528:        03912023        sw x25 32 x2
    1a52c:        00fc8db3        add x27 x25 x15
    1a530:        00700b13        addi x22 x0 7
    1a534:        04012903        lw x18 64 x2
    1a538:        03c12403        lw x8 60 x2
    1a53c:        000d0693        addi x13 x26 0
    1a540:        00812983        lw x19 8 x2
    1a544:        04412c83        lw x25 68 x2
    1a548:        080c0863        beq x24 x0 144
    1a54c:        08049863        bne x9 x0 144
    1a550:        fff40413        addi x8 x8 -1
    1a554:        fffc0c13        addi x24 x24 -1
    1a558:        0e812783        lw x15 232 x2
    1a55c:        01270733        add x14 x14 x18
    1a560:        0196a023        sw x25 0 x13
    1a564:        00178793        addi x15 x15 1
    1a568:        0126a223        sw x18 4 x13
    1a56c:        0ee12623        sw x14 236 x2
    1a570:        0ef12423        sw x15 232 x2
    1a574:        00868693        addi x13 x13 8
    1a578:        12fb4c63        blt x22 x15 312
    1a57c:        00044603        lbu x12 0 x8
    1a580:        415d85b3        sub x11 x27 x21
    1a584:        00060d13        addi x26 x12 0
    1a588:        00c5d463        bge x11 x12 8
    1a58c:        00058d13        addi x26 x11 0
    1a590:        03a05663        bge x0 x26 44
    1a594:        0e812603        lw x12 232 x2
    1a598:        01a70733        add x14 x14 x26
    1a59c:        0156a023        sw x21 0 x13
    1a5a0:        00160613        addi x12 x12 1
    1a5a4:        01a6a223        sw x26 4 x13
    1a5a8:        0ee12623        sw x14 236 x2
    1a5ac:        0ec12423        sw x12 232 x2
    1a5b0:        30cb4063        blt x22 x12 768
    1a5b4:        00044603        lbu x12 0 x8
    1a5b8:        00868693        addi x13 x13 8
    1a5bc:        fffd4593        xori x11 x26 -1
    1a5c0:        41f5d593        srai x11 x11 31
    1a5c4:        00bd77b3        and x15 x26 x11
    1a5c8:        40f60d33        sub x26 x12 x15
    1a5cc:        01a04c63        blt x0 x26 24
    1a5d0:        00ca8ab3        add x21 x21 x12
    1a5d4:        f60c1ce3        bne x24 x0 -136
    1a5d8:        66048663        beq x9 x0 1644
    1a5dc:        fff48493        addi x9 x9 -1
    1a5e0:        f79ff06f        jal x0 -136
    1a5e4:        0e812603        lw x12 232 x2
    1a5e8:        01abc863        blt x23 x26 16
    1a5ec:        0600006f        jal x0 96
    1a5f0:        ff0d0d13        addi x26 x26 -16
    1a5f4:        05abdc63        bge x23 x26 88
    1a5f8:        01070713        addi x14 x14 16
    1a5fc:        00160613        addi x12 x12 1
    1a600:        0000a797        auipc x15 0xa
    1a604:        ff478793        addi x15 x15 -12
    1a608:        00f6a023        sw x15 0 x13
    1a60c:        0176a223        sw x23 4 x13
    1a610:        0ee12623        sw x14 236 x2
    1a614:        0ec12423        sw x12 232 x2
    1a618:        00868693        addi x13 x13 8
    1a61c:        fccb5ae3        bge x22 x12 -44
    1a620:        0e410613        addi x12 x2 228
    1a624:        00098593        addi x11 x19 0
    1a628:        000a0513        addi x10 x20 0
    1a62c:        245030ef        jal x1 14916 <__ssprint_r>
    1a630:        00050463        beq x10 x0 8
    1a634:        8c5fe06f        jal x0 -5948
    1a638:        ff0d0d13        addi x26 x26 -16
    1a63c:        0ec12703        lw x14 236 x2
    1a640:        0e812603        lw x12 232 x2
    1a644:        10c10693        addi x13 x2 268
    1a648:        fbabc8e3        blt x23 x26 -80
    1a64c:        01a70733        add x14 x14 x26
    1a650:        00160613        addi x12 x12 1
    1a654:        0000a797        auipc x15 0xa
    1a658:        fa078793        addi x15 x15 -96
    1a65c:        00f6a023        sw x15 0 x13
    1a660:        01a6a223        sw x26 4 x13
    1a664:        0ee12623        sw x14 236 x2
    1a668:        0ec12423        sw x12 232 x2
    1a66c:        68cb4863        blt x22 x12 1680
    1a670:        00044603        lbu x12 0 x8
    1a674:        00868693        addi x13 x13 8
    1a678:        00ca8ab3        add x21 x21 x12
    1a67c:        f59ff06f        jal x0 -168
    1a680:        00812583        lw x11 8 x2
    1a684:        0e410613        addi x12 x2 228
    1a688:        000a0513        addi x10 x20 0
    1a68c:        1e5030ef        jal x1 14820 <__ssprint_r>
    1a690:        00050463        beq x10 x0 8
    1a694:        865fe06f        jal x0 -6044
    1a698:        0e812603        lw x12 232 x2
    1a69c:        0ec12703        lw x14 236 x2
    1a6a0:        11410d13        addi x26 x2 276
    1a6a4:        00160a93        addi x21 x12 1
    1a6a8:        10c10c13        addi x24 x2 268
    1a6ac:        891ff06f        jal x0 -1904
    1a6b0:        0e410613        addi x12 x2 228
    1a6b4:        00098593        addi x11 x19 0
    1a6b8:        000a0513        addi x10 x20 0
    1a6bc:        1b5030ef        jal x1 14772 <__ssprint_r>
    1a6c0:        00050463        beq x10 x0 8
    1a6c4:        835fe06f        jal x0 -6092
    1a6c8:        0ec12703        lw x14 236 x2
    1a6cc:        10c10693        addi x13 x2 268
    1a6d0:        eadff06f        jal x0 -340
    1a6d4:        0e812683        lw x13 232 x2
    1a6d8:        0000a597        auipc x11 0xa
    1a6dc:        9e858593        addi x11 x11 -1560
    1a6e0:        00bd2023        sw x11 0 x26
    1a6e4:        00170713        addi x14 x14 1
    1a6e8:        00100593        addi x11 x0 1
    1a6ec:        00168693        addi x13 x13 1
    1a6f0:        00bd2223        sw x11 4 x26
    1a6f4:        0ee12623        sw x14 236 x2
    1a6f8:        0ed12423        sw x13 232 x2
    1a6fc:        00700593        addi x11 x0 7
    1a700:        008d0d13        addi x26 x26 8
    1a704:        06d5ce63        blt x11 x13 124
    1a708:        26061e63        bne x12 x0 636
    1a70c:        01812783        lw x15 24 x2
    1a710:        00197693        andi x13 x18 1
    1a714:        00f6e6b3        or x13 x13 x15
    1a718:        00069463        bne x13 x0 8
    1a71c:        ffdfe06f        jal x0 -4100
    1a720:        03012683        lw x13 48 x2
    1a724:        02812783        lw x15 40 x2
    1a728:        00700613        addi x12 x0 7
    1a72c:        00dd2023        sw x13 0 x26
    1a730:        0e812683        lw x13 232 x2
    1a734:        00e78733        add x14 x15 x14
    1a738:        00fd2223        sw x15 4 x26
    1a73c:        00168693        addi x13 x13 1
    1a740:        0ee12623        sw x14 236 x2
    1a744:        0ed12423        sw x13 232 x2
    1a748:        008d0893        addi x17 x26 8
    1a74c:        4ad64c63        blt x12 x13 1208
    1a750:        01812783        lw x15 24 x2
    1a754:        00168693        addi x13 x13 1
    1a758:        0198a023        sw x25 0 x17
    1a75c:        00e78733        add x14 x15 x14
    1a760:        00f8a223        sw x15 4 x17
    1a764:        0ee12623        sw x14 236 x2
    1a768:        0ed12423        sw x13 232 x2
    1a76c:        00700793        addi x15 x0 7
    1a770:        00888d13        addi x26 x17 8
    1a774:        00d7c463        blt x15 x13 8
    1a778:        fa1fe06f        jal x0 -4192
    1a77c:        fe4ff06f        jal x0 -2076
    1a780:        00812583        lw x11 8 x2
    1a784:        0e410613        addi x12 x2 228
    1a788:        000a0513        addi x10 x20 0
    1a78c:        0e5030ef        jal x1 14564 <__ssprint_r>
    1a790:        00050463        beq x10 x0 8
    1a794:        f64fe06f        jal x0 -6300
    1a798:        0cc12603        lw x12 204 x2
    1a79c:        0ec12703        lw x14 236 x2
    1a7a0:        10c10d13        addi x26 x2 268
    1a7a4:        f65ff06f        jal x0 -156
    1a7a8:        00812583        lw x11 8 x2
    1a7ac:        0e410613        addi x12 x2 228
    1a7b0:        000a0513        addi x10 x20 0
    1a7b4:        0bd030ef        jal x1 14524 <__ssprint_r>
    1a7b8:        00050463        beq x10 x0 8
    1a7bc:        f3cfe06f        jal x0 -6340
    1a7c0:        10c10d13        addi x26 x2 268
    1a7c4:        bc8ff06f        jal x0 -3128
    1a7c8:        1b010c93        addi x25 x2 432
    1a7cc:        00000793        addi x15 x0 0
    1a7d0:        4009f913        andi x18 x19 1024
    1a7d4:        00912623        sw x9 12 x2
    1a7d8:        01312a23        sw x19 20 x2
    1a7dc:        0ff00b13        addi x22 x0 255
    1a7e0:        000c8993        addi x19 x25 0
    1a7e4:        00612e23        sw x6 28 x2
    1a7e8:        000a0c93        addi x25 x20 0
    1a7ec:        03c12483        lw x9 60 x2
    1a7f0:        000d8a13        addi x20 x27 0
    1a7f4:        000d0d93        addi x27 x26 0
    1a7f8:        00040d13        addi x26 x8 0
    1a7fc:        00078413        addi x8 x15 0
    1a800:        0240006f        jal x0 36
    1a804:        00a00613        addi x12 x0 10
    1a808:        00000693        addi x13 x0 0
    1a80c:        000c0513        addi x10 x24 0
    1a810:        000a0593        addi x11 x20 0
    1a814:        124050ef        jal x1 20772 <__udivdi3>
    1a818:        500a0863        beq x20 x0 1296
    1a81c:        00050c13        addi x24 x10 0
    1a820:        00058a13        addi x20 x11 0
    1a824:        00a00613        addi x12 x0 10
    1a828:        00000693        addi x13 x0 0
    1a82c:        000c0513        addi x10 x24 0
    1a830:        000a0593        addi x11 x20 0
    1a834:        538050ef        jal x1 21816 <__umoddi3>
    1a838:        03050513        addi x10 x10 48
    1a83c:        fea98fa3        sb x10 -1 x19
    1a840:        00140413        addi x8 x8 1
    1a844:        fff98993        addi x19 x19 -1
    1a848:        fa090ee3        beq x18 x0 -68
    1a84c:        0004c683        lbu x13 0 x9
    1a850:        fad41ae3        bne x8 x13 -76
    1a854:        fb6408e3        beq x8 x22 -80
    1a858:        4c0a1e63        bne x20 x0 1244
    1a85c:        00900793        addi x15 x0 9
    1a860:        4d87ea63        bltu x15 x24 1236
    1a864:        000c8a13        addi x20 x25 0
    1a868:        00098c93        addi x25 x19 0
    1a86c:        01412983        lw x19 20 x2
    1a870:        1b010793        addi x15 x2 432
    1a874:        00812c23        sw x8 24 x2
    1a878:        02912e23        sw x9 60 x2
    1a87c:        000d0413        addi x8 x26 0
    1a880:        01c12303        lw x6 28 x2
    1a884:        00c12483        lw x9 12 x2
    1a888:        000d8d13        addi x26 x27 0
    1a88c:        41978b33        sub x22 x15 x25
    1a890:        00098913        addi x18 x19 0
    1a894:        f50fe06f        jal x0 -6320
    1a898:        0000a697        auipc x13 0xa
    1a89c:        d5c68693        addi x13 x13 -676
    1a8a0:        01670733        add x14 x14 x22
    1a8a4:        00178793        addi x15 x15 1
    1a8a8:        00dd2023        sw x13 0 x26
    1a8ac:        e55fe06f        jal x0 -4524
    1a8b0:        0e410613        addi x12 x2 228
    1a8b4:        00098593        addi x11 x19 0
    1a8b8:        000a0513        addi x10 x20 0
    1a8bc:        7b4030ef        jal x1 14260 <__ssprint_r>
    1a8c0:        00050463        beq x10 x0 8
    1a8c4:        e34fe06f        jal x0 -6604
    1a8c8:        00044603        lbu x12 0 x8
    1a8cc:        0ec12703        lw x14 236 x2
    1a8d0:        10c10693        addi x13 x2 268
    1a8d4:        ce9ff06f        jal x0 -792
    1a8d8:        0f012783        lw x15 240 x2
    1a8dc:        0a010593        addi x11 x2 160
    1a8e0:        0b010513        addi x10 x2 176
    1a8e4:        0af12823        sw x15 176 x2
    1a8e8:        0f412783        lw x15 244 x2
    1a8ec:        0a012023        sw x0 160 x2
    1a8f0:        0a012223        sw x0 164 x2
    1a8f4:        0af12a23        sw x15 180 x2
    1a8f8:        0f812783        lw x15 248 x2
    1a8fc:        0a012423        sw x0 168 x2
    1a900:        0a012623        sw x0 172 x2
    1a904:        0af12c23        sw x15 184 x2
    1a908:        0fc12783        lw x15 252 x2
    1a90c:        0af12e23        sw x15 188 x2
    1a910:        704060ef        jal x1 26372 <__lttf2>
    1a914:        46054063        blt x10 x0 1120
    1a918:        0c714703        lbu x14 199 x2
    1a91c:        04700693        addi x13 x0 71
    1a920:        00009c97        auipc x25 0x9
    1a924:        760c8c93        addi x25 x25 1888
    1a928:        2156ca63        blt x13 x21 532
    1a92c:        00012623        sw x0 12 x2
    1a930:        02012023        sw x0 32 x2
    1a934:        00012e23        sw x0 28 x2
    1a938:        00012a23        sw x0 20 x2
    1a93c:        f7f97913        andi x18 x18 -129
    1a940:        00300993        addi x19 x0 3
    1a944:        00300b13        addi x22 x0 3
    1a948:        00000313        addi x6 x0 0
    1a94c:        00070463        beq x14 x0 8
    1a950:        eb8fe06f        jal x0 -6472
    1a954:        cf9fe06f        jal x0 -4872
    1a958:        01012783        lw x15 16 x2
    1a95c:        00048c93        addi x25 x9 0
    1a960:        0007a783        lw x15 0 x15
    1a964:        00e12823        sw x14 16 x2
    1a968:        00412703        lw x14 4 x2
    1a96c:        00e7a023        sw x14 0 x15
    1a970:        fd8fe06f        jal x0 -6184
    1a974:        000c8513        addi x10 x25 0
    1a978:        a0cfe0ef        jal x1 -7668 <strlen>
    1a97c:        00050b13        addi x22 x10 0
    1a980:        bd1fe06f        jal x0 -5168
    1a984:        03012683        lw x13 48 x2
    1a988:        02812783        lw x15 40 x2
    1a98c:        00700593        addi x11 x0 7
    1a990:        00dd2023        sw x13 0 x26
    1a994:        0e812683        lw x13 232 x2
    1a998:        00e78733        add x14 x15 x14
    1a99c:        00fd2223        sw x15 4 x26
    1a9a0:        00168693        addi x13 x13 1
    1a9a4:        0ee12623        sw x14 236 x2
    1a9a8:        0ed12423        sw x13 232 x2
    1a9ac:        008d0893        addi x17 x26 8
    1a9b0:        24d5ca63        blt x11 x13 596
    1a9b4:        d8065ee3        bge x12 x0 -612
    1a9b8:        ff000593        addi x11 x0 -16
    1a9bc:        40c00b33        sub x22 x0 x12
    1a9c0:        24b65ae3        bge x12 x11 2644
    1a9c4:        00700c13        addi x24 x0 7
    1a9c8:        00812a83        lw x21 8 x2
    1a9cc:        00c0006f        jal x0 12
    1a9d0:        ff0b0b13        addi x22 x22 -16
    1a9d4:        256bd0e3        bge x23 x22 2624
    1a9d8:        01070713        addi x14 x14 16
    1a9dc:        00168693        addi x13 x13 1
    1a9e0:        0000a797        auipc x15 0xa
    1a9e4:        c1478793        addi x15 x15 -1004
    1a9e8:        00f8a023        sw x15 0 x17
    1a9ec:        0178a223        sw x23 4 x17
    1a9f0:        0ee12623        sw x14 236 x2
    1a9f4:        0ed12423        sw x13 232 x2
    1a9f8:        00888893        addi x17 x17 8
    1a9fc:        fcdc5ae3        bge x24 x13 -44
    1aa00:        0e410613        addi x12 x2 228
    1aa04:        000a8593        addi x11 x21 0
    1aa08:        000a0513        addi x10 x20 0
    1aa0c:        664030ef        jal x1 13924 <__ssprint_r>
    1aa10:        00050463        beq x10 x0 8
    1aa14:        ce4fe06f        jal x0 -6940
    1aa18:        0ec12703        lw x14 236 x2
    1aa1c:        0e812683        lw x13 232 x2
    1aa20:        10c10893        addi x17 x2 268
    1aa24:        fadff06f        jal x0 -84
    1aa28:        000d0693        addi x13 x26 0
    1aa2c:        001b0a93        addi x21 x22 1
    1aa30:        008c0793        addi x15 x24 8
    1aa34:        00d70733        add x14 x14 x13
    1aa38:        0000a617        auipc x12 0xa
    1aa3c:        bbc60613        addi x12 x12 -1092
    1aa40:        00dc2223        sw x13 4 x24
    1aa44:        00cc2023        sw x12 0 x24
    1aa48:        0ee12623        sw x14 236 x2
    1aa4c:        0f512423        sw x21 232 x2
    1aa50:        00700693        addi x13 x0 7
    1aa54:        c356c6e3        blt x13 x21 -980
    1aa58:        001a8a93        addi x21 x21 1
    1aa5c:        00878d13        addi x26 x15 8
    1aa60:        00078c13        addi x24 x15 0
    1aa64:        cd8ff06f        jal x0 -2856
    1aa68:        20097713        andi x14 x18 512
    1aa6c:        16070463        beq x14 x0 360
    1aa70:        00f12823        sw x15 16 x2
    1aa74:        0ffc7c13        andi x24 x24 255
    1aa78:        00000d93        addi x27 x0 0
    1aa7c:        00090993        addi x19 x18 0
    1aa80:        00100793        addi x15 x0 1
    1aa84:        d2cfe06f        jal x0 -6868
    1aa88:        20097713        andi x14 x18 512
    1aa8c:        12070e63        beq x14 x0 316
    1aa90:        0ffc7c13        andi x24 x24 255
    1aa94:        00000d93        addi x27 x0 0
    1aa98:        00f12823        sw x15 16 x2
    1aa9c:        f8dfe06f        jal x0 -4212
    1aaa0:        20097713        andi x14 x18 512
    1aaa4:        10070463        beq x14 x0 264
    1aaa8:        01012703        lw x14 16 x2
    1aaac:        00090993        addi x19 x18 0
    1aab0:        00f12823        sw x15 16 x2
    1aab4:        00070c03        lb x24 0 x14
    1aab8:        41fc5d93        srai x27 x24 31
    1aabc:        000d8713        addi x14 x27 0
    1aac0:        b25fe06f        jal x0 -5340
    1aac4:        0fc12783        lw x15 252 x2
    1aac8:        1207c663        blt x15 x0 300
    1aacc:        0c714703        lbu x14 199 x2
    1aad0:        04700693        addi x13 x0 71
    1aad4:        00009c97        auipc x25 0x9
    1aad8:        5b4c8c93        addi x25 x25 1460
    1aadc:        e556d8e3        bge x13 x21 -432
    1aae0:        00009c97        auipc x25 0x9
    1aae4:        5acc8c93        addi x25 x25 1452
    1aae8:        e45ff06f        jal x0 -444
    1aaec:        01670733        add x14 x14 x22
    1aaf0:        00168693        addi x13 x13 1
    1aaf4:        0000a797        auipc x15 0xa
    1aaf8:        b0078793        addi x15 x15 -1280
    1aafc:        00fd2023        sw x15 0 x26
    1ab00:        016d2223        sw x22 4 x26
    1ab04:        0ee12623        sw x14 236 x2
    1ab08:        0ed12423        sw x13 232 x2
    1ab0c:        00700613        addi x12 x0 7
    1ab10:        008d0d13        addi x26 x26 8
    1ab14:        e2d65263        bge x12 x13 -2524
    1ab18:        00812583        lw x11 8 x2
    1ab1c:        0e410613        addi x12 x2 228
    1ab20:        000a0513        addi x10 x20 0
    1ab24:        54c030ef        jal x1 13644 <__ssprint_r>
    1ab28:        00050463        beq x10 x0 8
    1ab2c:        bccfe06f        jal x0 -7220
    1ab30:        0ec12703        lw x14 236 x2
    1ab34:        10c10d13        addi x26 x2 268
    1ab38:        e00ff06f        jal x0 -2560
    1ab3c:        00009c97        auipc x25 0x9
    1ab40:        548c8c93        addi x25 x25 1352
    1ab44:        de9ff06f        jal x0 -536
    1ab48:        00812583        lw x11 8 x2
    1ab4c:        0e410613        addi x12 x2 228
    1ab50:        000a0513        addi x10 x20 0
    1ab54:        51c030ef        jal x1 13596 <__ssprint_r>
    1ab58:        00050463        beq x10 x0 8
    1ab5c:        b9cfe06f        jal x0 -7268
    1ab60:        0ec12703        lw x14 236 x2
    1ab64:        10c10d13        addi x26 x2 268
    1ab68:        db8ff06f        jal x0 -2632
    1ab6c:        00600b13        addi x22 x0 6
    1ab70:        91dff06f        jal x0 -1764
    1ab74:        01812683        lw x13 24 x2
    1ab78:        00dc87b3        add x15 x25 x13
    1ab7c:        41668b33        sub x22 x13 x22
    1ab80:        41578c33        sub x24 x15 x21
    1ab84:        e58b5863        bge x22 x24 -2480
    1ab88:        000b0c13        addi x24 x22 0
    1ab8c:        e48ff06f        jal x0 -2488
    1ab90:        01012783        lw x15 16 x2
    1ab94:        00e12823        sw x14 16 x2
    1ab98:        00412703        lw x14 4 x2
    1ab9c:        0007a783        lw x15 0 x15
    1aba0:        00048c93        addi x25 x9 0
    1aba4:        00e79023        sh x14 0 x15
    1aba8:        da0fe06f        jal x0 -6752
    1abac:        01012703        lw x14 16 x2
    1abb0:        00090993        addi x19 x18 0
    1abb4:        00f12823        sw x15 16 x2
    1abb8:        00072c03        lw x24 0 x14
    1abbc:        41fc5d93        srai x27 x24 31
    1abc0:        000d8713        addi x14 x27 0
    1abc4:        a21fe06f        jal x0 -5600
    1abc8:        00000d93        addi x27 x0 0
    1abcc:        00f12823        sw x15 16 x2
    1abd0:        e59fe06f        jal x0 -4520
    1abd4:        00f12823        sw x15 16 x2
    1abd8:        00000d93        addi x27 x0 0
    1abdc:        00090993        addi x19 x18 0
    1abe0:        00100793        addi x15 x0 1
    1abe4:        bccfe06f        jal x0 -7220
    1abe8:        0ffc7c13        andi x24 x24 255
    1abec:        00000d93        addi x27 x0 0
    1abf0:        ba4fe06f        jal x0 -7260
    1abf4:        02d00793        addi x15 x0 45
    1abf8:        0cf103a3        sb x15 199 x2
    1abfc:        02d00713        addi x14 x0 45
    1ac00:        ed1ff06f        jal x0 -304
    1ac04:        00812583        lw x11 8 x2
    1ac08:        0e410613        addi x12 x2 228
    1ac0c:        000a0513        addi x10 x20 0
    1ac10:        460030ef        jal x1 13408 <__ssprint_r>
    1ac14:        00050463        beq x10 x0 8
    1ac18:        ae0fe06f        jal x0 -7456
    1ac1c:        0cc12603        lw x12 204 x2
    1ac20:        0ec12703        lw x14 236 x2
    1ac24:        0e812683        lw x13 232 x2
    1ac28:        10c10893        addi x17 x2 268
    1ac2c:        b20652e3        bge x12 x0 -1244
    1ac30:        d89ff06f        jal x0 -632
    1ac34:        00600313        addi x6 x0 6
    1ac38:        e6cfe06f        jal x0 -6548
    1ac3c:        00090993        addi x19 x18 0
    1ac40:        e55fe06f        jal x0 -4524
    1ac44:        02012c83        lw x25 32 x2
    1ac48:        01812783        lw x15 24 x2
    1ac4c:        02812e23        sw x8 60 x2
    1ac50:        00068d13        addi x26 x13 0
    1ac54:        00fc86b3        add x13 x25 x15
    1ac58:        01412483        lw x9 20 x2
    1ac5c:        03412903        lw x18 52 x2
    1ac60:        04812403        lw x8 72 x2
    1ac64:        01c12983        lw x19 28 x2
    1ac68:        cf56f063        bgeu x13 x21 -2848
    1ac6c:        00068a93        addi x21 x13 0
    1ac70:        cd8ff06f        jal x0 -2856
    1ac74:        01412783        lw x15 20 x2
    1ac78:        ffd00713        addi x14 x0 -3
    1ac7c:        00e7c463        blt x15 x14 8
    1ac80:        00f35a63        bge x6 x15 20
    1ac84:        ffea8a93        addi x21 x21 -2
    1ac88:        fdfaf793        andi x15 x21 -33
    1ac8c:        04f12423        sw x15 72 x2
    1ac90:        f00fe06f        jal x0 -6400
    1ac94:        01812703        lw x14 24 x2
    1ac98:        01412783        lw x15 20 x2
    1ac9c:        24e7c263        blt x15 x14 580
    1aca0:        05412703        lw x14 84 x2
    1aca4:        00078b13        addi x22 x15 0
    1aca8:        00177713        andi x14 x14 1
    1acac:        00070663        beq x14 x0 12
    1acb0:        02812703        lw x14 40 x2
    1acb4:        00e78b33        add x22 x15 x14
    1acb8:        05412783        lw x15 84 x2
    1acbc:        4007f713        andi x14 x15 1024
    1acc0:        00070663        beq x14 x0 12
    1acc4:        01412783        lw x15 20 x2
    1acc8:        7cf04663        blt x0 x15 1996
    1accc:        fffb4993        xori x19 x22 -1
    1acd0:        41f9d993        srai x19 x19 31
    1acd4:        013b79b3        and x19 x22 x19
    1acd8:        06700a93        addi x21 x0 103
    1acdc:        02012023        sw x0 32 x2
    1ace0:        00012e23        sw x0 28 x2
    1ace4:        fccfe06f        jal x0 -6196
    1ace8:        0c714703        lbu x14 199 x2
    1acec:        00000313        addi x6 x0 0
    1acf0:        00070463        beq x14 x0 8
    1acf4:        b14fe06f        jal x0 -7404
    1acf8:        955fe06f        jal x0 -5804
    1acfc:        0e410613        addi x12 x2 228
    1ad00:        00098593        addi x11 x19 0
    1ad04:        000a0513        addi x10 x20 0
    1ad08:        368030ef        jal x1 13160 <__ssprint_r>
    1ad0c:        00050463        beq x10 x0 8
    1ad10:        9e8fe06f        jal x0 -7704
    1ad14:        00044603        lbu x12 0 x8
    1ad18:        0ec12703        lw x14 236 x2
    1ad1c:        10c10693        addi x13 x2 268
    1ad20:        00ca8ab3        add x21 x21 x12
    1ad24:        8b1ff06f        jal x0 -1872
    1ad28:        00900793        addi x15 x0 9
    1ad2c:        af87e8e3        bltu x15 x24 -1296
    1ad30:        b35ff06f        jal x0 -1228
    1ad34:        04012783        lw x15 64 x2
    1ad38:        04412583        lw x11 68 x2
    1ad3c:        00000413        addi x8 x0 0
    1ad40:        40f989b3        sub x19 x19 x15
    1ad44:        00078613        addi x12 x15 0
    1ad48:        00098513        addi x10 x19 0
    1ad4c:        ec5fd0ef        jal x1 -8508 <strncpy>
    1ad50:        0014c803        lbu x16 1 x9
    1ad54:        00a00613        addi x12 x0 10
    1ad58:        00000693        addi x13 x0 0
    1ad5c:        01003833        sltu x16 x0 x16
    1ad60:        000c0513        addi x10 x24 0
    1ad64:        000a0593        addi x11 x20 0
    1ad68:        010484b3        add x9 x9 x16
    1ad6c:        3cd040ef        jal x1 19404 <__udivdi3>
    1ad70:        aadff06f        jal x0 -1364
    1ad74:        02d00793        addi x15 x0 45
    1ad78:        0cf103a3        sb x15 199 x2
    1ad7c:        02d00713        addi x14 x0 45
    1ad80:        b9dff06f        jal x0 -1124
    1ad84:        0b010c13        addi x24 x2 176
    1ad88:        00030693        addi x13 x6 0
    1ad8c:        0cc10713        addi x14 x2 204
    1ad90:        0dc10813        addi x16 x2 220
    1ad94:        0d010793        addi x15 x2 208
    1ad98:        00300613        addi x12 x0 3
    1ad9c:        000c0593        addi x11 x24 0
    1ada0:        000a0513        addi x10 x20 0
    1ada4:        00612e23        sw x6 28 x2
    1ada8:        0be12823        sw x30 176 x2
    1adac:        01e12c23        sw x30 24 x2
    1adb0:        0bd12c23        sw x29 184 x2
    1adb4:        01d12a23        sw x29 20 x2
    1adb8:        0bb12a23        sw x27 180 x2
    1adbc:        0b612e23        sw x22 188 x2
    1adc0:        92dfa0ef        jal x1 -22228 <_ldtoa_r>
    1adc4:        00054683        lbu x13 0 x10
    1adc8:        03000713        addi x14 x0 48
    1adcc:        00050c93        addi x25 x10 0
    1add0:        01412e83        lw x29 20 x2
    1add4:        01812f03        lw x30 24 x2
    1add8:        01c12303        lw x6 28 x2
    1addc:        0ae684e3        beq x13 x14 2216
    1ade0:        0a010793        addi x15 x2 160
    1ade4:        04f12c23        sw x15 88 x2
    1ade8:        0cc12703        lw x14 204 x2
    1adec:        006709b3        add x19 x14 x6
    1adf0:        013c89b3        add x19 x25 x19
    1adf4:        05812583        lw x11 88 x2
    1adf8:        000c0513        addi x10 x24 0
    1adfc:        00612a23        sw x6 20 x2
    1ae00:        0be12823        sw x30 176 x2
    1ae04:        0bb12a23        sw x27 180 x2
    1ae08:        0bd12c23        sw x29 184 x2
    1ae0c:        0b612e23        sw x22 188 x2
    1ae10:        0a012023        sw x0 160 x2
    1ae14:        0a012223        sw x0 164 x2
    1ae18:        0a012423        sw x0 168 x2
    1ae1c:        0a012623        sw x0 172 x2
    1ae20:        7e5050ef        jal x1 24548 <__netf2>
    1ae24:        00098713        addi x14 x19 0
    1ae28:        01412303        lw x6 20 x2
    1ae2c:        00051463        bne x10 x0 8
    1ae30:        d30fe06f        jal x0 -6864
    1ae34:        0dc12703        lw x14 220 x2
    1ae38:        03000613        addi x12 x0 48
    1ae3c:        01376463        bltu x14 x19 8
    1ae40:        d20fe06f        jal x0 -6880
    1ae44:        00170793        addi x15 x14 1
    1ae48:        0cf12e23        sw x15 220 x2
    1ae4c:        00c70023        sb x12 0 x14
    1ae50:        0dc12703        lw x14 220 x2
    1ae54:        ff3768e3        bltu x14 x19 -16
    1ae58:        d08fe06f        jal x0 -6904
    1ae5c:        00812583        lw x11 8 x2
    1ae60:        0e410613        addi x12 x2 228
    1ae64:        000a0513        addi x10 x20 0
    1ae68:        208030ef        jal x1 12808 <__ssprint_r>
    1ae6c:        00050463        beq x10 x0 8
    1ae70:        888fe06f        jal x0 -8056
    1ae74:        0cc12b03        lw x22 204 x2
    1ae78:        0ec12703        lw x14 236 x2
    1ae7c:        10c10d13        addi x26 x2 268
    1ae80:        b0cff06f        jal x0 -3316
    1ae84:        0c714703        lbu x14 199 x2
    1ae88:        01812823        sw x24 16 x2
    1ae8c:        02012023        sw x0 32 x2
    1ae90:        00012e23        sw x0 28 x2
    1ae94:        00012a23        sw x0 20 x2
    1ae98:        00030993        addi x19 x6 0
    1ae9c:        00030b13        addi x22 x6 0
    1aea0:        00000313        addi x6 x0 0
    1aea4:        00070463        beq x14 x0 8
    1aea8:        960fe06f        jal x0 -7840
    1aeac:        fa0fe06f        jal x0 -6240
    1aeb0:        00812583        lw x11 8 x2
    1aeb4:        0e410613        addi x12 x2 228
    1aeb8:        000a0513        addi x10 x20 0
    1aebc:        1b4030ef        jal x1 12724 <__ssprint_r>
    1aec0:        00050463        beq x10 x0 8
    1aec4:        834fe06f        jal x0 -8140
    1aec8:        0cc12b03        lw x22 204 x2
    1aecc:        01812783        lw x15 24 x2
    1aed0:        0ec12703        lw x14 236 x2
    1aed4:        10c10d13        addi x26 x2 268
    1aed8:        41678b33        sub x22 x15 x22
    1aedc:        af8ff06f        jal x0 -3336
    1aee0:        01812783        lw x15 24 x2
    1aee4:        02812703        lw x14 40 x2
    1aee8:        06700a93        addi x21 x0 103
    1aeec:        00e78b33        add x22 x15 x14
    1aef0:        01412783        lw x15 20 x2
    1aef4:        76f05c63        bge x0 x15 1912
    1aef8:        05412783        lw x15 84 x2
    1aefc:        4007f713        andi x14 x15 1024
    1af00:        58071c63        bne x14 x0 1432
    1af04:        fffb4993        xori x19 x22 -1
    1af08:        41f9d993        srai x19 x19 31
    1af0c:        013b79b3        and x19 x22 x19
    1af10:        dcdff06f        jal x0 -564
    1af14:        05412783        lw x15 84 x2
    1af18:        0017f713        andi x14 x15 1
    1af1c:        01412783        lw x15 20 x2
    1af20:        00676733        or x14 x14 x6
    1af24:        7cf05c63        bge x0 x15 2008
    1af28:        72071863        bne x14 x0 1840
    1af2c:        01412b03        lw x22 20 x2
    1af30:        06600a93        addi x21 x0 102
    1af34:        fc5ff06f        jal x0 -60
    1af38:        03000793        addi x15 x0 48
    1af3c:        0cf10423        sb x15 200 x2
    1af40:        05800793        addi x15 x0 88
    1af44:        0cf104a3        sb x15 201 x2
    1af48:        00296793        ori x15 x18 2
    1af4c:        06300713        addi x14 x0 99
    1af50:        04f12a23        sw x15 84 x2
    1af54:        00012623        sw x0 12 x2
    1af58:        14c10c93        addi x25 x2 332
    1af5c:        3c674063        blt x14 x6 960
    1af60:        0fc12b03        lw x22 252 x2
    1af64:        fdfaf793        andi x15 x21 -33
    1af68:        04f12423        sw x15 72 x2
    1af6c:        04012e23        sw x0 92 x2
    1af70:        10296913        ori x18 x18 258
    1af74:        0f012f03        lw x30 240 x2
    1af78:        0f412d83        lw x27 244 x2
    1af7c:        0f812e83        lw x29 248 x2
    1af80:        380b4463        blt x22 x0 904
    1af84:        06100713        addi x14 x0 97
    1af88:        58ea8a63        beq x21 x14 1428
    1af8c:        04100713        addi x14 x0 65
    1af90:        00ea8463        beq x21 x14 8
    1af94:        b3cfe06f        jal x0 -7364
    1af98:        0b010c13        addi x24 x2 176
    1af9c:        000c0513        addi x10 x24 0
    1afa0:        02612a23        sw x6 52 x2
    1afa4:        0be12823        sw x30 176 x2
    1afa8:        0bd12c23        sw x29 184 x2
    1afac:        0b612e23        sw x22 188 x2
    1afb0:        0bb12a23        sw x27 180 x2
    1afb4:        3b5080ef        jal x1 35764 <__trunctfdf2>
    1afb8:        0cc10613        addi x12 x2 204
    1afbc:        ea8fd0ef        jal x1 -10584 <frexp>
    1afc0:        00058613        addi x12 x11 0
    1afc4:        00050593        addi x11 x10 0
    1afc8:        000c0513        addi x10 x24 0
    1afcc:        191080ef        jal x1 35216 <__extenddftf2>
    1afd0:        0b012703        lw x14 176 x2
    1afd4:        09010793        addi x15 x2 144
    1afd8:        0a010993        addi x19 x2 160
    1afdc:        08e12823        sw x14 144 x2
    1afe0:        0b412703        lw x14 180 x2
    1afe4:        08010613        addi x12 x2 128
    1afe8:        00078593        addi x11 x15 0
    1afec:        08e12a23        sw x14 148 x2
    1aff0:        0b812703        lw x14 184 x2
    1aff4:        00098513        addi x10 x19 0
    1aff8:        00078b13        addi x22 x15 0
    1affc:        08e12c23        sw x14 152 x2
    1b000:        0bc12703        lw x14 188 x2
    1b004:        04c12623        sw x12 76 x2
    1b008:        05312c23        sw x19 88 x2
    1b00c:        08e12e23        sw x14 156 x2
    1b010:        3ffc0737        lui x14 0x3ffc0
    1b014:        08e12623        sw x14 140 x2
    1b018:        08012023        sw x0 128 x2
    1b01c:        08012223        sw x0 132 x2
    1b020:        08012423        sw x0 136 x2
    1b024:        134060ef        jal x1 24884 <__multf3>
    1b028:        0a012703        lw x14 160 x2
    1b02c:        0a412683        lw x13 164 x2
    1b030:        0a812803        lw x16 168 x2
    1b034:        0ac12e83        lw x29 172 x2
    1b038:        00098593        addi x11 x19 0
    1b03c:        000c0513        addi x10 x24 0
    1b040:        0ae12823        sw x14 176 x2
    1b044:        02e12023        sw x14 32 x2
    1b048:        0ad12a23        sw x13 180 x2
    1b04c:        00d12e23        sw x13 28 x2
    1b050:        0b012c23        sw x16 184 x2
    1b054:        01012c23        sw x16 24 x2
    1b058:        0bd12e23        sw x29 188 x2
    1b05c:        01d12a23        sw x29 20 x2
    1b060:        0a012023        sw x0 160 x2
    1b064:        0a012223        sw x0 164 x2
    1b068:        0a012423        sw x0 168 x2
    1b06c:        0a012623        sw x0 172 x2
    1b070:        595050ef        jal x1 23956 <__netf2>
    1b074:        01412e83        lw x29 20 x2
    1b078:        01812803        lw x16 24 x2
    1b07c:        01c12683        lw x13 28 x2
    1b080:        02012703        lw x14 32 x2
    1b084:        03412303        lw x6 52 x2
    1b088:        00051663        bne x10 x0 12
    1b08c:        00100613        addi x12 x0 1
    1b090:        0cc12623        sw x12 204 x2
    1b094:        00009797        auipc x15 0x9
    1b098:        01078793        addi x15 x15 16
    1b09c:        02f12a23        sw x15 52 x2
    1b0a0:        fff30d93        addi x27 x6 -1
    1b0a4:        01912a23        sw x25 20 x2
    1b0a8:        06912023        sw x9 96 x2
    1b0ac:        07512223        sw x21 100 x2
    1b0b0:        06812623        sw x8 108 x2
    1b0b4:        07a12a23        sw x26 116 x2
    1b0b8:        07412c23        sw x20 120 x2
    1b0bc:        07912e23        sw x25 124 x2
    1b0c0:        07212423        sw x18 104 x2
    1b0c4:        000d8c93        addi x25 x27 0
    1b0c8:        06612823        sw x6 112 x2
    1b0cc:        00070d13        addi x26 x14 0
    1b0d0:        00068d93        addi x27 x13 0
    1b0d4:        00080a13        addi x20 x16 0
    1b0d8:        000e8a93        addi x21 x29 0
    1b0dc:        05812403        lw x8 88 x2
    1b0e0:        000b0493        addi x9 x22 0
    1b0e4:        0540006f        jal x0 84
    1b0e8:        00040593        addi x11 x8 0
    1b0ec:        000c0513        addi x10 x24 0
    1b0f0:        02c12023        sw x12 32 x2
    1b0f4:        01e12e23        sw x30 28 x2
    1b0f8:        01f12c23        sw x31 24 x2
    1b0fc:        0bf12a23        sw x31 180 x2
    1b100:        0be12c23        sw x30 184 x2
    1b104:        0ac12e23        sw x12 188 x2
    1b108:        0b212823        sw x18 176 x2
    1b10c:        0a012023        sw x0 160 x2
    1b110:        0a012223        sw x0 164 x2
    1b114:        0a012423        sw x0 168 x2
    1b118:        0a012623        sw x0 172 x2
    1b11c:        4e9050ef        jal x1 23784 <__netf2>
    1b120:        fffc8c93        addi x25 x25 -1
    1b124:        01812f83        lw x31 24 x2
    1b128:        01c12f03        lw x30 28 x2
    1b12c:        02012603        lw x12 32 x2
    1b130:        0e050463        beq x10 x0 232
    1b134:        01612a23        sw x22 20 x2
    1b138:        400307b7        lui x15 0x40030
    1b13c:        00048613        addi x12 x9 0
    1b140:        00040593        addi x11 x8 0
    1b144:        000c0513        addi x10 x24 0
    1b148:        08f12e23        sw x15 156 x2
    1b14c:        0ba12023        sw x26 160 x2
    1b150:        0bb12223        sw x27 164 x2
    1b154:        0b412423        sw x20 168 x2
    1b158:        0b512623        sw x21 172 x2
    1b15c:        08012823        sw x0 144 x2
    1b160:        08012a23        sw x0 148 x2
    1b164:        08012c23        sw x0 152 x2
    1b168:        7f1050ef        jal x1 24560 <__multf3>
    1b16c:        000c0513        addi x10 x24 0
    1b170:        514080ef        jal x1 34068 <__fixtfsi>
    1b174:        00050593        addi x11 x10 0
    1b178:        00050993        addi x19 x10 0
    1b17c:        000c0513        addi x10 x24 0
    1b180:        0bc12b03        lw x22 188 x2
    1b184:        0b012a83        lw x21 176 x2
    1b188:        0b412a03        lw x20 180 x2
    1b18c:        0b812903        lw x18 184 x2
    1b190:        644080ef        jal x1 34372 <__floatsitf>
    1b194:        0b012703        lw x14 176 x2
    1b198:        04c12603        lw x12 76 x2
    1b19c:        00048593        addi x11 x9 0
    1b1a0:        08e12023        sw x14 128 x2
    1b1a4:        0b412703        lw x14 180 x2
    1b1a8:        00040513        addi x10 x8 0
    1b1ac:        09612e23        sw x22 156 x2
    1b1b0:        08e12223        sw x14 132 x2
    1b1b4:        0b812703        lw x14 184 x2
    1b1b8:        09512823        sw x21 144 x2
    1b1bc:        09412a23        sw x20 148 x2
    1b1c0:        08e12423        sw x14 136 x2
    1b1c4:        0bc12703        lw x14 188 x2
    1b1c8:        09212c23        sw x18 152 x2
    1b1cc:        08e12623        sw x14 140 x2
    1b1d0:        795060ef        jal x1 28564 <__subtf3>
    1b1d4:        03412783        lw x15 52 x2
    1b1d8:        0a012903        lw x18 160 x2
    1b1dc:        0a412f83        lw x31 164 x2
    1b1e0:        01378733        add x14 x15 x19
    1b1e4:        01412783        lw x15 20 x2
    1b1e8:        00074703        lbu x14 0 x14
    1b1ec:        0a812f03        lw x30 168 x2
    1b1f0:        0ac12603        lw x12 172 x2
    1b1f4:        00178b13        addi x22 x15 1
    1b1f8:        feeb0fa3        sb x14 -1 x22
    1b1fc:        05912823        sw x25 80 x2
    1b200:        fff00793        addi x15 x0 -1
    1b204:        00090d13        addi x26 x18 0
    1b208:        000f8d93        addi x27 x31 0
    1b20c:        000f0a13        addi x20 x30 0
    1b210:        00060a93        addi x21 x12 0
    1b214:        ecfc9ae3        bne x25 x15 -300
    1b218:        07012303        lw x6 112 x2
    1b21c:        05812583        lw x11 88 x2
    1b220:        00090293        addi x5 x18 0
    1b224:        3ffe0db7        lui x27 0x3ffe0
    1b228:        000c0513        addi x10 x24 0
    1b22c:        00612c23        sw x6 24 x2
    1b230:        06012483        lw x9 96 x2
    1b234:        0a512823        sw x5 176 x2
    1b238:        06512023        sw x5 96 x2
    1b23c:        0bf12a23        sw x31 180 x2
    1b240:        05f12623        sw x31 76 x2
    1b244:        0be12c23        sw x30 184 x2
    1b248:        03e12023        sw x30 32 x2
    1b24c:        0ac12e23        sw x12 188 x2
    1b250:        00c12e23        sw x12 28 x2
    1b254:        0a012023        sw x0 160 x2
    1b258:        0a012223        sw x0 164 x2
    1b25c:        0a012423        sw x0 168 x2
    1b260:        0bb12623        sw x27 172 x2
    1b264:        46d050ef        jal x1 23660 <__gttf2>
    1b268:        06412a83        lw x21 100 x2
    1b26c:        06c12403        lw x8 108 x2
    1b270:        07412d03        lw x26 116 x2
    1b274:        07812a03        lw x20 120 x2
    1b278:        07c12c83        lw x25 124 x2
    1b27c:        06812903        lw x18 104 x2
    1b280:        01812303        lw x6 24 x2
    1b284:        0aa04e63        blt x0 x10 188
    1b288:        06012283        lw x5 96 x2
    1b28c:        04c12f83        lw x31 76 x2
    1b290:        02012f03        lw x30 32 x2
    1b294:        01c12603        lw x12 28 x2
    1b298:        05812583        lw x11 88 x2
    1b29c:        000c0513        addi x10 x24 0
    1b2a0:        0a512823        sw x5 176 x2
    1b2a4:        0bf12a23        sw x31 180 x2
    1b2a8:        0be12c23        sw x30 184 x2
    1b2ac:        0ac12e23        sw x12 188 x2
    1b2b0:        0a012023        sw x0 160 x2
    1b2b4:        0a012223        sw x0 164 x2
    1b2b8:        0a012423        sw x0 168 x2
    1b2bc:        0bb12623        sw x27 172 x2
    1b2c0:        345050ef        jal x1 23364 <__netf2>
    1b2c4:        01812303        lw x6 24 x2
    1b2c8:        00051663        bne x10 x0 12
    1b2cc:        0019f993        andi x19 x19 1
    1b2d0:        06099863        bne x19 x0 112
    1b2d4:        05012783        lw x15 80 x2
    1b2d8:        03000693        addi x13 x0 48
    1b2dc:        00178713        addi x14 x15 1
    1b2e0:        00eb0733        add x14 x22 x14
    1b2e4:        0007c863        blt x15 x0 16
    1b2e8:        001b0b13        addi x22 x22 1
    1b2ec:        fedb0fa3        sb x13 -1 x22
    1b2f0:        ff671ce3        bne x14 x22 -8
    1b2f4:        419b07b3        sub x15 x22 x25
    1b2f8:        00f12c23        sw x15 24 x2
    1b2fc:        86cfe06f        jal x0 -8084
    1b300:        00012623        sw x0 12 x2
    1b304:        00070913        addi x18 x14 0
    1b308:        80000737        lui x14 0x80000
    1b30c:        02d00793        addi x15 x0 45
    1b310:        01674b33        xor x22 x14 x22
    1b314:        04f12e23        sw x15 92 x2
    1b318:        c6dff06f        jal x0 -916
    1b31c:        00130593        addi x11 x6 1
    1b320:        000a0513        addi x10 x20 0
    1b324:        00612623        sw x6 12 x2
    1b328:        9bdfb0ef        jal x1 -17988 <_malloc_r>
    1b32c:        00050c93        addi x25 x10 0
    1b330:        00c12303        lw x6 12 x2
    1b334:        44050e63        beq x10 x0 1116
    1b338:        00a12623        sw x10 12 x2
    1b33c:        c25ff06f        jal x0 -988
    1b340:        01412783        lw x15 20 x2
    1b344:        000b0713        addi x14 x22 0
    1b348:        0cf12e23        sw x15 220 x2
    1b34c:        03412783        lw x15 52 x2
    1b350:        fffb4683        lbu x13 -1 x22
    1b354:        00f7c603        lbu x12 15 x15
    1b358:        02d61063        bne x12 x13 32
    1b35c:        03000593        addi x11 x0 48
    1b360:        feb70fa3        sb x11 -1 x14
    1b364:        0dc12703        lw x14 220 x2
    1b368:        fff70793        addi x15 x14 -1
    1b36c:        0cf12e23        sw x15 220 x2
    1b370:        fff74683        lbu x13 -1 x14
    1b374:        fed606e3        beq x12 x13 -20
    1b378:        00168613        addi x12 x13 1
    1b37c:        03900593        addi x11 x0 57
    1b380:        0ff67613        andi x12 x12 255
    1b384:        00b68663        beq x13 x11 12
    1b388:        fec70fa3        sb x12 -1 x14
    1b38c:        f69ff06f        jal x0 -152
    1b390:        03412783        lw x15 52 x2
    1b394:        00a7c603        lbu x12 10 x15
    1b398:        fec70fa3        sb x12 -1 x14
    1b39c:        f59ff06f        jal x0 -168
    1b3a0:        03000793        addi x15 x0 48
    1b3a4:        0cf10423        sb x15 200 x2
    1b3a8:        07800793        addi x15 x0 120
    1b3ac:        b99ff06f        jal x0 -1128
    1b3b0:        00130993        addi x19 x6 1
    1b3b4:        0b010c13        addi x24 x2 176
    1b3b8:        0dc10813        addi x16 x2 220
    1b3bc:        0d010793        addi x15 x2 208
    1b3c0:        0cc10713        addi x14 x2 204
    1b3c4:        00098693        addi x13 x19 0
    1b3c8:        00200613        addi x12 x0 2
    1b3cc:        000c0593        addi x11 x24 0
    1b3d0:        000a0513        addi x10 x20 0
    1b3d4:        00612e23        sw x6 28 x2
    1b3d8:        0be12823        sw x30 176 x2
    1b3dc:        01e12c23        sw x30 24 x2
    1b3e0:        0bd12c23        sw x29 184 x2
    1b3e4:        01d12a23        sw x29 20 x2
    1b3e8:        0bb12a23        sw x27 180 x2
    1b3ec:        0b612e23        sw x22 188 x2
    1b3f0:        afcfa0ef        jal x1 -23812 <_ldtoa_r>
    1b3f4:        01412e83        lw x29 20 x2
    1b3f8:        01812f03        lw x30 24 x2
    1b3fc:        01c12303        lw x6 28 x2
    1b400:        00050c93        addi x25 x10 0
    1b404:        0a010793        addi x15 x2 160
    1b408:        013c89b3        add x19 x25 x19
    1b40c:        04f12c23        sw x15 88 x2
    1b410:        9e5ff06f        jal x0 -1564
    1b414:        01670733        add x14 x14 x22
    1b418:        00168693        addi x13 x13 1
    1b41c:        00009797        auipc x15 0x9
    1b420:        1d878793        addi x15 x15 472
    1b424:        00f8a023        sw x15 0 x17
    1b428:        0168a223        sw x22 4 x17
    1b42c:        0ee12623        sw x14 236 x2
    1b430:        0ed12423        sw x13 232 x2
    1b434:        00700613        addi x12 x0 7
    1b438:        00888893        addi x17 x17 8
    1b43c:        b0d65a63        bge x12 x13 -3308
    1b440:        00812583        lw x11 8 x2
    1b444:        0e410613        addi x12 x2 228
    1b448:        000a0513        addi x10 x20 0
    1b44c:        425020ef        jal x1 11300 <__ssprint_r>
    1b450:        00050463        beq x10 x0 8
    1b454:        aa5fd06f        jal x0 -9564
    1b458:        0ec12703        lw x14 236 x2
    1b45c:        0e812683        lw x13 232 x2
    1b460:        10c10893        addi x17 x2 268
    1b464:        aecff06f        jal x0 -3348
    1b468:        0a010793        addi x15 x2 160
    1b46c:        006c89b3        add x19 x25 x6
    1b470:        04f12c23        sw x15 88 x2
    1b474:        981ff06f        jal x0 -1664
    1b478:        00030463        beq x6 x0 8
    1b47c:        e29fd06f        jal x0 -8664
    1b480:        00100313        addi x6 x0 1
    1b484:        e21fd06f        jal x0 -8672
    1b488:        fff00793        addi x15 x0 -1
    1b48c:        00f12223        sw x15 4 x2
    1b490:        a91fd06f        jal x0 -9584
    1b494:        06700a93        addi x21 x0 103
    1b498:        03c12583        lw x11 60 x2
    1b49c:        01412783        lw x15 20 x2
    1b4a0:        02012023        sw x0 32 x2
    1b4a4:        0005c703        lbu x14 0 x11
    1b4a8:        00012e23        sw x0 28 x2
    1b4ac:        0ff00613        addi x12 x0 255
    1b4b0:        02c70e63        beq x14 x12 60
    1b4b4:        02f75c63        bge x14 x15 56
    1b4b8:        0015c683        lbu x13 1 x11
    1b4bc:        40e787b3        sub x15 x15 x14
    1b4c0:        00068e63        beq x13 x0 28
    1b4c4:        01c12703        lw x14 28 x2
    1b4c8:        00158593        addi x11 x11 1
    1b4cc:        00170713        addi x14 x14 1
    1b4d0:        00e12e23        sw x14 28 x2
    1b4d4:        00068713        addi x14 x13 0
    1b4d8:        fd9ff06f        jal x0 -40
    1b4dc:        02012683        lw x13 32 x2
    1b4e0:        00168693        addi x13 x13 1
    1b4e4:        02d12023        sw x13 32 x2
    1b4e8:        fc9ff06f        jal x0 -56
    1b4ec:        00f12a23        sw x15 20 x2
    1b4f0:        02012703        lw x14 32 x2
    1b4f4:        01c12783        lw x15 28 x2
    1b4f8:        02b12e23        sw x11 60 x2
    1b4fc:        00e78733        add x14 x15 x14
    1b500:        04012783        lw x15 64 x2
    1b504:        02f70733        mul x14 x14 x15
    1b508:        01670b33        add x22 x14 x22
    1b50c:        fffb4993        xori x19 x22 -1
    1b510:        41f9d993        srai x19 x19 31
    1b514:        013b79b3        and x19 x22 x19
    1b518:        f99fd06f        jal x0 -8296
    1b51c:        0b010c13        addi x24 x2 176
    1b520:        000c0513        addi x10 x24 0
    1b524:        02612a23        sw x6 52 x2
    1b528:        0be12823        sw x30 176 x2
    1b52c:        0bd12c23        sw x29 184 x2
    1b530:        0b612e23        sw x22 188 x2
    1b534:        0bb12a23        sw x27 180 x2
    1b538:        630080ef        jal x1 34352 <__trunctfdf2>
    1b53c:        0cc10613        addi x12 x2 204
    1b540:        924fd0ef        jal x1 -11996 <frexp>
    1b544:        00058613        addi x12 x11 0
    1b548:        00050593        addi x11 x10 0
    1b54c:        000c0513        addi x10 x24 0
    1b550:        40c080ef        jal x1 33804 <__extenddftf2>
    1b554:        0b012703        lw x14 176 x2
    1b558:        09010793        addi x15 x2 144
    1b55c:        0a010993        addi x19 x2 160
    1b560:        08e12823        sw x14 144 x2
    1b564:        0b412703        lw x14 180 x2
    1b568:        08010613        addi x12 x2 128
    1b56c:        00078593        addi x11 x15 0
    1b570:        08e12a23        sw x14 148 x2
    1b574:        0b812703        lw x14 184 x2
    1b578:        00098513        addi x10 x19 0
    1b57c:        00078b13        addi x22 x15 0
    1b580:        08e12c23        sw x14 152 x2
    1b584:        0bc12703        lw x14 188 x2
    1b588:        04c12623        sw x12 76 x2
    1b58c:        05312c23        sw x19 88 x2
    1b590:        08e12e23        sw x14 156 x2
    1b594:        3ffc0737        lui x14 0x3ffc0
    1b598:        08e12623        sw x14 140 x2
    1b59c:        08012023        sw x0 128 x2
    1b5a0:        08012223        sw x0 132 x2
    1b5a4:        08012423        sw x0 136 x2
    1b5a8:        3b1050ef        jal x1 23472 <__multf3>
    1b5ac:        0a012703        lw x14 160 x2
    1b5b0:        0a412683        lw x13 164 x2
    1b5b4:        0a812803        lw x16 168 x2
    1b5b8:        0ac12e83        lw x29 172 x2
    1b5bc:        00098593        addi x11 x19 0
    1b5c0:        000c0513        addi x10 x24 0
    1b5c4:        0ae12823        sw x14 176 x2
    1b5c8:        02e12023        sw x14 32 x2
    1b5cc:        0ad12a23        sw x13 180 x2
    1b5d0:        00d12e23        sw x13 28 x2
    1b5d4:        0b012c23        sw x16 184 x2
    1b5d8:        01012c23        sw x16 24 x2
    1b5dc:        0bd12e23        sw x29 188 x2
    1b5e0:        01d12a23        sw x29 20 x2
    1b5e4:        0a012023        sw x0 160 x2
    1b5e8:        0a012223        sw x0 164 x2
    1b5ec:        0a012423        sw x0 168 x2
    1b5f0:        0a012623        sw x0 172 x2
    1b5f4:        011050ef        jal x1 22544 <__netf2>
    1b5f8:        01412e83        lw x29 20 x2
    1b5fc:        01812803        lw x16 24 x2
    1b600:        01c12683        lw x13 28 x2
    1b604:        02012703        lw x14 32 x2
    1b608:        03412303        lw x6 52 x2
    1b60c:        00051663        bne x10 x0 12
    1b610:        00100613        addi x12 x0 1
    1b614:        0cc12623        sw x12 204 x2
    1b618:        00009797        auipc x15 0x9
    1b61c:        a7878793        addi x15 x15 -1416
    1b620:        02f12a23        sw x15 52 x2
    1b624:        a7dff06f        jal x0 -1412
    1b628:        0d610693        addi x13 x2 214
    1b62c:        00061863        bne x12 x0 16
    1b630:        03000693        addi x13 x0 48
    1b634:        0cd10b23        sb x13 214 x2
    1b638:        0d710693        addi x13 x2 215
    1b63c:        1b010793        addi x15 x2 432
    1b640:        40f68633        sub x12 x13 x15
    1b644:        03070713        addi x14 x14 48
    1b648:        0dd60793        addi x15 x12 221
    1b64c:        00e68023        sb x14 0 x13
    1b650:        02f12c23        sw x15 56 x2
    1b654:        e19fd06f        jal x0 -8680
    1b658:        02812703        lw x14 40 x2
    1b65c:        06600a93        addi x21 x0 102
    1b660:        00e78b33        add x22 x15 x14
    1b664:        006b0b33        add x22 x22 x6
    1b668:        891ff06f        jal x0 -1904
    1b66c:        40fb0b33        sub x22 x22 x15
    1b670:        001b0b13        addi x22 x22 1
    1b674:        fffb4993        xori x19 x22 -1
    1b678:        41f9d993        srai x19 x19 31
    1b67c:        013b79b3        and x19 x22 x19
    1b680:        e5cff06f        jal x0 -2468
    1b684:        0a010593        addi x11 x2 160
    1b688:        000c0513        addi x10 x24 0
    1b68c:        00612e23        sw x6 28 x2
    1b690:        0be12823        sw x30 176 x2
    1b694:        01e12c23        sw x30 24 x2
    1b698:        0bd12c23        sw x29 184 x2
    1b69c:        01d12a23        sw x29 20 x2
    1b6a0:        04b12c23        sw x11 88 x2
    1b6a4:        0bb12a23        sw x27 180 x2
    1b6a8:        0b612e23        sw x22 188 x2
    1b6ac:        0a012023        sw x0 160 x2
    1b6b0:        0a012223        sw x0 164 x2
    1b6b4:        0a012423        sw x0 168 x2
    1b6b8:        0a012623        sw x0 172 x2
    1b6bc:        748050ef        jal x1 22344 <__netf2>
    1b6c0:        01412e83        lw x29 20 x2
    1b6c4:        01812f03        lw x30 24 x2
    1b6c8:        01c12303        lw x6 28 x2
    1b6cc:        f0050e63        beq x10 x0 -2276
    1b6d0:        00100713        addi x14 x0 1
    1b6d4:        40670733        sub x14 x14 x6
    1b6d8:        0ce12623        sw x14 204 x2
    1b6dc:        f10ff06f        jal x0 -2288
    1b6e0:        05412783        lw x15 84 x2
    1b6e4:        0017f713        andi x14 x15 1
    1b6e8:        00071463        bne x14 x0 8
    1b6ec:        da1fd06f        jal x0 -8800
    1b6f0:        d95fd06f        jal x0 -8812
    1b6f4:        000d0793        addi x15 x26 0
    1b6f8:        b3cff06f        jal x0 -3268
    1b6fc:        00071a63        bne x14 x0 20
    1b700:        00100993        addi x19 x0 1
    1b704:        06600a93        addi x21 x0 102
    1b708:        00100b13        addi x22 x0 1
    1b70c:        dd0ff06f        jal x0 -2608
    1b710:        02812783        lw x15 40 x2
    1b714:        06600a93        addi x21 x0 102
    1b718:        00178b13        addi x22 x15 1
    1b71c:        006b0b33        add x22 x22 x6
    1b720:        fffb4993        xori x19 x22 -1
    1b724:        41f9d993        srai x19 x19 31
    1b728:        013b79b3        and x19 x22 x19
    1b72c:        db0ff06f        jal x0 -2640
    1b730:        01012703        lw x14 16 x2
    1b734:        00072c03        lw x24 0 x14
    1b738:        00470713        addi x14 x14 4
    1b73c:        000c5463        bge x24 x0 8
    1b740:        fff00c13        addi x24 x0 -1
    1b744:        0014ce03        lbu x28 1 x9
    1b748:        00e12823        sw x14 16 x2
    1b74c:        00078493        addi x9 x15 0
    1b750:        ef0fd06f        jal x0 -10512
    1b754:        00090993        addi x19 x18 0
    1b758:        e79fd06f        jal x0 -8584
    1b75c:        00030993        addi x19 x6 0
    1b760:        ca5ff06f        jal x0 -860
    1b764:        00200793        addi x15 x0 2
    1b768:        02f12c23        sw x15 56 x2
    1b76c:        d01fd06f        jal x0 -8960
    1b770:        02412703        lw x14 36 x2
    1b774:        00c00793        addi x15 x0 12
    1b778:        00f72023        sw x15 0 x14
    1b77c:        fff00793        addi x15 x0 -1
    1b780:        00f12223        sw x15 4 x2
    1b784:        f9cfd06f        jal x0 -10340
    1b788:        00090993        addi x19 x18 0
    1b78c:        d5dfd06f        jal x0 -8868
    1b790:        00812683        lw x13 8 x2
    1b794:        00c6d783        lhu x15 12 x13
    1b798:        0407e713        ori x14 x15 64
    1b79c:        00070793        addi x15 x14 0
    1b7a0:        00e69623        sh x14 12 x13
    1b7a4:        f70fd06f        jal x0 -10384

0001b7a8 <__sprint_r.part.0>:
    1b7a8:        0645a783        lw x15 100 x11
    1b7ac:        fd010113        addi x2 x2 -48
    1b7b0:        01612823        sw x22 16 x2
    1b7b4:        02112623        sw x1 44 x2
    1b7b8:        02812423        sw x8 40 x2
    1b7bc:        02912223        sw x9 36 x2
    1b7c0:        03212023        sw x18 32 x2
    1b7c4:        01312e23        sw x19 28 x2
    1b7c8:        01412c23        sw x20 24 x2
    1b7cc:        01512a23        sw x21 20 x2
    1b7d0:        01712623        sw x23 12 x2
    1b7d4:        01812423        sw x24 8 x2
    1b7d8:        01279713        slli x14 x15 18
    1b7dc:        00060b13        addi x22 x12 0
    1b7e0:        0a075863        bge x14 x0 176
    1b7e4:        00862783        lw x15 8 x12
    1b7e8:        00058913        addi x18 x11 0
    1b7ec:        00050a13        addi x20 x10 0
    1b7f0:        00062b83        lw x23 0 x12
    1b7f4:        fff00a93        addi x21 x0 -1
    1b7f8:        08078863        beq x15 x0 144
    1b7fc:        004bac03        lw x24 4 x23
    1b800:        000ba403        lw x8 0 x23
    1b804:        002c5993        srli x19 x24 2
    1b808:        06098663        beq x19 x0 108
    1b80c:        00000493        addi x9 x0 0
    1b810:        00c0006f        jal x0 12
    1b814:        00440413        addi x8 x8 4
    1b818:        04998c63        beq x19 x9 88
    1b81c:        00042583        lw x11 0 x8
    1b820:        00090613        addi x12 x18 0
    1b824:        000a0513        addi x10 x20 0
    1b828:        01d010ef        jal x1 6172 <_fputwc_r>
    1b82c:        00148493        addi x9 x9 1
    1b830:        ff5512e3        bne x10 x21 -28
    1b834:        fff00513        addi x10 x0 -1
    1b838:        02c12083        lw x1 44 x2
    1b83c:        02812403        lw x8 40 x2
    1b840:        000b2423        sw x0 8 x22
    1b844:        000b2223        sw x0 4 x22
    1b848:        02412483        lw x9 36 x2
    1b84c:        02012903        lw x18 32 x2
    1b850:        01c12983        lw x19 28 x2
    1b854:        01812a03        lw x20 24 x2
    1b858:        01412a83        lw x21 20 x2
    1b85c:        01012b03        lw x22 16 x2
    1b860:        00c12b83        lw x23 12 x2
    1b864:        00812c03        lw x24 8 x2
    1b868:        03010113        addi x2 x2 48
    1b86c:        00008067        jalr x0 x1 0
    1b870:        008b2783        lw x15 8 x22
    1b874:        ffcc7c13        andi x24 x24 -4
    1b878:        418787b3        sub x15 x15 x24
    1b87c:        00fb2423        sw x15 8 x22
    1b880:        008b8b93        addi x23 x23 8
    1b884:        f6079ce3        bne x15 x0 -136
    1b888:        00000513        addi x10 x0 0
    1b88c:        fadff06f        jal x0 -84
    1b890:        0c1010ef        jal x1 6336 <__sfvwrite_r>
    1b894:        fa5ff06f        jal x0 -92

0001b898 <__sprint_r>:
    1b898:        00862703        lw x14 8 x12
    1b89c:        00070463        beq x14 x0 8
    1b8a0:        f09ff06f        jal x0 -248 <__sprint_r.part.0>
    1b8a4:        00062223        sw x0 4 x12
    1b8a8:        00000513        addi x10 x0 0
    1b8ac:        00008067        jalr x0 x1 0

0001b8b0 <_vfiprintf_r>:
    1b8b0:        ed010113        addi x2 x2 -304
    1b8b4:        13212023        sw x18 288 x2
    1b8b8:        11312e23        sw x19 284 x2
    1b8bc:        11812423        sw x24 264 x2
    1b8c0:        12112623        sw x1 300 x2
    1b8c4:        12812423        sw x8 296 x2
    1b8c8:        12912223        sw x9 292 x2
    1b8cc:        11412c23        sw x20 280 x2
    1b8d0:        11512a23        sw x21 276 x2
    1b8d4:        11612823        sw x22 272 x2
    1b8d8:        11712623        sw x23 268 x2
    1b8dc:        11912223        sw x25 260 x2
    1b8e0:        11a12023        sw x26 256 x2
    1b8e4:        0fb12e23        sw x27 252 x2
    1b8e8:        00d12623        sw x13 12 x2
    1b8ec:        00050993        addi x19 x10 0
    1b8f0:        00058913        addi x18 x11 0
    1b8f4:        00060c13        addi x24 x12 0
    1b8f8:        00050663        beq x10 x0 12
    1b8fc:        03852783        lw x15 56 x10
    1b900:        180782e3        beq x15 x0 2436
    1b904:        00c91703        lh x14 12 x18
    1b908:        01071793        slli x15 x14 16
    1b90c:        0107d793        srli x15 x15 16
    1b910:        01279693        slli x13 x15 18
    1b914:        0206c663        blt x13 x0 44
    1b918:        06492683        lw x13 100 x18
    1b91c:        000027b7        lui x15 0x2
    1b920:        00f767b3        or x15 x14 x15
    1b924:        ffffe737        lui x14 0xffffe
    1b928:        fff70713        addi x14 x14 -1
    1b92c:        00e6f733        and x14 x13 x14
    1b930:        00f91623        sh x15 12 x18
    1b934:        01079793        slli x15 x15 16
    1b938:        06e92223        sw x14 100 x18
    1b93c:        0107d793        srli x15 x15 16
    1b940:        0087f713        andi x14 x15 8
    1b944:        16070863        beq x14 x0 368
    1b948:        01092703        lw x14 16 x18
    1b94c:        16070463        beq x14 x0 360
    1b950:        01a7f793        andi x15 x15 26
    1b954:        00a00713        addi x14 x0 10
    1b958:        18e78063        beq x15 x14 384
    1b95c:        ffff87b7        lui x15 0xffff8
    1b960:        04c10493        addi x9 x2 76
    1b964:        8307c793        xori x15 x15 -2000
    1b968:        04912023        sw x9 64 x2
    1b96c:        04012423        sw x0 72 x2
    1b970:        04012223        sw x0 68 x2
    1b974:        00012823        sw x0 16 x2
    1b978:        00012c23        sw x0 24 x2
    1b97c:        02012023        sw x0 32 x2
    1b980:        00012e23        sw x0 28 x2
    1b984:        00012423        sw x0 8 x2
    1b988:        00009a97        auipc x21 0x9
    1b98c:        c7ca8a93        addi x21 x21 -900
    1b990:        02f12223        sw x15 36 x2
    1b994:        00048413        addi x8 x9 0
    1b998:        000c0c93        addi x25 x24 0
    1b99c:        000cc783        lbu x15 0 x25
    1b9a0:        16078463        beq x15 x0 360
    1b9a4:        02500713        addi x14 x0 37
    1b9a8:        5ce784e3        beq x15 x14 3528
    1b9ac:        000c8a13        addi x20 x25 0
    1b9b0:        00c0006f        jal x0 12
    1b9b4:        14e78463        beq x15 x14 328
    1b9b8:        000d0a13        addi x20 x26 0
    1b9bc:        001a4783        lbu x15 1 x20
    1b9c0:        001a0d13        addi x26 x20 1
    1b9c4:        fe0798e3        bne x15 x0 -16
    1b9c8:        419d0c33        sub x24 x26 x25
    1b9cc:        120c0e63        beq x24 x0 316
    1b9d0:        04812703        lw x14 72 x2
    1b9d4:        04412783        lw x15 68 x2
    1b9d8:        01942023        sw x25 0 x8
    1b9dc:        00ec0733        add x14 x24 x14
    1b9e0:        00178793        addi x15 x15 1
    1b9e4:        01842223        sw x24 4 x8
    1b9e8:        04e12423        sw x14 72 x2
    1b9ec:        04f12223        sw x15 68 x2
    1b9f0:        00700693        addi x13 x0 7
    1b9f4:        00840413        addi x8 x8 8
    1b9f8:        02f6d063        bge x13 x15 32
    1b9fc:        520706e3        beq x14 x0 3372
    1ba00:        04010613        addi x12 x2 64
    1ba04:        00090593        addi x11 x18 0
    1ba08:        00098513        addi x10 x19 0
    1ba0c:        d9dff0ef        jal x1 -612 <__sprint_r.part.0>
    1ba10:        10051863        bne x10 x0 272
    1ba14:        00048413        addi x8 x9 0
    1ba18:        00812703        lw x14 8 x2
    1ba1c:        001a4783        lbu x15 1 x20
    1ba20:        01870733        add x14 x14 x24
    1ba24:        00e12423        sw x14 8 x2
    1ba28:        0e078063        beq x15 x0 224
    1ba2c:        001d0c93        addi x25 x26 1
    1ba30:        001d4703        lbu x14 1 x26
    1ba34:        02010da3        sb x0 59 x2
    1ba38:        fff00c13        addi x24 x0 -1
    1ba3c:        00000a13        addi x20 x0 0
    1ba40:        00000b93        addi x23 x0 0
    1ba44:        02a00d13        addi x26 x0 42
    1ba48:        001c8c93        addi x25 x25 1
    1ba4c:        05a00693        addi x13 x0 90
    1ba50:        fe070793        addi x15 x14 -32
    1ba54:        1ef6e063        bltu x13 x15 480
    1ba58:        00279793        slli x15 x15 2
    1ba5c:        015787b3        add x15 x15 x21
    1ba60:        0007a783        lw x15 0 x15
    1ba64:        015787b3        add x15 x15 x21
    1ba68:        00078067        jalr x0 x15 0
    1ba6c:        00098513        addi x10 x19 0
    1ba70:        fddfa0ef        jal x1 -20516 <_localeconv_r>
    1ba74:        00452783        lw x15 4 x10
    1ba78:        00078513        addi x10 x15 0
    1ba7c:        00f12e23        sw x15 28 x2
    1ba80:        904fd0ef        jal x1 -12028 <strlen>
    1ba84:        02a12023        sw x10 32 x2
    1ba88:        00050b13        addi x22 x10 0
    1ba8c:        00098513        addi x10 x19 0
    1ba90:        fbdfa0ef        jal x1 -20548 <_localeconv_r>
    1ba94:        00852783        lw x15 8 x10
    1ba98:        00f12c23        sw x15 24 x2
    1ba9c:        560b14e3        bne x22 x0 3432
    1baa0:        000cc703        lbu x14 0 x25
    1baa4:        fa5ff06f        jal x0 -92
    1baa8:        020beb93        ori x23 x23 32
    1baac:        000cc703        lbu x14 0 x25
    1bab0:        f99ff06f        jal x0 -104
    1bab4:        00090593        addi x11 x18 0
    1bab8:        00098513        addi x10 x19 0
    1babc:        d60f70ef        jal x1 -35488 <__swsetup_r>
    1bac0:        00050463        beq x10 x0 8
    1bac4:        0600106f        jal x0 4192
    1bac8:        00c95783        lhu x15 12 x18
    1bacc:        00a00713        addi x14 x0 10
    1bad0:        01a7f793        andi x15 x15 26
    1bad4:        e8e794e3        bne x15 x14 -376
    1bad8:        00e91783        lh x15 14 x18
    1badc:        e807c0e3        blt x15 x0 -384
    1bae0:        00c12683        lw x13 12 x2
    1bae4:        000c0613        addi x12 x24 0
    1bae8:        00090593        addi x11 x18 0
    1baec:        00098513        addi x10 x19 0
    1baf0:        0a8010ef        jal x1 4264 <__sbprintf>
    1baf4:        00a12423        sw x10 8 x2
    1baf8:        0380006f        jal x0 56
    1bafc:        419d0c33        sub x24 x26 x25
    1bb00:        f20c06e3        beq x24 x0 -212
    1bb04:        ecdff06f        jal x0 -308
    1bb08:        04812783        lw x15 72 x2
    1bb0c:        00078a63        beq x15 x0 20
    1bb10:        04010613        addi x12 x2 64
    1bb14:        00090593        addi x11 x18 0
    1bb18:        00098513        addi x10 x19 0
    1bb1c:        c8dff0ef        jal x1 -884 <__sprint_r.part.0>
    1bb20:        00c95783        lhu x15 12 x18
    1bb24:        0407f793        andi x15 x15 64
    1bb28:        00078463        beq x15 x0 8
    1bb2c:        7f90006f        jal x0 4088
    1bb30:        12c12083        lw x1 300 x2
    1bb34:        12812403        lw x8 296 x2
    1bb38:        00812503        lw x10 8 x2
    1bb3c:        12412483        lw x9 292 x2
    1bb40:        12012903        lw x18 288 x2
    1bb44:        11c12983        lw x19 284 x2
    1bb48:        11812a03        lw x20 280 x2
    1bb4c:        11412a83        lw x21 276 x2
    1bb50:        11012b03        lw x22 272 x2
    1bb54:        10c12b83        lw x23 268 x2
    1bb58:        10812c03        lw x24 264 x2
    1bb5c:        10412c83        lw x25 260 x2
    1bb60:        10012d03        lw x26 256 x2
    1bb64:        0fc12d83        lw x27 252 x2
    1bb68:        13010113        addi x2 x2 304
    1bb6c:        00008067        jalr x0 x1 0
    1bb70:        00008797        auipc x15 0x8
    1bb74:        53478793        addi x15 x15 1332
    1bb78:        00f12823        sw x15 16 x2
    1bb7c:        020bf793        andi x15 x23 32
    1bb80:        52078463        beq x15 x0 1320
    1bb84:        00c12783        lw x15 12 x2
    1bb88:        00778693        addi x13 x15 7
    1bb8c:        ff86f693        andi x13 x13 -8
    1bb90:        0006ad83        lw x27 0 x13
    1bb94:        0046ae03        lw x28 4 x13
    1bb98:        00868793        addi x15 x13 8
    1bb9c:        00f12623        sw x15 12 x2
    1bba0:        001bf693        andi x13 x23 1
    1bba4:        00068663        beq x13 x0 12
    1bba8:        01cde6b3        or x13 x27 x28
    1bbac:        42069ee3        bne x13 x0 3132
    1bbb0:        bffbfd13        andi x26 x23 -1025
    1bbb4:        00200713        addi x14 x0 2
    1bbb8:        02010da3        sb x0 59 x2
    1bbbc:        fff00693        addi x13 x0 -1
    1bbc0:        64dc0a63        beq x24 x13 1620
    1bbc4:        01cde6b3        or x13 x27 x28
    1bbc8:        f7fd7b93        andi x23 x26 -129
    1bbcc:        20069ee3        bne x13 x0 2588
    1bbd0:        720c1c63        bne x24 x0 1848
    1bbd4:        360712e3        bne x14 x0 2916
    1bbd8:        001d7d93        andi x27 x26 1
    1bbdc:        0f010b13        addi x22 x2 240
    1bbe0:        3a0d96e3        bne x27 x0 2988
    1bbe4:        000c0d13        addi x26 x24 0
    1bbe8:        01bc5463        bge x24 x27 8
    1bbec:        000d8d13        addi x26 x27 0
    1bbf0:        03b14783        lbu x15 59 x2
    1bbf4:        00f037b3        sltu x15 x0 x15
    1bbf8:        00fd0d33        add x26 x26 x15
    1bbfc:        0540006f        jal x0 84
    1bc00:        00000a13        addi x20 x0 0
    1bc04:        fd070613        addi x12 x14 -48
    1bc08:        001c8c93        addi x25 x25 1
    1bc0c:        002a1793        slli x15 x20 2
    1bc10:        fffcc703        lbu x14 -1 x25
    1bc14:        01478a33        add x20 x15 x20
    1bc18:        001a1a13        slli x20 x20 1
    1bc1c:        01460a33        add x20 x12 x20
    1bc20:        00900793        addi x15 x0 9
    1bc24:        fd070613        addi x12 x14 -48
    1bc28:        fec7f0e3        bgeu x15 x12 -32
    1bc2c:        fe070793        addi x15 x14 -32
    1bc30:        e2f6f4e3        bgeu x13 x15 -472
    1bc34:        ec070ae3        beq x14 x0 -300
    1bc38:        08e10623        sb x14 140 x2
    1bc3c:        02010da3        sb x0 59 x2
    1bc40:        00100d13        addi x26 x0 1
    1bc44:        00100d93        addi x27 x0 1
    1bc48:        08c10b13        addi x22 x2 140
    1bc4c:        00000c13        addi x24 x0 0
    1bc50:        002bff93        andi x31 x23 2
    1bc54:        000f8463        beq x31 x0 8
    1bc58:        002d0d13        addi x26 x26 2
    1bc5c:        04412703        lw x14 68 x2
    1bc60:        084bf813        andi x16 x23 132
    1bc64:        04812783        lw x15 72 x2
    1bc68:        00170693        addi x13 x14 1
    1bc6c:        00068613        addi x12 x13 0
    1bc70:        00081663        bne x16 x0 12
    1bc74:        41aa0e33        sub x28 x20 x26
    1bc78:        17c04ce3        blt x0 x28 2424
    1bc7c:        03b14583        lbu x11 59 x2
    1bc80:        00840693        addi x13 x8 8
    1bc84:        02058c63        beq x11 x0 56
    1bc88:        03b10713        addi x14 x2 59
    1bc8c:        00178793        addi x15 x15 1
    1bc90:        00e42023        sw x14 0 x8
    1bc94:        00100713        addi x14 x0 1
    1bc98:        00e42223        sw x14 4 x8
    1bc9c:        04f12423        sw x15 72 x2
    1bca0:        04c12223        sw x12 68 x2
    1bca4:        00700713        addi x14 x0 7
    1bca8:        10c740e3        blt x14 x12 2304
    1bcac:        00060713        addi x14 x12 0
    1bcb0:        00068413        addi x8 x13 0
    1bcb4:        00160613        addi x12 x12 1
    1bcb8:        00868693        addi x13 x13 8
    1bcbc:        040f8e63        beq x31 x0 92
    1bcc0:        03c10713        addi x14 x2 60
    1bcc4:        00278793        addi x15 x15 2
    1bcc8:        00e42023        sw x14 0 x8
    1bccc:        00200713        addi x14 x0 2
    1bcd0:        00e42223        sw x14 4 x8
    1bcd4:        04f12423        sw x15 72 x2
    1bcd8:        04c12223        sw x12 68 x2
    1bcdc:        00700713        addi x14 x0 7
    1bce0:        0ac75ae3        bge x14 x12 2228
    1bce4:        26078ce3        beq x15 x0 2680
    1bce8:        04010613        addi x12 x2 64
    1bcec:        00090593        addi x11 x18 0
    1bcf0:        00098513        addi x10 x19 0
    1bcf4:        01012a23        sw x16 20 x2
    1bcf8:        ab1ff0ef        jal x1 -1360 <__sprint_r.part.0>
    1bcfc:        e20512e3        bne x10 x0 -476
    1bd00:        04412703        lw x14 68 x2
    1bd04:        04812783        lw x15 72 x2
    1bd08:        01412803        lw x16 20 x2
    1bd0c:        05410693        addi x13 x2 84
    1bd10:        00170613        addi x12 x14 1
    1bd14:        00048413        addi x8 x9 0
    1bd18:        08000593        addi x11 x0 128
    1bd1c:        64b80a63        beq x16 x11 1620
    1bd20:        41bc0c33        sub x24 x24 x27
    1bd24:        75804663        blt x0 x24 1868
    1bd28:        00fd87b3        add x15 x27 x15
    1bd2c:        01642023        sw x22 0 x8
    1bd30:        01b42223        sw x27 4 x8
    1bd34:        04f12423        sw x15 72 x2
    1bd38:        04c12223        sw x12 68 x2
    1bd3c:        00700713        addi x14 x0 7
    1bd40:        02c75263        bge x14 x12 36
    1bd44:        18078463        beq x15 x0 392
    1bd48:        04010613        addi x12 x2 64
    1bd4c:        00090593        addi x11 x18 0
    1bd50:        00098513        addi x10 x19 0
    1bd54:        a55ff0ef        jal x1 -1452 <__sprint_r.part.0>
    1bd58:        dc0514e3        bne x10 x0 -568
    1bd5c:        04812783        lw x15 72 x2
    1bd60:        00048693        addi x13 x9 0
    1bd64:        004bf893        andi x17 x23 4
    1bd68:        00088663        beq x17 x0 12
    1bd6c:        41aa0433        sub x8 x20 x26
    1bd70:        16804a63        blt x0 x8 372
    1bd74:        01aa5463        bge x20 x26 8
    1bd78:        000d0a13        addi x20 x26 0
    1bd7c:        00812703        lw x14 8 x2
    1bd80:        01470733        add x14 x14 x20
    1bd84:        00e12423        sw x14 8 x2
    1bd88:        7a079e63        bne x15 x0 1980
    1bd8c:        04012223        sw x0 68 x2
    1bd90:        00048413        addi x8 x9 0
    1bd94:        c09ff06f        jal x0 -1016
    1bd98:        020bf793        andi x15 x23 32
    1bd9c:        010bed13        ori x26 x23 16
    1bda0:        54079263        bne x15 x0 1348
    1bda4:        00c12783        lw x15 12 x2
    1bda8:        00478713        addi x14 x15 4
    1bdac:        00c12783        lw x15 12 x2
    1bdb0:        00000e13        addi x28 x0 0
    1bdb4:        00e12623        sw x14 12 x2
    1bdb8:        0007ad83        lw x27 0 x15
    1bdbc:        00100713        addi x14 x0 1
    1bdc0:        df9ff06f        jal x0 -520
    1bdc4:        080beb93        ori x23 x23 128
    1bdc8:        000cc703        lbu x14 0 x25
    1bdcc:        c7dff06f        jal x0 -900
    1bdd0:        00c12783        lw x15 12 x2
    1bdd4:        02010da3        sb x0 59 x2
    1bdd8:        0007ab03        lw x22 0 x15
    1bddc:        00478713        addi x14 x15 4
    1bde0:        380b06e3        beq x22 x0 2956
    1bde4:        fff00793        addi x15 x0 -1
    1bde8:        00e12623        sw x14 12 x2
    1bdec:        24fc08e3        beq x24 x15 2640
    1bdf0:        000c0613        addi x12 x24 0
    1bdf4:        00000593        addi x11 x0 0
    1bdf8:        000b0513        addi x10 x22 0
    1bdfc:        f28fb0ef        jal x1 -18648 <memchr>
    1be00:        00c12703        lw x14 12 x2
    1be04:        4e0508e3        beq x10 x0 3312
    1be08:        41650db3        sub x27 x10 x22
    1be0c:        00000c13        addi x24 x0 0
    1be10:        dd5ff06f        jal x0 -556
    1be14:        020bf793        andi x15 x23 32
    1be18:        010be893        ori x17 x23 16
    1be1c:        46079a63        bne x15 x0 1140
    1be20:        00c12783        lw x15 12 x2
    1be24:        00478713        addi x14 x15 4
    1be28:        00c12783        lw x15 12 x2
    1be2c:        00000e13        addi x28 x0 0
    1be30:        00e12623        sw x14 12 x2
    1be34:        0007ad83        lw x27 0 x15
    1be38:        4740006f        jal x0 1140
    1be3c:        020bf793        andi x15 x23 32
    1be40:        010bed13        ori x26 x23 16
    1be44:        46079c63        bne x15 x0 1144
    1be48:        00c12783        lw x15 12 x2
    1be4c:        00478713        addi x14 x15 4
    1be50:        00c12783        lw x15 12 x2
    1be54:        00e12623        sw x14 12 x2
    1be58:        0007ad83        lw x27 0 x15
    1be5c:        41fdde13        srai x28 x27 31
    1be60:        000e0713        addi x14 x28 0
    1be64:        38074463        blt x14 x0 904
    1be68:        fff00713        addi x14 x0 -1
    1be6c:        00ec0a63        beq x24 x14 20
    1be70:        01cde733        or x14 x27 x28
    1be74:        f7fd7b93        andi x23 x26 -129
    1be78:        0a070ee3        beq x14 x0 2236
    1be7c:        000b8d13        addi x26 x23 0
    1be80:        1e0e18e3        bne x28 x0 2544
    1be84:        00900793        addi x15 x0 9
    1be88:        1fb7e4e3        bltu x15 x27 2536
    1be8c:        030d8793        addi x15 x27 48
    1be90:        0ef107a3        sb x15 239 x2
    1be94:        000d0b93        addi x23 x26 0
    1be98:        00100d93        addi x27 x0 1
    1be9c:        0ef10b13        addi x22 x2 239
    1bea0:        d45ff06f        jal x0 -700
    1bea4:        00c12703        lw x14 12 x2
    1bea8:        02010da3        sb x0 59 x2
    1beac:        00100d13        addi x26 x0 1
    1beb0:        00072783        lw x15 0 x14
    1beb4:        00470713        addi x14 x14 4
    1beb8:        00e12623        sw x14 12 x2
    1bebc:        08f10623        sb x15 140 x2
    1bec0:        00100d93        addi x27 x0 1
    1bec4:        08c10b13        addi x22 x2 140
    1bec8:        d85ff06f        jal x0 -636
    1becc:        04012223        sw x0 68 x2
    1bed0:        004bf893        andi x17 x23 4
    1bed4:        000886e3        beq x17 x0 2060
    1bed8:        41aa0433        sub x8 x20 x26
    1bedc:        008052e3        bge x0 x8 2052
    1bee0:        00048693        addi x13 x9 0
    1bee4:        01000713        addi x14 x0 16
    1bee8:        04412603        lw x12 68 x2
    1beec:        428754e3        bge x14 x8 3112
    1bef0:        00009e97        auipc x29 0x9
    1bef4:        880e8e93        addi x29 x29 -1920
    1bef8:        01000c13        addi x24 x0 16
    1befc:        00700d93        addi x27 x0 7
    1bf00:        000e8b13        addi x22 x29 0
    1bf04:        0180006f        jal x0 24
    1bf08:        00260593        addi x11 x12 2
    1bf0c:        00868693        addi x13 x13 8
    1bf10:        00070613        addi x12 x14 0
    1bf14:        ff040413        addi x8 x8 -16
    1bf18:        048c5863        bge x24 x8 80
    1bf1c:        01078793        addi x15 x15 16
    1bf20:        00160713        addi x14 x12 1
    1bf24:        0166a023        sw x22 0 x13
    1bf28:        0186a223        sw x24 4 x13
    1bf2c:        04f12423        sw x15 72 x2
    1bf30:        04e12223        sw x14 68 x2
    1bf34:        fceddae3        bge x27 x14 -44
    1bf38:        42078463        beq x15 x0 1064
    1bf3c:        04010613        addi x12 x2 64
    1bf40:        00090593        addi x11 x18 0
    1bf44:        00098513        addi x10 x19 0
    1bf48:        861ff0ef        jal x1 -1952 <__sprint_r.part.0>
    1bf4c:        bc051ae3        bne x10 x0 -1068
    1bf50:        04412603        lw x12 68 x2
    1bf54:        ff040413        addi x8 x8 -16
    1bf58:        04812783        lw x15 72 x2
    1bf5c:        00048693        addi x13 x9 0
    1bf60:        00160593        addi x11 x12 1
    1bf64:        fa8c4ce3        blt x24 x8 -72
    1bf68:        000b0e93        addi x29 x22 0
    1bf6c:        008787b3        add x15 x15 x8
    1bf70:        01d6a023        sw x29 0 x13
    1bf74:        0086a223        sw x8 4 x13
    1bf78:        04f12423        sw x15 72 x2
    1bf7c:        04b12223        sw x11 68 x2
    1bf80:        00700713        addi x14 x0 7
    1bf84:        deb758e3        bge x14 x11 -528
    1bf88:        74078c63        beq x15 x0 1880
    1bf8c:        04010613        addi x12 x2 64
    1bf90:        00090593        addi x11 x18 0
    1bf94:        00098513        addi x10 x19 0
    1bf98:        811ff0ef        jal x1 -2032 <__sprint_r.part.0>
    1bf9c:        b80512e3        bne x10 x0 -1148
    1bfa0:        04812783        lw x15 72 x2
    1bfa4:        dd1ff06f        jal x0 -560
    1bfa8:        03b14783        lbu x15 59 x2
    1bfac:        000cc703        lbu x14 0 x25
    1bfb0:        a8079ce3        bne x15 x0 -1384
    1bfb4:        02000793        addi x15 x0 32
    1bfb8:        02f10da3        sb x15 59 x2
    1bfbc:        a8dff06f        jal x0 -1396
    1bfc0:        02b00793        addi x15 x0 43
    1bfc4:        02f10da3        sb x15 59 x2
    1bfc8:        000cc703        lbu x14 0 x25
    1bfcc:        a7dff06f        jal x0 -1412
    1bfd0:        00c12783        lw x15 12 x2
    1bfd4:        000cc703        lbu x14 0 x25
    1bfd8:        0007aa03        lw x20 0 x15
    1bfdc:        00478793        addi x15 x15 4
    1bfe0:        00f12623        sw x15 12 x2
    1bfe4:        a60a52e3        bge x20 x0 -1436
    1bfe8:        41400a33        sub x20 x0 x20
    1bfec:        004beb93        ori x23 x23 4
    1bff0:        a59ff06f        jal x0 -1448
    1bff4:        001beb93        ori x23 x23 1
    1bff8:        000cc703        lbu x14 0 x25
    1bffc:        a4dff06f        jal x0 -1460
    1c000:        000cc703        lbu x14 0 x25
    1c004:        001c8793        addi x15 x25 1
    1c008:        33a70ee3        beq x14 x26 2876
    1c00c:        00078c93        addi x25 x15 0
    1c010:        fd070613        addi x12 x14 -48
    1c014:        00900793        addi x15 x0 9
    1c018:        00000c13        addi x24 x0 0
    1c01c:        a2c7eae3        bltu x15 x12 -1484
    1c020:        001c8c93        addi x25 x25 1
    1c024:        002c1793        slli x15 x24 2
    1c028:        fffcc703        lbu x14 -1 x25
    1c02c:        01878c33        add x24 x15 x24
    1c030:        001c1c13        slli x24 x24 1
    1c034:        00cc0c33        add x24 x24 x12
    1c038:        00900793        addi x15 x0 9
    1c03c:        fd070613        addi x12 x14 -48
    1c040:        fec7f0e3        bgeu x15 x12 -32
    1c044:        a0dff06f        jal x0 -1524
    1c048:        000cc703        lbu x14 0 x25
    1c04c:        004beb93        ori x23 x23 4
    1c050:        9f9ff06f        jal x0 -1544
    1c054:        020bf793        andi x15 x23 32
    1c058:        28079463        bne x15 x0 648
    1c05c:        00c12783        lw x15 12 x2
    1c060:        010bf693        andi x13 x23 16
    1c064:        00478713        addi x14 x15 4
    1c068:        0007a783        lw x15 0 x15
    1c06c:        2e069ee3        bne x13 x0 2812
    1c070:        040bf693        andi x13 x23 64
    1c074:        10068ce3        beq x13 x0 2328
    1c078:        01079d93        slli x27 x15 16
    1c07c:        00e12623        sw x14 12 x2
    1c080:        010ddd93        srli x27 x27 16
    1c084:        00000e13        addi x28 x0 0
    1c088:        000b8d13        addi x26 x23 0
    1c08c:        00100713        addi x14 x0 1
    1c090:        b29ff06f        jal x0 -1240
    1c094:        00008797        auipc x15 0x8
    1c098:        ffc78793        addi x15 x15 -4
    1c09c:        00f12823        sw x15 16 x2
    1c0a0:        020bf793        andi x15 x23 32
    1c0a4:        ae0790e3        bne x15 x0 -1312
    1c0a8:        00c12603        lw x12 12 x2
    1c0ac:        010bf693        andi x13 x23 16
    1c0b0:        00062783        lw x15 0 x12
    1c0b4:        00460613        addi x12 x12 4
    1c0b8:        00c12623        sw x12 12 x2
    1c0bc:        68069a63        bne x13 x0 1684
    1c0c0:        040bf693        andi x13 x23 64
    1c0c4:        68068263        beq x13 x0 1668
    1c0c8:        01079d93        slli x27 x15 16
    1c0cc:        010ddd93        srli x27 x27 16
    1c0d0:        00000e13        addi x28 x0 0
    1c0d4:        acdff06f        jal x0 -1332
    1c0d8:        00c12783        lw x15 12 x2
    1c0dc:        02412703        lw x14 36 x2
    1c0e0:        00000e13        addi x28 x0 0
    1c0e4:        0007ad83        lw x27 0 x15
    1c0e8:        00478793        addi x15 x15 4
    1c0ec:        00f12623        sw x15 12 x2
    1c0f0:        00008797        auipc x15 0x8
    1c0f4:        fa078793        addi x15 x15 -96
    1c0f8:        02e11e23        sh x14 60 x2
    1c0fc:        002bed13        ori x26 x23 2
    1c100:        00f12823        sw x15 16 x2
    1c104:        00200713        addi x14 x0 2
    1c108:        ab1ff06f        jal x0 -1360
    1c10c:        020bf793        andi x15 x23 32
    1c110:        16079e63        bne x15 x0 380
    1c114:        00c12783        lw x15 12 x2
    1c118:        010bf693        andi x13 x23 16
    1c11c:        00478713        addi x14 x15 4
    1c120:        0007a783        lw x15 0 x15
    1c124:        240696e3        bne x13 x0 2636
    1c128:        040bf693        andi x13 x23 64
    1c12c:        080680e3        beq x13 x0 2176
    1c130:        01079d93        slli x27 x15 16
    1c134:        010ddd93        srli x27 x27 16
    1c138:        00000e13        addi x28 x0 0
    1c13c:        000b8893        addi x17 x23 0
    1c140:        00e12623        sw x14 12 x2
    1c144:        1680006f        jal x0 360
    1c148:        00c12683        lw x13 12 x2
    1c14c:        020bf793        andi x15 x23 32
    1c150:        00468713        addi x14 x13 4
    1c154:        6c079663        bne x15 x0 1740
    1c158:        010bf793        andi x15 x23 16
    1c15c:        7e079c63        bne x15 x0 2040
    1c160:        040bf793        andi x15 x23 64
    1c164:        100798e3        bne x15 x0 2320
    1c168:        200bf893        andi x17 x23 512
    1c16c:        7e088463        beq x17 x0 2024
    1c170:        00c12783        lw x15 12 x2
    1c174:        00e12623        sw x14 12 x2
    1c178:        00812703        lw x14 8 x2
    1c17c:        0007a783        lw x15 0 x15
    1c180:        00e78023        sb x14 0 x15
    1c184:        819ff06f        jal x0 -2024
    1c188:        000cc703        lbu x14 0 x25
    1c18c:        06c00793        addi x15 x0 108
    1c190:        7af70a63        beq x14 x15 1972
    1c194:        010beb93        ori x23 x23 16
    1c198:        8b1ff06f        jal x0 -1872
    1c19c:        000cc703        lbu x14 0 x25
    1c1a0:        06800793        addi x15 x0 104
    1c1a4:        78f70863        beq x14 x15 1936
    1c1a8:        040beb93        ori x23 x23 64
    1c1ac:        89dff06f        jal x0 -1892
    1c1b0:        020bf793        andi x15 x23 32
    1c1b4:        10079263        bne x15 x0 260
    1c1b8:        00c12703        lw x14 12 x2
    1c1bc:        010bf793        andi x15 x23 16
    1c1c0:        00470713        addi x14 x14 4
    1c1c4:        1a079ae3        bne x15 x0 2484
    1c1c8:        040bf793        andi x15 x23 64
    1c1cc:        7e078e63        beq x15 x0 2044
    1c1d0:        00c12783        lw x15 12 x2
    1c1d4:        00e12623        sw x14 12 x2
    1c1d8:        000b8d13        addi x26 x23 0
    1c1dc:        00079d83        lh x27 0 x15
    1c1e0:        41fdde13        srai x28 x27 31
    1c1e4:        000e0713        addi x14 x28 0
    1c1e8:        c80750e3        bge x14 x0 -896
    1c1ec:        41b007b3        sub x15 x0 x27
    1c1f0:        00f03733        sltu x14 x0 x15
    1c1f4:        41c00e33        sub x28 x0 x28
    1c1f8:        40ee0e33        sub x28 x28 x14
    1c1fc:        02d00713        addi x14 x0 45
    1c200:        02e10da3        sb x14 59 x2
    1c204:        fff00693        addi x13 x0 -1
    1c208:        00078d93        addi x27 x15 0
    1c20c:        00100713        addi x14 x0 1
    1c210:        9adc1ae3        bne x24 x13 -1612
    1c214:        00100693        addi x13 x0 1
    1c218:        c6d704e3        beq x14 x13 -920
    1c21c:        00200693        addi x13 x0 2
    1c220:        0ed70e63        beq x14 x13 252
    1c224:        0f010693        addi x13 x2 240
    1c228:        0080006f        jal x0 8
    1c22c:        000b0693        addi x13 x22 0
    1c230:        01de1793        slli x15 x28 29
    1c234:        007df713        andi x14 x27 7
    1c238:        003ddd93        srli x27 x27 3
    1c23c:        03070713        addi x14 x14 48
    1c240:        01b7edb3        or x27 x15 x27
    1c244:        003e5e13        srli x28 x28 3
    1c248:        fee68fa3        sb x14 -1 x13
    1c24c:        01cde7b3        or x15 x27 x28
    1c250:        fff68b13        addi x22 x13 -1
    1c254:        fc079ce3        bne x15 x0 -40
    1c258:        001d7793        andi x15 x26 1
    1c25c:        0e078a63        beq x15 x0 244
    1c260:        03000793        addi x15 x0 48
    1c264:        0ef70663        beq x14 x15 236
    1c268:        ffe68693        addi x13 x13 -2
    1c26c:        fefb0fa3        sb x15 -1 x22
    1c270:        0f010793        addi x15 x2 240
    1c274:        40d78db3        sub x27 x15 x13
    1c278:        000d0b93        addi x23 x26 0
    1c27c:        00068b13        addi x22 x13 0
    1c280:        965ff06f        jal x0 -1692
    1c284:        ec0f70ef        jal x1 -35136 <__sinit>
    1c288:        e7cff06f        jal x0 -2436
    1c28c:        000b8893        addi x17 x23 0
    1c290:        00c12783        lw x15 12 x2
    1c294:        00778713        addi x14 x15 7
    1c298:        ff877713        andi x14 x14 -8
    1c29c:        00072d83        lw x27 0 x14
    1c2a0:        00472e03        lw x28 4 x14
    1c2a4:        00870793        addi x15 x14 8
    1c2a8:        00f12623        sw x15 12 x2
    1c2ac:        bff8fd13        andi x26 x17 -1025
    1c2b0:        00000713        addi x14 x0 0
    1c2b4:        905ff06f        jal x0 -1788
    1c2b8:        000b8d13        addi x26 x23 0
    1c2bc:        00c12783        lw x15 12 x2
    1c2c0:        00778793        addi x15 x15 7
    1c2c4:        ff87f793        andi x15 x15 -8
    1c2c8:        0047a703        lw x14 4 x15
    1c2cc:        00878693        addi x13 x15 8
    1c2d0:        00d12623        sw x13 12 x2
    1c2d4:        0007ad83        lw x27 0 x15
    1c2d8:        00070e13        addi x28 x14 0
    1c2dc:        b89ff06f        jal x0 -1144
    1c2e0:        000b8d13        addi x26 x23 0
    1c2e4:        00c12783        lw x15 12 x2
    1c2e8:        00778713        addi x14 x15 7
    1c2ec:        ff877713        andi x14 x14 -8
    1c2f0:        00870793        addi x15 x14 8
    1c2f4:        00072d83        lw x27 0 x14
    1c2f8:        00472e03        lw x28 4 x14
    1c2fc:        00f12623        sw x15 12 x2
    1c300:        00100713        addi x14 x0 1
    1c304:        8b5ff06f        jal x0 -1868
    1c308:        00100693        addi x13 x0 1
    1c30c:        7cd70a63        beq x14 x13 2004
    1c310:        00200693        addi x13 x0 2
    1c314:        000b8d13        addi x26 x23 0
    1c318:        f0d716e3        bne x14 x13 -244
    1c31c:        01012683        lw x13 16 x2
    1c320:        0f010b13        addi x22 x2 240
    1c324:        00fdf793        andi x15 x27 15
    1c328:        00f687b3        add x15 x13 x15
    1c32c:        0007c783        lbu x15 0 x15
    1c330:        01ce1713        slli x14 x28 28
    1c334:        004ddd93        srli x27 x27 4
    1c338:        fffb0b13        addi x22 x22 -1
    1c33c:        01b76db3        or x27 x14 x27
    1c340:        004e5e13        srli x28 x28 4
    1c344:        00fb0023        sb x15 0 x22
    1c348:        01cde7b3        or x15 x27 x28
    1c34c:        fc079ce3        bne x15 x0 -40
    1c350:        0f010793        addi x15 x2 240
    1c354:        41678db3        sub x27 x15 x22
    1c358:        000d0b93        addi x23 x26 0
    1c35c:        889ff06f        jal x0 -1912
    1c360:        00100593        addi x11 x0 1
    1c364:        00000613        addi x12 x0 0
    1c368:        00048693        addi x13 x9 0
    1c36c:        ba9ff06f        jal x0 -1112
    1c370:        41aa0e33        sub x28 x20 x26
    1c374:        9bc056e3        bge x0 x28 -1620
    1c378:        01000593        addi x11 x0 16
    1c37c:        7bc5da63        bge x11 x28 1972
    1c380:        00008e97        auipc x29 0x8
    1c384:        400e8e93        addi x29 x29 1024
    1c388:        01612a23        sw x22 20 x2
    1c38c:        03412423        sw x20 40 x2
    1c390:        01000f13        addi x30 x0 16
    1c394:        00700f93        addi x31 x0 7
    1c398:        000e0a13        addi x20 x28 0
    1c39c:        000e8b13        addi x22 x29 0
    1c3a0:        0180006f        jal x0 24
    1c3a4:        00270593        addi x11 x14 2
    1c3a8:        00840413        addi x8 x8 8
    1c3ac:        00068713        addi x14 x13 0
    1c3b0:        ff0a0a13        addi x20 x20 -16
    1c3b4:        054f5c63        bge x30 x20 88
    1c3b8:        01078793        addi x15 x15 16
    1c3bc:        00170693        addi x13 x14 1
    1c3c0:        01642023        sw x22 0 x8
    1c3c4:        01e42223        sw x30 4 x8
    1c3c8:        04f12423        sw x15 72 x2
    1c3cc:        04d12223        sw x13 68 x2
    1c3d0:        fcdfdae3        bge x31 x13 -44
    1c3d4:        18078463        beq x15 x0 392
    1c3d8:        04010613        addi x12 x2 64
    1c3dc:        00090593        addi x11 x18 0
    1c3e0:        00098513        addi x10 x19 0
    1c3e4:        bc4ff0ef        jal x1 -3132 <__sprint_r.part.0>
    1c3e8:        f2051c63        bne x10 x0 -2248
    1c3ec:        04412703        lw x14 68 x2
    1c3f0:        01000f13        addi x30 x0 16
    1c3f4:        ff0a0a13        addi x20 x20 -16
    1c3f8:        04812783        lw x15 72 x2
    1c3fc:        00048413        addi x8 x9 0
    1c400:        00170593        addi x11 x14 1
    1c404:        00700f93        addi x31 x0 7
    1c408:        fb4f48e3        blt x30 x20 -80
    1c40c:        000a0e13        addi x28 x20 0
    1c410:        000b0e93        addi x29 x22 0
    1c414:        02812a03        lw x20 40 x2
    1c418:        01412b03        lw x22 20 x2
    1c41c:        00840513        addi x10 x8 8
    1c420:        01c787b3        add x15 x15 x28
    1c424:        01d42023        sw x29 0 x8
    1c428:        01c42223        sw x28 4 x8
    1c42c:        04f12423        sw x15 72 x2
    1c430:        04b12223        sw x11 68 x2
    1c434:        00700713        addi x14 x0 7
    1c438:        38b75e63        bge x14 x11 924
    1c43c:        5c078063        beq x15 x0 1472
    1c440:        04010613        addi x12 x2 64
    1c444:        00090593        addi x11 x18 0
    1c448:        00098513        addi x10 x19 0
    1c44c:        b5cff0ef        jal x1 -3236 <__sprint_r.part.0>
    1c450:        ec051863        bne x10 x0 -2352
    1c454:        04412703        lw x14 68 x2
    1c458:        41bc0c33        sub x24 x24 x27
    1c45c:        04812783        lw x15 72 x2
    1c460:        05410693        addi x13 x2 84
    1c464:        00170613        addi x12 x14 1
    1c468:        00048413        addi x8 x9 0
    1c46c:        8b805ee3        bge x0 x24 -1860
    1c470:        01000593        addi x11 x0 16
    1c474:        5785dc63        bge x11 x24 1400
    1c478:        00008e97        auipc x29 0x8
    1c47c:        308e8e93        addi x29 x29 776
    1c480:        01412a23        sw x20 20 x2
    1c484:        01000e13        addi x28 x0 16
    1c488:        00700f13        addi x30 x0 7
    1c48c:        000e8a13        addi x20 x29 0
    1c490:        0180006f        jal x0 24
    1c494:        00270613        addi x12 x14 2
    1c498:        00840413        addi x8 x8 8
    1c49c:        00068713        addi x14 x13 0
    1c4a0:        ff0c0c13        addi x24 x24 -16
    1c4a4:        058e5c63        bge x28 x24 88
    1c4a8:        01078793        addi x15 x15 16
    1c4ac:        00170693        addi x13 x14 1
    1c4b0:        01442023        sw x20 0 x8
    1c4b4:        01c42223        sw x28 4 x8
    1c4b8:        04f12423        sw x15 72 x2
    1c4bc:        04d12223        sw x13 68 x2
    1c4c0:        fcdf5ae3        bge x30 x13 -44
    1c4c4:        06078863        beq x15 x0 112
    1c4c8:        04010613        addi x12 x2 64
    1c4cc:        00090593        addi x11 x18 0
    1c4d0:        00098513        addi x10 x19 0
    1c4d4:        ad4ff0ef        jal x1 -3372 <__sprint_r.part.0>
    1c4d8:        e4051463        bne x10 x0 -2488
    1c4dc:        04412703        lw x14 68 x2
    1c4e0:        01000e13        addi x28 x0 16
    1c4e4:        ff0c0c13        addi x24 x24 -16
    1c4e8:        04812783        lw x15 72 x2
    1c4ec:        00048413        addi x8 x9 0
    1c4f0:        00170613        addi x12 x14 1
    1c4f4:        00700f13        addi x30 x0 7
    1c4f8:        fb8e48e3        blt x28 x24 -80
    1c4fc:        000a0e93        addi x29 x20 0
    1c500:        01412a03        lw x20 20 x2
    1c504:        00840593        addi x11 x8 8
    1c508:        018787b3        add x15 x15 x24
    1c50c:        01d42023        sw x29 0 x8
    1c510:        01842223        sw x24 4 x8
    1c514:        04f12423        sw x15 72 x2
    1c518:        04c12223        sw x12 68 x2
    1c51c:        00700713        addi x14 x0 7
    1c520:        1cc74c63        blt x14 x12 472
    1c524:        00160613        addi x12 x12 1
    1c528:        00858693        addi x13 x11 8
    1c52c:        00058413        addi x8 x11 0
    1c530:        ff8ff06f        jal x0 -2056
    1c534:        00100613        addi x12 x0 1
    1c538:        00000713        addi x14 x0 0
    1c53c:        00048413        addi x8 x9 0
    1c540:        f61ff06f        jal x0 -160
    1c544:        04010613        addi x12 x2 64
    1c548:        00090593        addi x11 x18 0
    1c54c:        00098513        addi x10 x19 0
    1c550:        a58ff0ef        jal x1 -3496 <__sprint_r.part.0>
    1c554:        82050ce3        beq x10 x0 -1992
    1c558:        dc8ff06f        jal x0 -2616
    1c55c:        00100593        addi x11 x0 1
    1c560:        00000713        addi x14 x0 0
    1c564:        00048413        addi x8 x9 0
    1c568:        e49ff06f        jal x0 -440
    1c56c:        22079863        bne x15 x0 560
    1c570:        03b14703        lbu x14 59 x2
    1c574:        4e071263        bne x14 x0 1252
    1c578:        200f8063        beq x31 x0 512
    1c57c:        03c10793        addi x15 x2 60
    1c580:        04f12623        sw x15 76 x2
    1c584:        00200793        addi x15 x0 2
    1c588:        04f12823        sw x15 80 x2
    1c58c:        00100613        addi x12 x0 1
    1c590:        05410693        addi x13 x2 84
    1c594:        00060713        addi x14 x12 0
    1c598:        00068413        addi x8 x13 0
    1c59c:        00160613        addi x12 x12 1
    1c5a0:        00868693        addi x13 x13 8
    1c5a4:        f74ff06f        jal x0 -2188
    1c5a8:        fc0788e3        beq x15 x0 -48
    1c5ac:        04010613        addi x12 x2 64
    1c5b0:        00090593        addi x11 x18 0
    1c5b4:        00098513        addi x10 x19 0
    1c5b8:        03012423        sw x16 40 x2
    1c5bc:        01f12a23        sw x31 20 x2
    1c5c0:        9e8ff0ef        jal x1 -3608 <__sprint_r.part.0>
    1c5c4:        d4051e63        bne x10 x0 -2724
    1c5c8:        04412703        lw x14 68 x2
    1c5cc:        04812783        lw x15 72 x2
    1c5d0:        05410693        addi x13 x2 84
    1c5d4:        00170613        addi x12 x14 1
    1c5d8:        00048413        addi x8 x9 0
    1c5dc:        02812803        lw x16 40 x2
    1c5e0:        01412f83        lw x31 20 x2
    1c5e4:        ed8ff06f        jal x0 -2344
    1c5e8:        000b8d13        addi x26 x23 0
    1c5ec:        c29ff06f        jal x0 -984
    1c5f0:        01000613        addi x12 x0 16
    1c5f4:        51c65863        bge x12 x28 1296
    1c5f8:        00008e97        auipc x29 0x8
    1c5fc:        178e8e93        addi x29 x29 376
    1c600:        00040613        addi x12 x8 0
    1c604:        03412623        sw x20 44 x2
    1c608:        01000293        addi x5 x0 16
    1c60c:        00700393        addi x7 x0 7
    1c610:        01f12a23        sw x31 20 x2
    1c614:        03012423        sw x16 40 x2
    1c618:        000e0413        addi x8 x28 0
    1c61c:        000e8a13        addi x20 x29 0
    1c620:        01c0006f        jal x0 28
    1c624:        00270593        addi x11 x14 2
    1c628:        00860613        addi x12 x12 8
    1c62c:        00068713        addi x14 x13 0
    1c630:        ff040413        addi x8 x8 -16
    1c634:        0482dc63        bge x5 x8 88
    1c638:        00170693        addi x13 x14 1
    1c63c:        01078793        addi x15 x15 16
    1c640:        01462023        sw x20 0 x12
    1c644:        00562223        sw x5 4 x12
    1c648:        04f12423        sw x15 72 x2
    1c64c:        04d12223        sw x13 68 x2
    1c650:        fcd3dae3        bge x7 x13 -44
    1c654:        06078e63        beq x15 x0 124
    1c658:        04010613        addi x12 x2 64
    1c65c:        00090593        addi x11 x18 0
    1c660:        00098513        addi x10 x19 0
    1c664:        944ff0ef        jal x1 -3772 <__sprint_r.part.0>
    1c668:        ca051c63        bne x10 x0 -2888
    1c66c:        04412703        lw x14 68 x2
    1c670:        01000293        addi x5 x0 16
    1c674:        ff040413        addi x8 x8 -16
    1c678:        04812783        lw x15 72 x2
    1c67c:        00048613        addi x12 x9 0
    1c680:        00170593        addi x11 x14 1
    1c684:        00700393        addi x7 x0 7
    1c688:        fa82c8e3        blt x5 x8 -80
    1c68c:        000a0e93        addi x29 x20 0
    1c690:        01412f83        lw x31 20 x2
    1c694:        02812803        lw x16 40 x2
    1c698:        02c12a03        lw x20 44 x2
    1c69c:        00040e13        addi x28 x8 0
    1c6a0:        00060413        addi x8 x12 0
    1c6a4:        01c787b3        add x15 x15 x28
    1c6a8:        01d42023        sw x29 0 x8
    1c6ac:        01c42223        sw x28 4 x8
    1c6b0:        04f12423        sw x15 72 x2
    1c6b4:        04b12223        sw x11 68 x2
    1c6b8:        00700713        addi x14 x0 7
    1c6bc:        eab748e3        blt x14 x11 -336
    1c6c0:        00840413        addi x8 x8 8
    1c6c4:        00158613        addi x12 x11 1
    1c6c8:        00058713        addi x14 x11 0
    1c6cc:        db0ff06f        jal x0 -2640
    1c6d0:        00000713        addi x14 x0 0
    1c6d4:        00100593        addi x11 x0 1
    1c6d8:        00048613        addi x12 x9 0
    1c6dc:        f55ff06f        jal x0 -172
    1c6e0:        01aa5463        bge x20 x26 8
    1c6e4:        000d0a13        addi x20 x26 0
    1c6e8:        00812783        lw x15 8 x2
    1c6ec:        014787b3        add x15 x15 x20
    1c6f0:        00f12423        sw x15 8 x2
    1c6f4:        e98ff06f        jal x0 -2408
    1c6f8:        14078c63        beq x15 x0 344
    1c6fc:        04010613        addi x12 x2 64
    1c700:        00090593        addi x11 x18 0
    1c704:        00098513        addi x10 x19 0
    1c708:        8a0ff0ef        jal x1 -3936 <__sprint_r.part.0>
    1c70c:        c0051a63        bne x10 x0 -3052
    1c710:        04412603        lw x12 68 x2
    1c714:        04812783        lw x15 72 x2
    1c718:        05410693        addi x13 x2 84
    1c71c:        00160613        addi x12 x12 1
    1c720:        00048413        addi x8 x9 0
    1c724:        e04ff06f        jal x0 -2556
    1c728:        04012223        sw x0 68 x2
    1c72c:        00048413        addi x8 x9 0
    1c730:        ae8ff06f        jal x0 -3352
    1c734:        3a0c1663        bne x24 x0 940
    1c738:        00000c13        addi x24 x0 0
    1c73c:        00000d93        addi x27 x0 0
    1c740:        0f010b13        addi x22 x2 240
    1c744:        ca0ff06f        jal x0 -2912
    1c748:        200bf693        andi x13 x23 512
    1c74c:        38069463        bne x13 x0 904
    1c750:        00078d93        addi x27 x15 0
    1c754:        00000e13        addi x28 x0 0
    1c758:        c48ff06f        jal x0 -3000
    1c75c:        05410693        addi x13 x2 84
    1c760:        00100613        addi x12 x0 1
    1c764:        00000713        addi x14 x0 0
    1c768:        00048413        addi x8 x9 0
    1c76c:        dacff06f        jal x0 -2644
    1c770:        000c8d13        addi x26 x25 0
    1c774:        ab8ff06f        jal x0 -3400
    1c778:        00000713        addi x14 x0 0
    1c77c:        05410693        addi x13 x2 84
    1c780:        00100613        addi x12 x0 1
    1c784:        00048413        addi x8 x9 0
    1c788:        d90ff06f        jal x0 -2672
    1c78c:        03000793        addi x15 x0 48
    1c790:        0ef107a3        sb x15 239 x2
    1c794:        0ef10b13        addi x22 x2 239
    1c798:        c4cff06f        jal x0 -2996
    1c79c:        04010613        addi x12 x2 64
    1c7a0:        00090593        addi x11 x18 0
    1c7a4:        00098513        addi x10 x19 0
    1c7a8:        03012423        sw x16 40 x2
    1c7ac:        01f12a23        sw x31 20 x2
    1c7b0:        ff9fe0ef        jal x1 -4104 <__sprint_r.part.0>
    1c7b4:        b6051663        bne x10 x0 -3220
    1c7b8:        04412703        lw x14 68 x2
    1c7bc:        04812783        lw x15 72 x2
    1c7c0:        00048413        addi x8 x9 0
    1c7c4:        00170613        addi x12 x14 1
    1c7c8:        02812803        lw x16 40 x2
    1c7cc:        01412f83        lw x31 20 x2
    1c7d0:        cacff06f        jal x0 -2900
    1c7d4:        00158613        addi x12 x11 1
    1c7d8:        00850693        addi x13 x10 8
    1c7dc:        00058713        addi x14 x11 0
    1c7e0:        00050413        addi x8 x10 0
    1c7e4:        d3cff06f        jal x0 -2756
    1c7e8:        03000693        addi x13 x0 48
    1c7ec:        002beb93        ori x23 x23 2
    1c7f0:        02e10ea3        sb x14 61 x2
    1c7f4:        02d10e23        sb x13 60 x2
    1c7f8:        bffbfd13        andi x26 x23 -1025
    1c7fc:        00200713        addi x14 x0 2
    1c800:        bb8ff06f        jal x0 -3144
    1c804:        01812783        lw x15 24 x2
    1c808:        000cc703        lbu x14 0 x25
    1c80c:        a2078e63        beq x15 x0 -3524
    1c810:        0007c783        lbu x15 0 x15
    1c814:        a2078a63        beq x15 x0 -3532
    1c818:        400beb93        ori x23 x23 1024
    1c81c:        a2cff06f        jal x0 -3540
    1c820:        00812603        lw x12 8 x2
    1c824:        0006a783        lw x15 0 x13
    1c828:        00e12623        sw x14 12 x2
    1c82c:        41f65693        srai x13 x12 31
    1c830:        00c7a023        sw x12 0 x15
    1c834:        00d7a223        sw x13 4 x15
    1c838:        964ff06f        jal x0 -3740
    1c83c:        000b0513        addi x10 x22 0
    1c840:        b44fc0ef        jal x1 -15548 <strlen>
    1c844:        00050d93        addi x27 x10 0
    1c848:        00000c13        addi x24 x0 0
    1c84c:        b98ff06f        jal x0 -3176
    1c850:        00100713        addi x14 x0 1
    1c854:        000d8793        addi x15 x27 0
    1c858:        05612623        sw x22 76 x2
    1c85c:        05b12823        sw x27 80 x2
    1c860:        05b12423        sw x27 72 x2
    1c864:        04e12223        sw x14 68 x2
    1c868:        05410693        addi x13 x2 84
    1c86c:        cf8ff06f        jal x0 -2824
    1c870:        0f010b13        addi x22 x2 240
    1c874:        400d7793        andi x15 x26 1024
    1c878:        00812a23        sw x8 20 x2
    1c87c:        03412423        sw x20 40 x2
    1c880:        03312623        sw x19 44 x2
    1c884:        00000b93        addi x23 x0 0
    1c888:        000b0993        addi x19 x22 0
    1c88c:        00078413        addi x8 x15 0
    1c890:        000c8b13        addi x22 x25 0
    1c894:        000e0a13        addi x20 x28 0
    1c898:        00090c93        addi x25 x18 0
    1c89c:        01812903        lw x18 24 x2
    1c8a0:        0240006f        jal x0 36
    1c8a4:        00a00613        addi x12 x0 10
    1c8a8:        00000693        addi x13 x0 0
    1c8ac:        000d8513        addi x10 x27 0
    1c8b0:        000a0593        addi x11 x20 0
    1c8b4:        084030ef        jal x1 12420 <__udivdi3>
    1c8b8:        220a0863        beq x20 x0 560
    1c8bc:        00050d93        addi x27 x10 0
    1c8c0:        00058a13        addi x20 x11 0
    1c8c4:        00a00613        addi x12 x0 10
    1c8c8:        00000693        addi x13 x0 0
    1c8cc:        000d8513        addi x10 x27 0
    1c8d0:        000a0593        addi x11 x20 0
    1c8d4:        498030ef        jal x1 13464 <__umoddi3>
    1c8d8:        03050513        addi x10 x10 48
    1c8dc:        fea98fa3        sb x10 -1 x19
    1c8e0:        001b8b93        addi x23 x23 1
    1c8e4:        fff98993        addi x19 x19 -1
    1c8e8:        fa040ee3        beq x8 x0 -68
    1c8ec:        00094703        lbu x14 0 x18
    1c8f0:        fb771ae3        bne x14 x23 -76
    1c8f4:        0ff00793        addi x15 x0 255
    1c8f8:        fafb86e3        beq x23 x15 -84
    1c8fc:        100a1a63        bne x20 x0 276
    1c900:        00900793        addi x15 x0 9
    1c904:        11b7e663        bltu x15 x27 268
    1c908:        01212c23        sw x18 24 x2
    1c90c:        0f010793        addi x15 x2 240
    1c910:        000c8913        addi x18 x25 0
    1c914:        000b0c93        addi x25 x22 0
    1c918:        00098b13        addi x22 x19 0
    1c91c:        01412403        lw x8 20 x2
    1c920:        02812a03        lw x20 40 x2
    1c924:        02c12983        lw x19 44 x2
    1c928:        41678db3        sub x27 x15 x22
    1c92c:        000d0b93        addi x23 x26 0
    1c930:        ab4ff06f        jal x0 -3404
    1c934:        001cc703        lbu x14 1 x25
    1c938:        200beb93        ori x23 x23 512
    1c93c:        001c8c93        addi x25 x25 1
    1c940:        908ff06f        jal x0 -3832
    1c944:        001cc703        lbu x14 1 x25
    1c948:        020beb93        ori x23 x23 32
    1c94c:        001c8c93        addi x25 x25 1
    1c950:        8f8ff06f        jal x0 -3848
    1c954:        00c12783        lw x15 12 x2
    1c958:        0007a783        lw x15 0 x15
    1c95c:        00e12623        sw x14 12 x2
    1c960:        00812703        lw x14 8 x2
    1c964:        00e7a023        sw x14 0 x15
    1c968:        834ff06f        jal x0 -4044
    1c96c:        00600793        addi x15 x0 6
    1c970:        000c0d93        addi x27 x24 0
    1c974:        0d87ee63        bltu x15 x24 220
    1c978:        000d8d13        addi x26 x27 0
    1c97c:        00e12623        sw x14 12 x2
    1c980:        00007b17        auipc x22 0x7
    1c984:        738b0b13        addi x22 x22 1848
    1c988:        ac4ff06f        jal x0 -3388
    1c98c:        200bf693        andi x13 x23 512
    1c990:        12068663        beq x13 x0 300
    1c994:        00e12623        sw x14 12 x2
    1c998:        0ff7fd93        andi x27 x15 255
    1c99c:        00000e13        addi x28 x0 0
    1c9a0:        000b8d13        addi x26 x23 0
    1c9a4:        00100713        addi x14 x0 1
    1c9a8:        a10ff06f        jal x0 -3568
    1c9ac:        200bf693        andi x13 x23 512
    1c9b0:        0e068c63        beq x13 x0 248
    1c9b4:        0ff7fd93        andi x27 x15 255
    1c9b8:        00000e13        addi x28 x0 0
    1c9bc:        000b8893        addi x17 x23 0
    1c9c0:        00e12623        sw x14 12 x2
    1c9c4:        8e9ff06f        jal x0 -1816
    1c9c8:        200bf793        andi x15 x23 512
    1c9cc:        0c078063        beq x15 x0 192
    1c9d0:        00c12783        lw x15 12 x2
    1c9d4:        000b8d13        addi x26 x23 0
    1c9d8:        00e12623        sw x14 12 x2
    1c9dc:        00078d83        lb x27 0 x15
    1c9e0:        41fdde13        srai x28 x27 31
    1c9e4:        000e0713        addi x14 x28 0
    1c9e8:        c7cff06f        jal x0 -2948
    1c9ec:        00068593        addi x11 x13 0
    1c9f0:        00008e97        auipc x29 0x8
    1c9f4:        d90e8e93        addi x29 x29 -624
    1c9f8:        b11ff06f        jal x0 -1264
    1c9fc:        05410693        addi x13 x2 84
    1ca00:        00100613        addi x12 x0 1
    1ca04:        00000713        addi x14 x0 0
    1ca08:        00048413        addi x8 x9 0
    1ca0c:        b14ff06f        jal x0 -3308
    1ca10:        02012783        lw x15 32 x2
    1ca14:        01c12583        lw x11 28 x2
    1ca18:        00000b93        addi x23 x0 0
    1ca1c:        40f989b3        sub x19 x19 x15
    1ca20:        00078613        addi x12 x15 0
    1ca24:        00098513        addi x10 x19 0
    1ca28:        9e8fc0ef        jal x1 -15896 <strncpy>
    1ca2c:        00194703        lbu x14 1 x18
    1ca30:        00a00613        addi x12 x0 10
    1ca34:        00000693        addi x13 x0 0
    1ca38:        00e03733        sltu x14 x0 x14
    1ca3c:        000d8513        addi x10 x27 0
    1ca40:        000a0593        addi x11 x20 0
    1ca44:        00e90933        add x18 x18 x14
    1ca48:        6f1020ef        jal x1 12016 <__udivdi3>
    1ca4c:        e71ff06f        jal x0 -400
    1ca50:        00600d93        addi x27 x0 6
    1ca54:        f25ff06f        jal x0 -220
    1ca58:        03b10793        addi x15 x2 59
    1ca5c:        04f12623        sw x15 76 x2
    1ca60:        00100793        addi x15 x0 1
    1ca64:        04f12823        sw x15 80 x2
    1ca68:        00100613        addi x12 x0 1
    1ca6c:        05410693        addi x13 x2 84
    1ca70:        a3cff06f        jal x0 -3524
    1ca74:        00c12783        lw x15 12 x2
    1ca78:        00e12623        sw x14 12 x2
    1ca7c:        00812703        lw x14 8 x2
    1ca80:        0007a783        lw x15 0 x15
    1ca84:        00e79023        sh x14 0 x15
    1ca88:        f15fe06f        jal x0 -4332
    1ca8c:        00c12783        lw x15 12 x2
    1ca90:        000b8d13        addi x26 x23 0
    1ca94:        00e12623        sw x14 12 x2
    1ca98:        0007ad83        lw x27 0 x15
    1ca9c:        41fdde13        srai x28 x27 31
    1caa0:        000e0713        addi x14 x28 0
    1caa4:        bc0ff06f        jal x0 -3136
    1caa8:        00078d93        addi x27 x15 0
    1caac:        00000e13        addi x28 x0 0
    1cab0:        000b8893        addi x17 x23 0
    1cab4:        00e12623        sw x14 12 x2
    1cab8:        ff4ff06f        jal x0 -2060
    1cabc:        00e12623        sw x14 12 x2
    1cac0:        00078d93        addi x27 x15 0
    1cac4:        00000e13        addi x28 x0 0
    1cac8:        000b8d13        addi x26 x23 0
    1cacc:        00100713        addi x14 x0 1
    1cad0:        8e8ff06f        jal x0 -3864
    1cad4:        0ff7fd93        andi x27 x15 255
    1cad8:        00000e13        addi x28 x0 0
    1cadc:        8c4ff06f        jal x0 -3900
    1cae0:        000b8d13        addi x26 x23 0
    1cae4:        ba8ff06f        jal x0 -3160
    1cae8:        00900793        addi x15 x0 9
    1caec:        ddb7e8e3        bltu x15 x27 -560
    1caf0:        e19ff06f        jal x0 -488
    1caf4:        000c0d93        addi x27 x24 0
    1caf8:        00e12623        sw x14 12 x2
    1cafc:        00000c13        addi x24 x0 0
    1cb00:        8e4ff06f        jal x0 -3868
    1cb04:        00068593        addi x11 x13 0
    1cb08:        00008e97        auipc x29 0x8
    1cb0c:        c68e8e93        addi x29 x29 -920
    1cb10:        b95ff06f        jal x0 -1132
    1cb14:        00160593        addi x11 x12 1
    1cb18:        00008e97        auipc x29 0x8
    1cb1c:        c58e8e93        addi x29 x29 -936
    1cb20:        c4cff06f        jal x0 -2996
    1cb24:        fff00793        addi x15 x0 -1
    1cb28:        00f12423        sw x15 8 x2
    1cb2c:        804ff06f        jal x0 -4092
    1cb30:        00068513        addi x10 x13 0
    1cb34:        00060593        addi x11 x12 0
    1cb38:        00008e97        auipc x29 0x8
    1cb3c:        c48e8e93        addi x29 x29 -952
    1cb40:        8e1ff06f        jal x0 -1824
    1cb44:        00c12703        lw x14 12 x2
    1cb48:        00072c03        lw x24 0 x14
    1cb4c:        00470693        addi x13 x14 4
    1cb50:        000c5463        bge x24 x0 8
    1cb54:        fff00c13        addi x24 x0 -1
    1cb58:        001cc703        lbu x14 1 x25
    1cb5c:        00d12623        sw x13 12 x2
    1cb60:        00078c93        addi x25 x15 0
    1cb64:        ee5fe06f        jal x0 -4380
    1cb68:        000b8d13        addi x26 x23 0
    1cb6c:        a40ff06f        jal x0 -3520
    1cb70:        000b8893        addi x17 x23 0
    1cb74:        ab4ff06f        jal x0 -3404
    1cb78:        000b8d13        addi x26 x23 0
    1cb7c:        ad4ff06f        jal x0 -3372

0001cb80 <vfiprintf>:
    1cb80:        1c018793        addi x15 x3 448
    1cb84:        00060693        addi x13 x12 0
    1cb88:        00058613        addi x12 x11 0
    1cb8c:        00050593        addi x11 x10 0
    1cb90:        0007a503        lw x10 0 x15
    1cb94:        d1dfe06f        jal x0 -4836 <_vfiprintf_r>

0001cb98 <__sbprintf>:
    1cb98:        00c5d783        lhu x15 12 x11
    1cb9c:        0645ae03        lw x28 100 x11
    1cba0:        00e5d303        lhu x6 14 x11
    1cba4:        01c5a883        lw x17 28 x11
    1cba8:        0245a803        lw x16 36 x11
    1cbac:        b8010113        addi x2 x2 -1152
    1cbb0:        ffd7f793        andi x15 x15 -3
    1cbb4:        40000713        addi x14 x0 1024
    1cbb8:        46812c23        sw x8 1144 x2
    1cbbc:        00f11a23        sh x15 20 x2
    1cbc0:        00058413        addi x8 x11 0
    1cbc4:        07010793        addi x15 x2 112
    1cbc8:        00810593        addi x11 x2 8
    1cbcc:        46912a23        sw x9 1140 x2
    1cbd0:        47212823        sw x18 1136 x2
    1cbd4:        46112e23        sw x1 1148 x2
    1cbd8:        00050913        addi x18 x10 0
    1cbdc:        07c12623        sw x28 108 x2
    1cbe0:        00611b23        sh x6 22 x2
    1cbe4:        03112223        sw x17 36 x2
    1cbe8:        03012623        sw x16 44 x2
    1cbec:        00f12423        sw x15 8 x2
    1cbf0:        00f12c23        sw x15 24 x2
    1cbf4:        00e12823        sw x14 16 x2
    1cbf8:        00e12e23        sw x14 28 x2
    1cbfc:        02012023        sw x0 32 x2
    1cc00:        cb1fe0ef        jal x1 -4944 <_vfiprintf_r>
    1cc04:        00050493        addi x9 x10 0
    1cc08:        02055c63        bge x10 x0 56
    1cc0c:        01415783        lhu x15 20 x2
    1cc10:        0407f793        andi x15 x15 64
    1cc14:        00078863        beq x15 x0 16
    1cc18:        00c45783        lhu x15 12 x8
    1cc1c:        0407e793        ori x15 x15 64
    1cc20:        00f41623        sh x15 12 x8
    1cc24:        47c12083        lw x1 1148 x2
    1cc28:        47812403        lw x8 1144 x2
    1cc2c:        00048513        addi x10 x9 0
    1cc30:        47012903        lw x18 1136 x2
    1cc34:        47412483        lw x9 1140 x2
    1cc38:        48010113        addi x2 x2 1152
    1cc3c:        00008067        jalr x0 x1 0
    1cc40:        00810593        addi x11 x2 8
    1cc44:        00090513        addi x10 x18 0
    1cc48:        951f60ef        jal x1 -38576 <_fflush_r>
    1cc4c:        fc0500e3        beq x10 x0 -64
    1cc50:        fff00493        addi x9 x0 -1
    1cc54:        fb9ff06f        jal x0 -72

0001cc58 <_wctomb_r>:
    1cc58:        c2818793        addi x15 x3 -984
    1cc5c:        0e07a303        lw x6 224 x15
    1cc60:        00030067        jalr x0 x6 0

0001cc64 <__ascii_wctomb>:
    1cc64:        02058463        beq x11 x0 40
    1cc68:        0ff00793        addi x15 x0 255
    1cc6c:        00c7e863        bltu x15 x12 16
    1cc70:        00c58023        sb x12 0 x11
    1cc74:        00100513        addi x10 x0 1
    1cc78:        00008067        jalr x0 x1 0
    1cc7c:        08a00793        addi x15 x0 138
    1cc80:        00f52023        sw x15 0 x10
    1cc84:        fff00513        addi x10 x0 -1
    1cc88:        00008067        jalr x0 x1 0
    1cc8c:        00000513        addi x10 x0 0
    1cc90:        00008067        jalr x0 x1 0

0001cc94 <_write_r>:
    1cc94:        00058793        addi x15 x11 0
    1cc98:        ff010113        addi x2 x2 -16
    1cc9c:        00812423        sw x8 8 x2
    1cca0:        00060593        addi x11 x12 0
    1cca4:        00050413        addi x8 x10 0
    1cca8:        00068613        addi x12 x13 0
    1ccac:        00078513        addi x10 x15 0
    1ccb0:        00112623        sw x1 12 x2
    1ccb4:        2201a223        sw x0 548 x3
    1ccb8:        381020ef        jal x1 11136 <_write>
    1ccbc:        fff00793        addi x15 x0 -1
    1ccc0:        00f50a63        beq x10 x15 20
    1ccc4:        00c12083        lw x1 12 x2
    1ccc8:        00812403        lw x8 8 x2
    1cccc:        01010113        addi x2 x2 16
    1ccd0:        00008067        jalr x0 x1 0
    1ccd4:        22418793        addi x15 x3 548
    1ccd8:        0007a783        lw x15 0 x15
    1ccdc:        fe0784e3        beq x15 x0 -24
    1cce0:        00f42023        sw x15 0 x8
    1cce4:        00c12083        lw x1 12 x2
    1cce8:        00812403        lw x8 8 x2
    1ccec:        01010113        addi x2 x2 16
    1ccf0:        00008067        jalr x0 x1 0

0001ccf4 <_calloc_r>:
    1ccf4:        02c585b3        mul x11 x11 x12
    1ccf8:        ff010113        addi x2 x2 -16
    1ccfc:        00812423        sw x8 8 x2
    1cd00:        00112623        sw x1 12 x2
    1cd04:        fe1f90ef        jal x1 -24608 <_malloc_r>
    1cd08:        00050413        addi x8 x10 0
    1cd0c:        02050863        beq x10 x0 48
    1cd10:        ffc52603        lw x12 -4 x10
    1cd14:        02400713        addi x14 x0 36
    1cd18:        ffc67613        andi x12 x12 -4
    1cd1c:        ffc60613        addi x12 x12 -4
    1cd20:        06c76063        bltu x14 x12 96
    1cd24:        01300693        addi x13 x0 19
    1cd28:        00050793        addi x15 x10 0
    1cd2c:        02c6e263        bltu x13 x12 36
    1cd30:        0007a023        sw x0 0 x15
    1cd34:        0007a223        sw x0 4 x15
    1cd38:        0007a423        sw x0 8 x15
    1cd3c:        00040513        addi x10 x8 0
    1cd40:        00c12083        lw x1 12 x2
    1cd44:        00812403        lw x8 8 x2
    1cd48:        01010113        addi x2 x2 16
    1cd4c:        00008067        jalr x0 x1 0
    1cd50:        00052023        sw x0 0 x10
    1cd54:        00052223        sw x0 4 x10
    1cd58:        01b00793        addi x15 x0 27
    1cd5c:        04c7f063        bgeu x15 x12 64
    1cd60:        00052423        sw x0 8 x10
    1cd64:        00052623        sw x0 12 x10
    1cd68:        01050793        addi x15 x10 16
    1cd6c:        fce612e3        bne x12 x14 -60
    1cd70:        00052823        sw x0 16 x10
    1cd74:        01850793        addi x15 x10 24
    1cd78:        00052a23        sw x0 20 x10
    1cd7c:        fb5ff06f        jal x0 -76
    1cd80:        00000593        addi x11 x0 0
    1cd84:        d2cf30ef        jal x1 -51924 <memset>
    1cd88:        00040513        addi x10 x8 0
    1cd8c:        00c12083        lw x1 12 x2
    1cd90:        00812403        lw x8 8 x2
    1cd94:        01010113        addi x2 x2 16
    1cd98:        00008067        jalr x0 x1 0
    1cd9c:        00850793        addi x15 x10 8
    1cda0:        f91ff06f        jal x0 -112

0001cda4 <_close_r>:
    1cda4:        ff010113        addi x2 x2 -16
    1cda8:        00812423        sw x8 8 x2
    1cdac:        00050413        addi x8 x10 0
    1cdb0:        00058513        addi x10 x11 0
    1cdb4:        2201a223        sw x0 548 x3
    1cdb8:        00112623        sw x1 12 x2
    1cdbc:        7f0020ef        jal x1 10224 <_close>
    1cdc0:        fff00793        addi x15 x0 -1
    1cdc4:        00f50a63        beq x10 x15 20
    1cdc8:        00c12083        lw x1 12 x2
    1cdcc:        00812403        lw x8 8 x2
    1cdd0:        01010113        addi x2 x2 16
    1cdd4:        00008067        jalr x0 x1 0
    1cdd8:        22418793        addi x15 x3 548
    1cddc:        0007a783        lw x15 0 x15
    1cde0:        fe0784e3        beq x15 x0 -24
    1cde4:        00f42023        sw x15 0 x8
    1cde8:        00c12083        lw x1 12 x2
    1cdec:        00812403        lw x8 8 x2
    1cdf0:        01010113        addi x2 x2 16
    1cdf4:        00008067        jalr x0 x1 0

0001cdf8 <_fclose_r>:
    1cdf8:        ff010113        addi x2 x2 -16
    1cdfc:        00112623        sw x1 12 x2
    1ce00:        00812423        sw x8 8 x2
    1ce04:        00912223        sw x9 4 x2
    1ce08:        01212023        sw x18 0 x2
    1ce0c:        02058063        beq x11 x0 32
    1ce10:        00050493        addi x9 x10 0
    1ce14:        00058413        addi x8 x11 0
    1ce18:        00050663        beq x10 x0 12
    1ce1c:        03852783        lw x15 56 x10
    1ce20:        0a078c63        beq x15 x0 184
    1ce24:        00c41783        lh x15 12 x8
    1ce28:        02079263        bne x15 x0 36
    1ce2c:        00c12083        lw x1 12 x2
    1ce30:        00812403        lw x8 8 x2
    1ce34:        00000913        addi x18 x0 0
    1ce38:        00090513        addi x10 x18 0
    1ce3c:        00412483        lw x9 4 x2
    1ce40:        00012903        lw x18 0 x2
    1ce44:        01010113        addi x2 x2 16
    1ce48:        00008067        jalr x0 x1 0
    1ce4c:        00040593        addi x11 x8 0
    1ce50:        00048513        addi x10 x9 0
    1ce54:        ce8f60ef        jal x1 -39704 <__sflush_r>
    1ce58:        02c42783        lw x15 44 x8
    1ce5c:        00050913        addi x18 x10 0
    1ce60:        00078a63        beq x15 x0 20
    1ce64:        01c42583        lw x11 28 x8
    1ce68:        00048513        addi x10 x9 0
    1ce6c:        000780e7        jalr x1 x15 0
    1ce70:        06054c63        blt x10 x0 120
    1ce74:        00c45783        lhu x15 12 x8
    1ce78:        0807f793        andi x15 x15 128
    1ce7c:        06079e63        bne x15 x0 124
    1ce80:        03042583        lw x11 48 x8
    1ce84:        00058c63        beq x11 x0 24
    1ce88:        04040793        addi x15 x8 64
    1ce8c:        00f58663        beq x11 x15 12
    1ce90:        00048513        addi x10 x9 0
    1ce94:        c21f60ef        jal x1 -37856 <_free_r>
    1ce98:        02042823        sw x0 48 x8
    1ce9c:        04442583        lw x11 68 x8
    1cea0:        00058863        beq x11 x0 16
    1cea4:        00048513        addi x10 x9 0
    1cea8:        c0df60ef        jal x1 -37876 <_free_r>
    1ceac:        04042223        sw x0 68 x8
    1ceb0:        aa5f60ef        jal x1 -38236 <__sfp_lock_acquire>
    1ceb4:        00041623        sh x0 12 x8
    1ceb8:        aa1f60ef        jal x1 -38240 <__sfp_lock_release>
    1cebc:        00c12083        lw x1 12 x2
    1cec0:        00812403        lw x8 8 x2
    1cec4:        00090513        addi x10 x18 0
    1cec8:        00412483        lw x9 4 x2
    1cecc:        00012903        lw x18 0 x2
    1ced0:        01010113        addi x2 x2 16
    1ced4:        00008067        jalr x0 x1 0
    1ced8:        a6df60ef        jal x1 -38292 <__sinit>
    1cedc:        00c41783        lh x15 12 x8
    1cee0:        f40786e3        beq x15 x0 -180
    1cee4:        f69ff06f        jal x0 -152
    1cee8:        00c45783        lhu x15 12 x8
    1ceec:        fff00913        addi x18 x0 -1
    1cef0:        0807f793        andi x15 x15 128
    1cef4:        f80786e3        beq x15 x0 -116
    1cef8:        01042583        lw x11 16 x8
    1cefc:        00048513        addi x10 x9 0
    1cf00:        bb5f60ef        jal x1 -37964 <_free_r>
    1cf04:        f7dff06f        jal x0 -132

0001cf08 <fclose>:
    1cf08:        1c018793        addi x15 x3 448
    1cf0c:        00050593        addi x11 x10 0
    1cf10:        0007a503        lw x10 0 x15
    1cf14:        ee5ff06f        jal x0 -284 <_fclose_r>

0001cf18 <__fputwc>:
    1cf18:        fd010113        addi x2 x2 -48
    1cf1c:        02812423        sw x8 40 x2
    1cf20:        01312e23        sw x19 28 x2
    1cf24:        01512a23        sw x21 20 x2
    1cf28:        02112623        sw x1 44 x2
    1cf2c:        02912223        sw x9 36 x2
    1cf30:        03212023        sw x18 32 x2
    1cf34:        01412c23        sw x20 24 x2
    1cf38:        01612823        sw x22 16 x2
    1cf3c:        00050993        addi x19 x10 0
    1cf40:        00058a93        addi x21 x11 0
    1cf44:        00060413        addi x8 x12 0
    1cf48:        b91f90ef        jal x1 -25712 <__locale_mb_cur_max>
    1cf4c:        00100793        addi x15 x0 1
    1cf50:        02f51063        bne x10 x15 32
    1cf54:        fffa8793        addi x15 x21 -1
    1cf58:        0fe00713        addi x14 x0 254
    1cf5c:        00f76a63        bltu x14 x15 20
    1cf60:        0ffaf713        andi x14 x21 255
    1cf64:        00e10623        sb x14 12 x2
    1cf68:        00100913        addi x18 x0 1
    1cf6c:        02c0006f        jal x0 44
    1cf70:        05c40693        addi x13 x8 92
    1cf74:        000a8613        addi x12 x21 0
    1cf78:        00c10593        addi x11 x2 12
    1cf7c:        00098513        addi x10 x19 0
    1cf80:        524020ef        jal x1 9508 <_wcrtomb_r>
    1cf84:        fff00793        addi x15 x0 -1
    1cf88:        00050913        addi x18 x10 0
    1cf8c:        0af50463        beq x10 x15 168
    1cf90:        08050e63        beq x10 x0 156
    1cf94:        00c14703        lbu x14 12 x2
    1cf98:        00000493        addi x9 x0 0
    1cf9c:        fff00a13        addi x20 x0 -1
    1cfa0:        00a00b13        addi x22 x0 10
    1cfa4:        0280006f        jal x0 40
    1cfa8:        00042783        lw x15 0 x8
    1cfac:        00178693        addi x13 x15 1
    1cfb0:        00d42023        sw x13 0 x8
    1cfb4:        00e78023        sb x14 0 x15
    1cfb8:        00148493        addi x9 x9 1
    1cfbc:        00c10793        addi x15 x2 12
    1cfc0:        009787b3        add x15 x15 x9
    1cfc4:        0724f463        bgeu x9 x18 104
    1cfc8:        0007c703        lbu x14 0 x15
    1cfcc:        00842783        lw x15 8 x8
    1cfd0:        fff78793        addi x15 x15 -1
    1cfd4:        00f42423        sw x15 8 x8
    1cfd8:        fc07d8e3        bge x15 x0 -48
    1cfdc:        01842683        lw x13 24 x8
    1cfe0:        00070593        addi x11 x14 0
    1cfe4:        00040613        addi x12 x8 0
    1cfe8:        00098513        addi x10 x19 0
    1cfec:        00d7c463        blt x15 x13 8
    1cff0:        fb671ce3        bne x14 x22 -72
    1cff4:        318020ef        jal x1 8984 <__swbuf_r>
    1cff8:        fd4510e3        bne x10 x20 -64
    1cffc:        fff00913        addi x18 x0 -1
    1d000:        02c12083        lw x1 44 x2
    1d004:        02812403        lw x8 40 x2
    1d008:        00090513        addi x10 x18 0
    1d00c:        02412483        lw x9 36 x2
    1d010:        02012903        lw x18 32 x2
    1d014:        01c12983        lw x19 28 x2
    1d018:        01812a03        lw x20 24 x2
    1d01c:        01412a83        lw x21 20 x2
    1d020:        01012b03        lw x22 16 x2
    1d024:        03010113        addi x2 x2 48
    1d028:        00008067        jalr x0 x1 0
    1d02c:        000a8913        addi x18 x21 0
    1d030:        fd1ff06f        jal x0 -48
    1d034:        00c45783        lhu x15 12 x8
    1d038:        0407e793        ori x15 x15 64
    1d03c:        00f41623        sh x15 12 x8
    1d040:        fc1ff06f        jal x0 -64

0001d044 <_fputwc_r>:
    1d044:        00c61783        lh x15 12 x12
    1d048:        01279713        slli x14 x15 18
    1d04c:        02074063        blt x14 x0 32
    1d050:        06462703        lw x14 100 x12
    1d054:        000026b7        lui x13 0x2
    1d058:        00d7e7b3        or x15 x15 x13
    1d05c:        000026b7        lui x13 0x2
    1d060:        00d76733        or x14 x14 x13
    1d064:        00f61623        sh x15 12 x12
    1d068:        06e62223        sw x14 100 x12
    1d06c:        eadff06f        jal x0 -340 <__fputwc>

0001d070 <fputwc>:
    1d070:        fe010113        addi x2 x2 -32
    1d074:        1c018793        addi x15 x3 448
    1d078:        00812c23        sw x8 24 x2
    1d07c:        0007a403        lw x8 0 x15
    1d080:        00912a23        sw x9 20 x2
    1d084:        00112e23        sw x1 28 x2
    1d088:        00050493        addi x9 x10 0
    1d08c:        00058613        addi x12 x11 0
    1d090:        00040663        beq x8 x0 12
    1d094:        03842783        lw x15 56 x8
    1d098:        04078463        beq x15 x0 72
    1d09c:        00c61783        lh x15 12 x12
    1d0a0:        01279713        slli x14 x15 18
    1d0a4:        02074063        blt x14 x0 32
    1d0a8:        06462703        lw x14 100 x12
    1d0ac:        000026b7        lui x13 0x2
    1d0b0:        00d7e7b3        or x15 x15 x13
    1d0b4:        000026b7        lui x13 0x2
    1d0b8:        00d76733        or x14 x14 x13
    1d0bc:        00f61623        sh x15 12 x12
    1d0c0:        06e62223        sw x14 100 x12
    1d0c4:        00040513        addi x10 x8 0
    1d0c8:        01812403        lw x8 24 x2
    1d0cc:        01c12083        lw x1 28 x2
    1d0d0:        00048593        addi x11 x9 0
    1d0d4:        01412483        lw x9 20 x2
    1d0d8:        02010113        addi x2 x2 32
    1d0dc:        e3dff06f        jal x0 -452 <__fputwc>
    1d0e0:        00040513        addi x10 x8 0
    1d0e4:        00b12623        sw x11 12 x2
    1d0e8:        85df60ef        jal x1 -38820 <__sinit>
    1d0ec:        00c12603        lw x12 12 x2
    1d0f0:        fadff06f        jal x0 -84

0001d0f4 <_fstat_r>:
    1d0f4:        00058793        addi x15 x11 0
    1d0f8:        ff010113        addi x2 x2 -16
    1d0fc:        00812423        sw x8 8 x2
    1d100:        00060593        addi x11 x12 0
    1d104:        00050413        addi x8 x10 0
    1d108:        00078513        addi x10 x15 0
    1d10c:        00112623        sw x1 12 x2
    1d110:        2201a223        sw x0 548 x3
    1d114:        534020ef        jal x1 9524 <_fstat>
    1d118:        fff00793        addi x15 x0 -1
    1d11c:        00f50a63        beq x10 x15 20
    1d120:        00c12083        lw x1 12 x2
    1d124:        00812403        lw x8 8 x2
    1d128:        01010113        addi x2 x2 16
    1d12c:        00008067        jalr x0 x1 0
    1d130:        22418793        addi x15 x3 548
    1d134:        0007a783        lw x15 0 x15
    1d138:        fe0784e3        beq x15 x0 -24
    1d13c:        00f42023        sw x15 0 x8
    1d140:        00c12083        lw x1 12 x2
    1d144:        00812403        lw x8 8 x2
    1d148:        01010113        addi x2 x2 16
    1d14c:        00008067        jalr x0 x1 0

0001d150 <__sfvwrite_r>:
    1d150:        00862783        lw x15 8 x12
    1d154:        34078263        beq x15 x0 836
    1d158:        00c5d783        lhu x15 12 x11
    1d15c:        fd010113        addi x2 x2 -48
    1d160:        02812423        sw x8 40 x2
    1d164:        01412c23        sw x20 24 x2
    1d168:        01512a23        sw x21 20 x2
    1d16c:        02112623        sw x1 44 x2
    1d170:        02912223        sw x9 36 x2
    1d174:        03212023        sw x18 32 x2
    1d178:        01312e23        sw x19 28 x2
    1d17c:        01612823        sw x22 16 x2
    1d180:        01712623        sw x23 12 x2
    1d184:        01812423        sw x24 8 x2
    1d188:        01912223        sw x25 4 x2
    1d18c:        01a12023        sw x26 0 x2
    1d190:        0087f713        andi x14 x15 8
    1d194:        00058413        addi x8 x11 0
    1d198:        00050a93        addi x21 x10 0
    1d19c:        00060a13        addi x20 x12 0
    1d1a0:        08070a63        beq x14 x0 148
    1d1a4:        0105a703        lw x14 16 x11
    1d1a8:        08070663        beq x14 x0 140
    1d1ac:        0027f713        andi x14 x15 2
    1d1b0:        000a2483        lw x9 0 x20
    1d1b4:        0a070063        beq x14 x0 160
    1d1b8:        02442703        lw x14 36 x8
    1d1bc:        01c42783        lw x15 28 x8
    1d1c0:        80000b37        lui x22 0x80000
    1d1c4:        00000993        addi x19 x0 0
    1d1c8:        00000913        addi x18 x0 0
    1d1cc:        c00b4b13        xori x22 x22 -1024
    1d1d0:        00098613        addi x12 x19 0
    1d1d4:        00078593        addi x11 x15 0
    1d1d8:        000a8513        addi x10 x21 0
    1d1dc:        04090463        beq x18 x0 72
    1d1e0:        00090693        addi x13 x18 0
    1d1e4:        012b7463        bgeu x22 x18 8
    1d1e8:        000b0693        addi x13 x22 0
    1d1ec:        000700e7        jalr x1 x14 0
    1d1f0:        28a05a63        bge x0 x10 660
    1d1f4:        008a2783        lw x15 8 x20
    1d1f8:        00a989b3        add x19 x19 x10
    1d1fc:        40a90933        sub x18 x18 x10
    1d200:        40a78533        sub x10 x15 x10
    1d204:        00aa2423        sw x10 8 x20
    1d208:        20050c63        beq x10 x0 536
    1d20c:        01c42783        lw x15 28 x8
    1d210:        02442703        lw x14 36 x8
    1d214:        00098613        addi x12 x19 0
    1d218:        00078593        addi x11 x15 0
    1d21c:        000a8513        addi x10 x21 0
    1d220:        fc0910e3        bne x18 x0 -64
    1d224:        0004a983        lw x19 0 x9
    1d228:        0044a903        lw x18 4 x9
    1d22c:        00848493        addi x9 x9 8
    1d230:        fa1ff06f        jal x0 -96
    1d234:        00040593        addi x11 x8 0
    1d238:        000a8513        addi x10 x21 0
    1d23c:        de1f50ef        jal x1 -41504 <__swsetup_r>
    1d240:        3a051c63        bne x10 x0 952
    1d244:        00c45783        lhu x15 12 x8
    1d248:        000a2483        lw x9 0 x20
    1d24c:        0027f713        andi x14 x15 2
    1d250:        f60714e3        bne x14 x0 -152
    1d254:        0017f713        andi x14 x15 1
    1d258:        24071463        bne x14 x0 584
    1d25c:        00842c83        lw x25 8 x8
    1d260:        00042503        lw x10 0 x8
    1d264:        80000bb7        lui x23 0x80000
    1d268:        ffebcc13        xori x24 x23 -2
    1d26c:        00000b13        addi x22 x0 0
    1d270:        00000913        addi x18 x0 0
    1d274:        fffbcb93        xori x23 x23 -1
    1d278:        0e090e63        beq x18 x0 252
    1d27c:        2007f713        andi x14 x15 512
    1d280:        24070c63        beq x14 x0 600
    1d284:        000c8d13        addi x26 x25 0
    1d288:        2f996263        bltu x18 x25 740
    1d28c:        4807f713        andi x14 x15 1152
    1d290:        08070a63        beq x14 x0 148
    1d294:        01442683        lw x13 20 x8
    1d298:        01042583        lw x11 16 x8
    1d29c:        00190713        addi x14 x18 1
    1d2a0:        00169993        slli x19 x13 1
    1d2a4:        00d986b3        add x13 x19 x13
    1d2a8:        01f6d993        srli x19 x13 31
    1d2ac:        40b50cb3        sub x25 x10 x11
    1d2b0:        00d989b3        add x19 x19 x13
    1d2b4:        4019d993        srai x19 x19 1
    1d2b8:        01970733        add x14 x14 x25
    1d2bc:        00098613        addi x12 x19 0
    1d2c0:        00e9f663        bgeu x19 x14 12
    1d2c4:        00070993        addi x19 x14 0
    1d2c8:        00070613        addi x12 x14 0
    1d2cc:        4007f793        andi x15 x15 1024
    1d2d0:        2e078463        beq x15 x0 744
    1d2d4:        00060593        addi x11 x12 0
    1d2d8:        000a8513        addi x10 x21 0
    1d2dc:        a09f90ef        jal x1 -26104 <_malloc_r>
    1d2e0:        00050d13        addi x26 x10 0
    1d2e4:        30050263        beq x10 x0 772
    1d2e8:        01042583        lw x11 16 x8
    1d2ec:        000c8613        addi x12 x25 0
    1d2f0:        3c4000ef        jal x1 964 <memcpy>
    1d2f4:        00c45783        lhu x15 12 x8
    1d2f8:        b7f7f793        andi x15 x15 -1153
    1d2fc:        0807e793        ori x15 x15 128
    1d300:        00f41623        sh x15 12 x8
    1d304:        019d0533        add x10 x26 x25
    1d308:        419987b3        sub x15 x19 x25
    1d30c:        01a42823        sw x26 16 x8
    1d310:        00a42023        sw x10 0 x8
    1d314:        01342a23        sw x19 20 x8
    1d318:        00090c93        addi x25 x18 0
    1d31c:        00f42423        sw x15 8 x8
    1d320:        00090d13        addi x26 x18 0
    1d324:        000d0613        addi x12 x26 0
    1d328:        000b0593        addi x11 x22 0
    1d32c:        4a4000ef        jal x1 1188 <memmove>
    1d330:        00842783        lw x15 8 x8
    1d334:        00042603        lw x12 0 x8
    1d338:        00090993        addi x19 x18 0
    1d33c:        41978cb3        sub x25 x15 x25
    1d340:        01a60633        add x12 x12 x26
    1d344:        01942423        sw x25 8 x8
    1d348:        00c42023        sw x12 0 x8
    1d34c:        00000913        addi x18 x0 0
    1d350:        008a2783        lw x15 8 x20
    1d354:        013b0b33        add x22 x22 x19
    1d358:        413789b3        sub x19 x15 x19
    1d35c:        013a2423        sw x19 8 x20
    1d360:        0c098063        beq x19 x0 192
    1d364:        00842c83        lw x25 8 x8
    1d368:        00042503        lw x10 0 x8
    1d36c:        00c45783        lhu x15 12 x8
    1d370:        f00916e3        bne x18 x0 -244
    1d374:        0004ab03        lw x22 0 x9
    1d378:        0044a903        lw x18 4 x9
    1d37c:        00848493        addi x9 x9 8
    1d380:        ef9ff06f        jal x0 -264
    1d384:        0044a983        lw x19 4 x9
    1d388:        0004ab83        lw x23 0 x9
    1d38c:        00848493        addi x9 x9 8
    1d390:        fe098ae3        beq x19 x0 -12
    1d394:        00098613        addi x12 x19 0
    1d398:        00a00593        addi x11 x0 10
    1d39c:        000b8513        addi x10 x23 0
    1d3a0:        984fa0ef        jal x1 -24188 <memchr>
    1d3a4:        12050463        beq x10 x0 296
    1d3a8:        00150513        addi x10 x10 1
    1d3ac:        41750b33        sub x22 x10 x23
    1d3b0:        000b0793        addi x15 x22 0
    1d3b4:        00098c13        addi x24 x19 0
    1d3b8:        0137f463        bgeu x15 x19 8
    1d3bc:        00078c13        addi x24 x15 0
    1d3c0:        00042503        lw x10 0 x8
    1d3c4:        01042783        lw x15 16 x8
    1d3c8:        01442683        lw x13 20 x8
    1d3cc:        00a7f863        bgeu x15 x10 16
    1d3d0:        00842903        lw x18 8 x8
    1d3d4:        01268933        add x18 x13 x18
    1d3d8:        09894263        blt x18 x24 132
    1d3dc:        1adc4863        blt x24 x13 432
    1d3e0:        02442783        lw x15 36 x8
    1d3e4:        01c42583        lw x11 28 x8
    1d3e8:        000b8613        addi x12 x23 0
    1d3ec:        000a8513        addi x10 x21 0
    1d3f0:        000780e7        jalr x1 x15 0
    1d3f4:        00050913        addi x18 x10 0
    1d3f8:        08a05663        bge x0 x10 140
    1d3fc:        412b0b33        sub x22 x22 x18
    1d400:        00100513        addi x10 x0 1
    1d404:        160b0a63        beq x22 x0 372
    1d408:        008a2783        lw x15 8 x20
    1d40c:        012b8bb3        add x23 x23 x18
    1d410:        412989b3        sub x19 x19 x18
    1d414:        41278933        sub x18 x15 x18
    1d418:        012a2423        sw x18 8 x20
    1d41c:        08091a63        bne x18 x0 148
    1d420:        00000513        addi x10 x0 0
    1d424:        02c12083        lw x1 44 x2
    1d428:        02812403        lw x8 40 x2
    1d42c:        02412483        lw x9 36 x2
    1d430:        02012903        lw x18 32 x2
    1d434:        01c12983        lw x19 28 x2
    1d438:        01812a03        lw x20 24 x2
    1d43c:        01412a83        lw x21 20 x2
    1d440:        01012b03        lw x22 16 x2
    1d444:        00c12b83        lw x23 12 x2
    1d448:        00812c03        lw x24 8 x2
    1d44c:        00412c83        lw x25 4 x2
    1d450:        00012d03        lw x26 0 x2
    1d454:        03010113        addi x2 x2 48
    1d458:        00008067        jalr x0 x1 0
    1d45c:        000b8593        addi x11 x23 0
    1d460:        00090613        addi x12 x18 0
    1d464:        36c000ef        jal x1 876 <memmove>
    1d468:        00042783        lw x15 0 x8
    1d46c:        00040593        addi x11 x8 0
    1d470:        000a8513        addi x10 x21 0
    1d474:        012787b3        add x15 x15 x18
    1d478:        00f42023        sw x15 0 x8
    1d47c:        91cf60ef        jal x1 -40676 <_fflush_r>
    1d480:        f6050ee3        beq x10 x0 -132
    1d484:        00c41783        lh x15 12 x8
    1d488:        0407e793        ori x15 x15 64
    1d48c:        00f41623        sh x15 12 x8
    1d490:        fff00513        addi x10 x0 -1
    1d494:        f91ff06f        jal x0 -112
    1d498:        00000513        addi x10 x0 0
    1d49c:        00008067        jalr x0 x1 0
    1d4a0:        00000b13        addi x22 x0 0
    1d4a4:        00000513        addi x10 x0 0
    1d4a8:        00000b93        addi x23 x0 0
    1d4ac:        00000993        addi x19 x0 0
    1d4b0:        ec098ae3        beq x19 x0 -300
    1d4b4:        ee051ee3        bne x10 x0 -260
    1d4b8:        00098613        addi x12 x19 0
    1d4bc:        00a00593        addi x11 x0 10
    1d4c0:        000b8513        addi x10 x23 0
    1d4c4:        860fa0ef        jal x1 -24480 <memchr>
    1d4c8:        ee0510e3        bne x10 x0 -288
    1d4cc:        00198793        addi x15 x19 1
    1d4d0:        00078b13        addi x22 x15 0
    1d4d4:        ee1ff06f        jal x0 -288
    1d4d8:        01042783        lw x15 16 x8
    1d4dc:        04a7e263        bltu x15 x10 68
    1d4e0:        01442783        lw x15 20 x8
    1d4e4:        02f96e63        bltu x18 x15 60
    1d4e8:        00090693        addi x13 x18 0
    1d4ec:        012c7463        bgeu x24 x18 8
    1d4f0:        000b8693        addi x13 x23 0
    1d4f4:        02f6c6b3        div x13 x13 x15
    1d4f8:        02442703        lw x14 36 x8
    1d4fc:        01c42583        lw x11 28 x8
    1d500:        000b0613        addi x12 x22 0
    1d504:        000a8513        addi x10 x21 0
    1d508:        02f686b3        mul x13 x13 x15
    1d50c:        000700e7        jalr x1 x14 0
    1d510:        f6a05ae3        bge x0 x10 -140
    1d514:        00050993        addi x19 x10 0
    1d518:        41390933        sub x18 x18 x19
    1d51c:        e35ff06f        jal x0 -460
    1d520:        000c8993        addi x19 x25 0
    1d524:        01997463        bgeu x18 x25 8
    1d528:        00090993        addi x19 x18 0
    1d52c:        00098613        addi x12 x19 0
    1d530:        000b0593        addi x11 x22 0
    1d534:        29c000ef        jal x1 668 <memmove>
    1d538:        00842783        lw x15 8 x8
    1d53c:        00042703        lw x14 0 x8
    1d540:        413787b3        sub x15 x15 x19
    1d544:        01370733        add x14 x14 x19
    1d548:        00f42423        sw x15 8 x8
    1d54c:        00e42023        sw x14 0 x8
    1d550:        fc0794e3        bne x15 x0 -56
    1d554:        00040593        addi x11 x8 0
    1d558:        000a8513        addi x10 x21 0
    1d55c:        83cf60ef        jal x1 -40900 <_fflush_r>
    1d560:        f20512e3        bne x10 x0 -220
    1d564:        41390933        sub x18 x18 x19
    1d568:        de9ff06f        jal x0 -536
    1d56c:        00090c93        addi x25 x18 0
    1d570:        00090d13        addi x26 x18 0
    1d574:        db1ff06f        jal x0 -592
    1d578:        00040593        addi x11 x8 0
    1d57c:        000a8513        addi x10 x21 0
    1d580:        818f60ef        jal x1 -40936 <_fflush_r>
    1d584:        e80502e3        beq x10 x0 -380
    1d588:        efdff06f        jal x0 -260
    1d58c:        000c0613        addi x12 x24 0
    1d590:        000b8593        addi x11 x23 0
    1d594:        23c000ef        jal x1 572 <memmove>
    1d598:        00842703        lw x14 8 x8
    1d59c:        00042783        lw x15 0 x8
    1d5a0:        000c0913        addi x18 x24 0
    1d5a4:        41870733        sub x14 x14 x24
    1d5a8:        01878c33        add x24 x15 x24
    1d5ac:        00e42423        sw x14 8 x8
    1d5b0:        01842023        sw x24 0 x8
    1d5b4:        e49ff06f        jal x0 -440
    1d5b8:        000a8513        addi x10 x21 0
    1d5bc:        394000ef        jal x1 916 <_realloc_r>
    1d5c0:        00050d13        addi x26 x10 0
    1d5c4:        d40510e3        bne x10 x0 -704
    1d5c8:        01042583        lw x11 16 x8
    1d5cc:        000a8513        addi x10 x21 0
    1d5d0:        ce4f60ef        jal x1 -39708 <_free_r>
    1d5d4:        00c41783        lh x15 12 x8
    1d5d8:        00c00713        addi x14 x0 12
    1d5dc:        00eaa023        sw x14 0 x21
    1d5e0:        f7f7f793        andi x15 x15 -129
    1d5e4:        ea5ff06f        jal x0 -348
    1d5e8:        00c00793        addi x15 x0 12
    1d5ec:        00faa023        sw x15 0 x21
    1d5f0:        00c41783        lh x15 12 x8
    1d5f4:        e95ff06f        jal x0 -364
    1d5f8:        fff00513        addi x10 x0 -1
    1d5fc:        e29ff06f        jal x0 -472

0001d600 <_isatty_r>:
    1d600:        ff010113        addi x2 x2 -16
    1d604:        00812423        sw x8 8 x2
    1d608:        00050413        addi x8 x10 0
    1d60c:        00058513        addi x10 x11 0
    1d610:        2201a223        sw x0 548 x3
    1d614:        00112623        sw x1 12 x2
    1d618:        0a0020ef        jal x1 8352 <_isatty>
    1d61c:        fff00793        addi x15 x0 -1
    1d620:        00f50a63        beq x10 x15 20
    1d624:        00c12083        lw x1 12 x2
    1d628:        00812403        lw x8 8 x2
    1d62c:        01010113        addi x2 x2 16
    1d630:        00008067        jalr x0 x1 0
    1d634:        22418793        addi x15 x3 548
    1d638:        0007a783        lw x15 0 x15
    1d63c:        fe0784e3        beq x15 x0 -24
    1d640:        00f42023        sw x15 0 x8
    1d644:        00c12083        lw x1 12 x2
    1d648:        00812403        lw x8 8 x2
    1d64c:        01010113        addi x2 x2 16
    1d650:        00008067        jalr x0 x1 0

0001d654 <_lseek_r>:
    1d654:        00058793        addi x15 x11 0
    1d658:        ff010113        addi x2 x2 -16
    1d65c:        00812423        sw x8 8 x2
    1d660:        00060593        addi x11 x12 0
    1d664:        00050413        addi x8 x10 0
    1d668:        00068613        addi x12 x13 0
    1d66c:        00078513        addi x10 x15 0
    1d670:        00112623        sw x1 12 x2
    1d674:        2201a223        sw x0 548 x3
    1d678:        080020ef        jal x1 8320 <_lseek>
    1d67c:        fff00793        addi x15 x0 -1
    1d680:        00f50a63        beq x10 x15 20
    1d684:        00c12083        lw x1 12 x2
    1d688:        00812403        lw x8 8 x2
    1d68c:        01010113        addi x2 x2 16
    1d690:        00008067        jalr x0 x1 0
    1d694:        22418793        addi x15 x3 548
    1d698:        0007a783        lw x15 0 x15
    1d69c:        fe0784e3        beq x15 x0 -24
    1d6a0:        00f42023        sw x15 0 x8
    1d6a4:        00c12083        lw x1 12 x2
    1d6a8:        00812403        lw x8 8 x2
    1d6ac:        01010113        addi x2 x2 16
    1d6b0:        00008067        jalr x0 x1 0

0001d6b4 <memcpy>:
    1d6b4:        00a5c7b3        xor x15 x11 x10
    1d6b8:        0037f793        andi x15 x15 3
    1d6bc:        00c508b3        add x17 x10 x12
    1d6c0:        06079263        bne x15 x0 100
    1d6c4:        00300793        addi x15 x0 3
    1d6c8:        04c7fe63        bgeu x15 x12 92
    1d6cc:        00357793        andi x15 x10 3
    1d6d0:        00050713        addi x14 x10 0
    1d6d4:        06079863        bne x15 x0 112
    1d6d8:        ffc8f613        andi x12 x17 -4
    1d6dc:        fe060793        addi x15 x12 -32
    1d6e0:        08f76c63        bltu x14 x15 152
    1d6e4:        02c77c63        bgeu x14 x12 56
    1d6e8:        00058693        addi x13 x11 0
    1d6ec:        00070793        addi x15 x14 0
    1d6f0:        0006a803        lw x16 0 x13
    1d6f4:        00478793        addi x15 x15 4
    1d6f8:        00468693        addi x13 x13 4
    1d6fc:        ff07ae23        sw x16 -4 x15
    1d700:        fec7e8e3        bltu x15 x12 -16
    1d704:        fff60793        addi x15 x12 -1
    1d708:        40e787b3        sub x15 x15 x14
    1d70c:        ffc7f793        andi x15 x15 -4
    1d710:        00478793        addi x15 x15 4
    1d714:        00f70733        add x14 x14 x15
    1d718:        00f585b3        add x11 x11 x15
    1d71c:        01176863        bltu x14 x17 16
    1d720:        00008067        jalr x0 x1 0
    1d724:        00050713        addi x14 x10 0
    1d728:        ff157ce3        bgeu x10 x17 -8
    1d72c:        0005c783        lbu x15 0 x11
    1d730:        00170713        addi x14 x14 1
    1d734:        00158593        addi x11 x11 1
    1d738:        fef70fa3        sb x15 -1 x14
    1d73c:        ff1768e3        bltu x14 x17 -16
    1d740:        00008067        jalr x0 x1 0
    1d744:        0005c683        lbu x13 0 x11
    1d748:        00170713        addi x14 x14 1
    1d74c:        00377793        andi x15 x14 3
    1d750:        fed70fa3        sb x13 -1 x14
    1d754:        00158593        addi x11 x11 1
    1d758:        f80780e3        beq x15 x0 -128
    1d75c:        0005c683        lbu x13 0 x11
    1d760:        00170713        addi x14 x14 1
    1d764:        00377793        andi x15 x14 3
    1d768:        fed70fa3        sb x13 -1 x14
    1d76c:        00158593        addi x11 x11 1
    1d770:        fc079ae3        bne x15 x0 -44
    1d774:        f65ff06f        jal x0 -156
    1d778:        0005a683        lw x13 0 x11
    1d77c:        0045a283        lw x5 4 x11
    1d780:        0085af83        lw x31 8 x11
    1d784:        00c5af03        lw x30 12 x11
    1d788:        0105ae83        lw x29 16 x11
    1d78c:        0145ae03        lw x28 20 x11
    1d790:        0185a303        lw x6 24 x11
    1d794:        01c5a803        lw x16 28 x11
    1d798:        02458593        addi x11 x11 36
    1d79c:        00d72023        sw x13 0 x14
    1d7a0:        ffc5a683        lw x13 -4 x11
    1d7a4:        00572223        sw x5 4 x14
    1d7a8:        01f72423        sw x31 8 x14
    1d7ac:        01e72623        sw x30 12 x14
    1d7b0:        01d72823        sw x29 16 x14
    1d7b4:        01c72a23        sw x28 20 x14
    1d7b8:        00672c23        sw x6 24 x14
    1d7bc:        01072e23        sw x16 28 x14
    1d7c0:        02470713        addi x14 x14 36
    1d7c4:        fed72e23        sw x13 -4 x14
    1d7c8:        faf768e3        bltu x14 x15 -80
    1d7cc:        f19ff06f        jal x0 -232

0001d7d0 <memmove>:
    1d7d0:        02a5f663        bgeu x11 x10 44
    1d7d4:        00c587b3        add x15 x11 x12
    1d7d8:        02f57263        bgeu x10 x15 36
    1d7dc:        00c50733        add x14 x10 x12
    1d7e0:        0e060a63        beq x12 x0 244
    1d7e4:        fff78793        addi x15 x15 -1
    1d7e8:        0007c683        lbu x13 0 x15
    1d7ec:        fff70713        addi x14 x14 -1
    1d7f0:        00d70023        sb x13 0 x14
    1d7f4:        fef598e3        bne x11 x15 -16
    1d7f8:        00008067        jalr x0 x1 0
    1d7fc:        00f00793        addi x15 x0 15
    1d800:        02c7e863        bltu x15 x12 48
    1d804:        00050793        addi x15 x10 0
    1d808:        fff60693        addi x13 x12 -1
    1d80c:        0c060c63        beq x12 x0 216
    1d810:        00168693        addi x13 x13 1
    1d814:        00d786b3        add x13 x15 x13
    1d818:        00158593        addi x11 x11 1
    1d81c:        fff5c703        lbu x14 -1 x11
    1d820:        00178793        addi x15 x15 1
    1d824:        fee78fa3        sb x14 -1 x15
    1d828:        fed798e3        bne x15 x13 -16
    1d82c:        00008067        jalr x0 x1 0
    1d830:        00a5e7b3        or x15 x11 x10
    1d834:        0037f793        andi x15 x15 3
    1d838:        0a079063        bne x15 x0 160
    1d83c:        ff060893        addi x17 x12 -16
    1d840:        ff08f893        andi x17 x17 -16
    1d844:        01088893        addi x17 x17 16
    1d848:        01150833        add x16 x10 x17
    1d84c:        00058713        addi x14 x11 0
    1d850:        00050793        addi x15 x10 0
    1d854:        00072683        lw x13 0 x14
    1d858:        01078793        addi x15 x15 16
    1d85c:        01070713        addi x14 x14 16
    1d860:        fed7a823        sw x13 -16 x15
    1d864:        ff472683        lw x13 -12 x14
    1d868:        fed7aa23        sw x13 -12 x15
    1d86c:        ff872683        lw x13 -8 x14
    1d870:        fed7ac23        sw x13 -8 x15
    1d874:        ffc72683        lw x13 -4 x14
    1d878:        fed7ae23        sw x13 -4 x15
    1d87c:        fcf81ce3        bne x16 x15 -40
    1d880:        00c67713        andi x14 x12 12
    1d884:        011585b3        add x11 x11 x17
    1d888:        00f67813        andi x16 x12 15
    1d88c:        04070e63        beq x14 x0 92
    1d890:        00058713        addi x14 x11 0
    1d894:        00078893        addi x17 x15 0
    1d898:        00300e13        addi x28 x0 3
    1d89c:        00470713        addi x14 x14 4
    1d8a0:        ffc72303        lw x6 -4 x14
    1d8a4:        00488893        addi x17 x17 4
    1d8a8:        40e806b3        sub x13 x16 x14
    1d8ac:        fe68ae23        sw x6 -4 x17
    1d8b0:        00d586b3        add x13 x11 x13
    1d8b4:        fede64e3        bltu x28 x13 -24
    1d8b8:        ffc80713        addi x14 x16 -4
    1d8bc:        ffc77713        andi x14 x14 -4
    1d8c0:        00470713        addi x14 x14 4
    1d8c4:        00367613        andi x12 x12 3
    1d8c8:        00e787b3        add x15 x15 x14
    1d8cc:        00e585b3        add x11 x11 x14
    1d8d0:        f39ff06f        jal x0 -200
    1d8d4:        00008067        jalr x0 x1 0
    1d8d8:        fff60693        addi x13 x12 -1
    1d8dc:        00050793        addi x15 x10 0
    1d8e0:        f31ff06f        jal x0 -208
    1d8e4:        00008067        jalr x0 x1 0
    1d8e8:        00080613        addi x12 x16 0
    1d8ec:        f1dff06f        jal x0 -228

0001d8f0 <_read_r>:
    1d8f0:        00058793        addi x15 x11 0
    1d8f4:        ff010113        addi x2 x2 -16
    1d8f8:        00812423        sw x8 8 x2
    1d8fc:        00060593        addi x11 x12 0
    1d900:        00050413        addi x8 x10 0
    1d904:        00068613        addi x12 x13 0
    1d908:        00078513        addi x10 x15 0
    1d90c:        00112623        sw x1 12 x2
    1d910:        2201a223        sw x0 548 x3
    1d914:        635010ef        jal x1 7732 <_read>
    1d918:        fff00793        addi x15 x0 -1
    1d91c:        00f50a63        beq x10 x15 20
    1d920:        00c12083        lw x1 12 x2
    1d924:        00812403        lw x8 8 x2
    1d928:        01010113        addi x2 x2 16
    1d92c:        00008067        jalr x0 x1 0
    1d930:        22418793        addi x15 x3 548
    1d934:        0007a783        lw x15 0 x15
    1d938:        fe0784e3        beq x15 x0 -24
    1d93c:        00f42023        sw x15 0 x8
    1d940:        00c12083        lw x1 12 x2
    1d944:        00812403        lw x8 8 x2
    1d948:        01010113        addi x2 x2 16
    1d94c:        00008067        jalr x0 x1 0

0001d950 <_realloc_r>:
    1d950:        fd010113        addi x2 x2 -48
    1d954:        01312e23        sw x19 28 x2
    1d958:        02112623        sw x1 44 x2
    1d95c:        02812423        sw x8 40 x2
    1d960:        02912223        sw x9 36 x2
    1d964:        03212023        sw x18 32 x2
    1d968:        01412c23        sw x20 24 x2
    1d96c:        01512a23        sw x21 20 x2
    1d970:        01612823        sw x22 16 x2
    1d974:        01712623        sw x23 12 x2
    1d978:        01812423        sw x24 8 x2
    1d97c:        00060993        addi x19 x12 0
    1d980:        22058a63        beq x11 x0 564
    1d984:        00058b13        addi x22 x11 0
    1d988:        00050a93        addi x21 x10 0
    1d98c:        c75f90ef        jal x1 -25484 <__malloc_lock>
    1d990:        00b98413        addi x8 x19 11
    1d994:        01600793        addi x15 x0 22
    1d998:        0e87fc63        bgeu x15 x8 248
    1d99c:        ff847413        andi x8 x8 -8
    1d9a0:        00040713        addi x14 x8 0
    1d9a4:        0e044c63        blt x8 x0 248
    1d9a8:        0f346a63        bltu x8 x19 244
    1d9ac:        ffcb2783        lw x15 -4 x22
    1d9b0:        ff8b0913        addi x18 x22 -8
    1d9b4:        ffc7f493        andi x9 x15 -4
    1d9b8:        00990a33        add x20 x18 x9
    1d9bc:        1ae4d263        bge x9 x14 420
    1d9c0:        d9418693        addi x13 x3 -620
    1d9c4:        0086a603        lw x12 8 x13
    1d9c8:        004a2683        lw x13 4 x20
    1d9cc:        25460663        beq x12 x20 588
    1d9d0:        ffe6f613        andi x12 x13 -2
    1d9d4:        00ca0633        add x12 x20 x12
    1d9d8:        00462603        lw x12 4 x12
    1d9dc:        00167613        andi x12 x12 1
    1d9e0:        1a061c63        bne x12 x0 440
    1d9e4:        ffc6f693        andi x13 x13 -4
    1d9e8:        00d48633        add x12 x9 x13
    1d9ec:        34e65663        bge x12 x14 844
    1d9f0:        0017f793        andi x15 x15 1
    1d9f4:        02079463        bne x15 x0 40
    1d9f8:        ff8b2c03        lw x24 -8 x22
    1d9fc:        41890c33        sub x24 x18 x24
    1da00:        004c2783        lw x15 4 x24
    1da04:        ffc7f793        andi x15 x15 -4
    1da08:        00d786b3        add x13 x15 x13
    1da0c:        00968bb3        add x23 x13 x9
    1da10:        0cebd663        bge x23 x14 204
    1da14:        00f48bb3        add x23 x9 x15
    1da18:        34ebd863        bge x23 x14 848
    1da1c:        00098593        addi x11 x19 0
    1da20:        000a8513        addi x10 x21 0
    1da24:        ac0f90ef        jal x1 -27968 <_malloc_r>
    1da28:        00050993        addi x19 x10 0
    1da2c:        04050c63        beq x10 x0 88
    1da30:        ffcb2783        lw x15 -4 x22
    1da34:        ff850713        addi x14 x10 -8
    1da38:        ffe7f793        andi x15 x15 -2
    1da3c:        00f907b3        add x15 x18 x15
    1da40:        30e78a63        beq x15 x14 788
    1da44:        ffc48613        addi x12 x9 -4
    1da48:        02400793        addi x15 x0 36
    1da4c:        38c7ea63        bltu x15 x12 916
    1da50:        01300713        addi x14 x0 19
    1da54:        000b2683        lw x13 0 x22
    1da58:        28c76463        bltu x14 x12 648
    1da5c:        00050793        addi x15 x10 0
    1da60:        000b0713        addi x14 x22 0
    1da64:        00d7a023        sw x13 0 x15
    1da68:        00472683        lw x13 4 x14
    1da6c:        00d7a223        sw x13 4 x15
    1da70:        00872703        lw x14 8 x14
    1da74:        00e7a423        sw x14 8 x15
    1da78:        000b0593        addi x11 x22 0
    1da7c:        000a8513        addi x10 x21 0
    1da80:        834f60ef        jal x1 -40908 <_free_r>
    1da84:        000a8513        addi x10 x21 0
    1da88:        b7df90ef        jal x1 -25732 <__malloc_unlock>
    1da8c:        01c0006f        jal x0 28
    1da90:        01000413        addi x8 x0 16
    1da94:        01000713        addi x14 x0 16
    1da98:        f1347ae3        bgeu x8 x19 -236
    1da9c:        00c00793        addi x15 x0 12
    1daa0:        00faa023        sw x15 0 x21
    1daa4:        00000993        addi x19 x0 0
    1daa8:        02c12083        lw x1 44 x2
    1daac:        02812403        lw x8 40 x2
    1dab0:        00098513        addi x10 x19 0
    1dab4:        02412483        lw x9 36 x2
    1dab8:        02012903        lw x18 32 x2
    1dabc:        01c12983        lw x19 28 x2
    1dac0:        01812a03        lw x20 24 x2
    1dac4:        01412a83        lw x21 20 x2
    1dac8:        01012b03        lw x22 16 x2
    1dacc:        00c12b83        lw x23 12 x2
    1dad0:        00812c03        lw x24 8 x2
    1dad4:        03010113        addi x2 x2 48
    1dad8:        00008067        jalr x0 x1 0
    1dadc:        00ca2783        lw x15 12 x20
    1dae0:        008a2703        lw x14 8 x20
    1dae4:        ffc48613        addi x12 x9 -4
    1dae8:        02400693        addi x13 x0 36
    1daec:        00f72623        sw x15 12 x14
    1daf0:        00e7a423        sw x14 8 x15
    1daf4:        008c2703        lw x14 8 x24
    1daf8:        00cc2783        lw x15 12 x24
    1dafc:        008c0993        addi x19 x24 8
    1db00:        017c0a33        add x20 x24 x23
    1db04:        00f72623        sw x15 12 x14
    1db08:        00e7a423        sw x14 8 x15
    1db0c:        2ec6e063        bltu x13 x12 736
    1db10:        01300693        addi x13 x0 19
    1db14:        000b2703        lw x14 0 x22
    1db18:        00098793        addi x15 x19 0
    1db1c:        02c6f263        bgeu x13 x12 36
    1db20:        00ec2423        sw x14 8 x24
    1db24:        004b2703        lw x14 4 x22
    1db28:        01b00793        addi x15 x0 27
    1db2c:        00ec2623        sw x14 12 x24
    1db30:        008b2703        lw x14 8 x22
    1db34:        32c7ee63        bltu x15 x12 828
    1db38:        010c0793        addi x15 x24 16
    1db3c:        008b0b13        addi x22 x22 8
    1db40:        00e7a023        sw x14 0 x15
    1db44:        004b2703        lw x14 4 x22
    1db48:        000b8493        addi x9 x23 0
    1db4c:        000c0913        addi x18 x24 0
    1db50:        00e7a223        sw x14 4 x15
    1db54:        008b2703        lw x14 8 x22
    1db58:        00098b13        addi x22 x19 0
    1db5c:        00e7a423        sw x14 8 x15
    1db60:        00492603        lw x12 4 x18
    1db64:        408487b3        sub x15 x9 x8
    1db68:        00f00713        addi x14 x0 15
    1db6c:        00167613        andi x12 x12 1
    1db70:        06f76c63        bltu x14 x15 120
    1db74:        00c4e633        or x12 x9 x12
    1db78:        00c92223        sw x12 4 x18
    1db7c:        004a2783        lw x15 4 x20
    1db80:        0017e793        ori x15 x15 1
    1db84:        00fa2223        sw x15 4 x20
    1db88:        000a8513        addi x10 x21 0
    1db8c:        a79f90ef        jal x1 -25992 <__malloc_unlock>
    1db90:        000b0993        addi x19 x22 0
    1db94:        f15ff06f        jal x0 -236
    1db98:        0017f793        andi x15 x15 1
    1db9c:        e80790e3        bne x15 x0 -384
    1dba0:        ff8b2c03        lw x24 -8 x22
    1dba4:        41890c33        sub x24 x18 x24
    1dba8:        004c2783        lw x15 4 x24
    1dbac:        ffc7f793        andi x15 x15 -4
    1dbb0:        e65ff06f        jal x0 -412
    1dbb4:        02812403        lw x8 40 x2
    1dbb8:        02c12083        lw x1 44 x2
    1dbbc:        02412483        lw x9 36 x2
    1dbc0:        02012903        lw x18 32 x2
    1dbc4:        01c12983        lw x19 28 x2
    1dbc8:        01812a03        lw x20 24 x2
    1dbcc:        01412a83        lw x21 20 x2
    1dbd0:        01012b03        lw x22 16 x2
    1dbd4:        00c12b83        lw x23 12 x2
    1dbd8:        00812c03        lw x24 8 x2
    1dbdc:        00060593        addi x11 x12 0
    1dbe0:        03010113        addi x2 x2 48
    1dbe4:        900f906f        jal x0 -28416 <_malloc_r>
    1dbe8:        00866633        or x12 x12 x8
    1dbec:        00c92223        sw x12 4 x18
    1dbf0:        008905b3        add x11 x18 x8
    1dbf4:        0017e793        ori x15 x15 1
    1dbf8:        00f5a223        sw x15 4 x11
    1dbfc:        004a2783        lw x15 4 x20
    1dc00:        00858593        addi x11 x11 8
    1dc04:        000a8513        addi x10 x21 0
    1dc08:        0017e793        ori x15 x15 1
    1dc0c:        00fa2223        sw x15 4 x20
    1dc10:        ea5f50ef        jal x1 -41308 <_free_r>
    1dc14:        f75ff06f        jal x0 -140
    1dc18:        ffc6f693        andi x13 x13 -4
    1dc1c:        00d48633        add x12 x9 x13
    1dc20:        01040593        addi x11 x8 16
    1dc24:        0eb65063        bge x12 x11 224
    1dc28:        0017f793        andi x15 x15 1
    1dc2c:        de0798e3        bne x15 x0 -528
    1dc30:        ff8b2c03        lw x24 -8 x22
    1dc34:        41890c33        sub x24 x18 x24
    1dc38:        004c2783        lw x15 4 x24
    1dc3c:        ffc7f793        andi x15 x15 -4
    1dc40:        00d786b3        add x13 x15 x13
    1dc44:        00968a33        add x20 x13 x9
    1dc48:        dcba46e3        blt x20 x11 -564
    1dc4c:        00cc2783        lw x15 12 x24
    1dc50:        008c2703        lw x14 8 x24
    1dc54:        ffc48613        addi x12 x9 -4
    1dc58:        02400693        addi x13 x0 36
    1dc5c:        00f72623        sw x15 12 x14
    1dc60:        00e7a423        sw x14 8 x15
    1dc64:        008c0993        addi x19 x24 8
    1dc68:        22c6e663        bltu x13 x12 556
    1dc6c:        01300593        addi x11 x0 19
    1dc70:        000b2703        lw x14 0 x22
    1dc74:        00098793        addi x15 x19 0
    1dc78:        02c5f263        bgeu x11 x12 36
    1dc7c:        00ec2423        sw x14 8 x24
    1dc80:        004b2703        lw x14 4 x22
    1dc84:        01b00793        addi x15 x0 27
    1dc88:        00ec2623        sw x14 12 x24
    1dc8c:        24c7ea63        bltu x15 x12 596
    1dc90:        008b2703        lw x14 8 x22
    1dc94:        010c0793        addi x15 x24 16
    1dc98:        008b0b13        addi x22 x22 8
    1dc9c:        00e7a023        sw x14 0 x15
    1dca0:        004b2703        lw x14 4 x22
    1dca4:        00e7a223        sw x14 4 x15
    1dca8:        008b2703        lw x14 8 x22
    1dcac:        00e7a423        sw x14 8 x15
    1dcb0:        008c0733        add x14 x24 x8
    1dcb4:        408a07b3        sub x15 x20 x8
    1dcb8:        d8e1ae23        sw x14 -612 x3
    1dcbc:        0017e793        ori x15 x15 1
    1dcc0:        00f72223        sw x15 4 x14
    1dcc4:        004c2783        lw x15 4 x24
    1dcc8:        000a8513        addi x10 x21 0
    1dccc:        0017f793        andi x15 x15 1
    1dcd0:        0087e433        or x8 x15 x8
    1dcd4:        008c2223        sw x8 4 x24
    1dcd8:        92df90ef        jal x1 -26324 <__malloc_unlock>
    1dcdc:        dcdff06f        jal x0 -564
    1dce0:        00d52023        sw x13 0 x10
    1dce4:        004b2683        lw x13 4 x22
    1dce8:        01b00713        addi x14 x0 27
    1dcec:        00d52223        sw x13 4 x10
    1dcf0:        10c76c63        bltu x14 x12 280
    1dcf4:        008b0713        addi x14 x22 8
    1dcf8:        00850793        addi x15 x10 8
    1dcfc:        008b2683        lw x13 8 x22
    1dd00:        d65ff06f        jal x0 -668
    1dd04:        00890933        add x18 x18 x8
    1dd08:        408607b3        sub x15 x12 x8
    1dd0c:        d921ae23        sw x18 -612 x3
    1dd10:        0017e793        ori x15 x15 1
    1dd14:        00f92223        sw x15 4 x18
    1dd18:        ffcb2783        lw x15 -4 x22
    1dd1c:        000a8513        addi x10 x21 0
    1dd20:        000b0993        addi x19 x22 0
    1dd24:        0017f793        andi x15 x15 1
    1dd28:        0087e433        or x8 x15 x8
    1dd2c:        fe8b2e23        sw x8 -4 x22
    1dd30:        8d5f90ef        jal x1 -26412 <__malloc_unlock>
    1dd34:        d75ff06f        jal x0 -652
    1dd38:        00ca2783        lw x15 12 x20
    1dd3c:        008a2703        lw x14 8 x20
    1dd40:        00060493        addi x9 x12 0
    1dd44:        00c90a33        add x20 x18 x12
    1dd48:        00f72623        sw x15 12 x14
    1dd4c:        00e7a423        sw x14 8 x15
    1dd50:        e11ff06f        jal x0 -496
    1dd54:        ffc52783        lw x15 -4 x10
    1dd58:        ffc7f793        andi x15 x15 -4
    1dd5c:        00f484b3        add x9 x9 x15
    1dd60:        00990a33        add x20 x18 x9
    1dd64:        dfdff06f        jal x0 -516
    1dd68:        00cc2703        lw x14 12 x24
    1dd6c:        008c2683        lw x13 8 x24
    1dd70:        ffc48613        addi x12 x9 -4
    1dd74:        02400593        addi x11 x0 36
    1dd78:        00e6a623        sw x14 12 x13
    1dd7c:        00d72423        sw x13 8 x14
    1dd80:        008c0993        addi x19 x24 8
    1dd84:        017c0a33        add x20 x24 x23
    1dd88:        06c5e263        bltu x11 x12 100
    1dd8c:        01300513        addi x10 x0 19
    1dd90:        000b2683        lw x13 0 x22
    1dd94:        00098713        addi x14 x19 0
    1dd98:        02c57263        bgeu x10 x12 36
    1dd9c:        00dc2423        sw x13 8 x24
    1dda0:        004b2703        lw x14 4 x22
    1dda4:        01b00793        addi x15 x0 27
    1dda8:        00ec2623        sw x14 12 x24
    1ddac:        0ac7e063        bltu x15 x12 160
    1ddb0:        008b2683        lw x13 8 x22
    1ddb4:        010c0713        addi x14 x24 16
    1ddb8:        008b0b13        addi x22 x22 8
    1ddbc:        00d72023        sw x13 0 x14
    1ddc0:        004b2683        lw x13 4 x22
    1ddc4:        000b8493        addi x9 x23 0
    1ddc8:        000c0913        addi x18 x24 0
    1ddcc:        00d72223        sw x13 4 x14
    1ddd0:        008b2783        lw x15 8 x22
    1ddd4:        00098b13        addi x22 x19 0
    1ddd8:        00f72423        sw x15 8 x14
    1dddc:        d85ff06f        jal x0 -636
    1dde0:        000b0593        addi x11 x22 0
    1dde4:        9edff0ef        jal x1 -1556 <memmove>
    1dde8:        c91ff06f        jal x0 -880
    1ddec:        000b0593        addi x11 x22 0
    1ddf0:        00098513        addi x10 x19 0
    1ddf4:        9ddff0ef        jal x1 -1572 <memmove>
    1ddf8:        00098b13        addi x22 x19 0
    1ddfc:        000b8493        addi x9 x23 0
    1de00:        000c0913        addi x18 x24 0
    1de04:        d5dff06f        jal x0 -676
    1de08:        008b2703        lw x14 8 x22
    1de0c:        00e52423        sw x14 8 x10
    1de10:        00cb2703        lw x14 12 x22
    1de14:        00e52623        sw x14 12 x10
    1de18:        00f60a63        beq x12 x15 20
    1de1c:        010b0713        addi x14 x22 16
    1de20:        01050793        addi x15 x10 16
    1de24:        010b2683        lw x13 16 x22
    1de28:        c3dff06f        jal x0 -964
    1de2c:        010b2683        lw x13 16 x22
    1de30:        018b0713        addi x14 x22 24
    1de34:        01850793        addi x15 x10 24
    1de38:        00d52823        sw x13 16 x10
    1de3c:        014b2683        lw x13 20 x22
    1de40:        00d52a23        sw x13 20 x10
    1de44:        018b2683        lw x13 24 x22
    1de48:        c1dff06f        jal x0 -996
    1de4c:        008b2783        lw x15 8 x22
    1de50:        00fc2823        sw x15 16 x24
    1de54:        00cb2783        lw x15 12 x22
    1de58:        00fc2a23        sw x15 20 x24
    1de5c:        04b60463        beq x12 x11 72
    1de60:        010b2683        lw x13 16 x22
    1de64:        018c0713        addi x14 x24 24
    1de68:        010b0b13        addi x22 x22 16
    1de6c:        f51ff06f        jal x0 -176
    1de70:        00ec2823        sw x14 16 x24
    1de74:        00cb2703        lw x14 12 x22
    1de78:        02400793        addi x15 x0 36
    1de7c:        00ec2a23        sw x14 20 x24
    1de80:        010b2703        lw x14 16 x22
    1de84:        04f60063        beq x12 x15 64
    1de88:        018c0793        addi x15 x24 24
    1de8c:        010b0b13        addi x22 x22 16
    1de90:        cb1ff06f        jal x0 -848
    1de94:        000b0593        addi x11 x22 0
    1de98:        00098513        addi x10 x19 0
    1de9c:        935ff0ef        jal x1 -1740 <memmove>
    1dea0:        e11ff06f        jal x0 -496
    1dea4:        010b2783        lw x15 16 x22
    1dea8:        020c0713        addi x14 x24 32
    1deac:        018b0b13        addi x22 x22 24
    1deb0:        00fc2c23        sw x15 24 x24
    1deb4:        ffcb2783        lw x15 -4 x22
    1deb8:        00fc2e23        sw x15 28 x24
    1debc:        000b2683        lw x13 0 x22
    1dec0:        efdff06f        jal x0 -260
    1dec4:        00ec2c23        sw x14 24 x24
    1dec8:        014b2703        lw x14 20 x22
    1decc:        020c0793        addi x15 x24 32
    1ded0:        018b0b13        addi x22 x22 24
    1ded4:        00ec2e23        sw x14 28 x24
    1ded8:        000b2703        lw x14 0 x22
    1dedc:        c65ff06f        jal x0 -924
    1dee0:        008b2783        lw x15 8 x22
    1dee4:        00fc2823        sw x15 16 x24
    1dee8:        00cb2783        lw x15 12 x22
    1deec:        00fc2a23        sw x15 20 x24
    1def0:        010b2703        lw x14 16 x22
    1def4:        00d60863        beq x12 x13 16
    1def8:        018c0793        addi x15 x24 24
    1defc:        010b0b13        addi x22 x22 16
    1df00:        d9dff06f        jal x0 -612
    1df04:        00ec2c23        sw x14 24 x24
    1df08:        014b2703        lw x14 20 x22
    1df0c:        020c0793        addi x15 x24 32
    1df10:        018b0b13        addi x22 x22 24
    1df14:        00ec2e23        sw x14 28 x24
    1df18:        000b2703        lw x14 0 x22
    1df1c:        d81ff06f        jal x0 -640

0001df20 <cleanup_glue>:
    1df20:        ff010113        addi x2 x2 -16
    1df24:        00812423        sw x8 8 x2
    1df28:        00058413        addi x8 x11 0
    1df2c:        0005a583        lw x11 0 x11
    1df30:        00912223        sw x9 4 x2
    1df34:        00112623        sw x1 12 x2
    1df38:        00050493        addi x9 x10 0
    1df3c:        00058463        beq x11 x0 8
    1df40:        fe1ff0ef        jal x1 -32 <cleanup_glue>
    1df44:        00040593        addi x11 x8 0
    1df48:        00812403        lw x8 8 x2
    1df4c:        00c12083        lw x1 12 x2
    1df50:        00048513        addi x10 x9 0
    1df54:        00412483        lw x9 4 x2
    1df58:        01010113        addi x2 x2 16
    1df5c:        b59f506f        jal x0 -42152 <_free_r>

0001df60 <_reclaim_reent>:
    1df60:        1c018793        addi x15 x3 448
    1df64:        0007a783        lw x15 0 x15
    1df68:        10a78263        beq x15 x10 260
    1df6c:        04c52703        lw x14 76 x10
    1df70:        fe010113        addi x2 x2 -32
    1df74:        00912a23        sw x9 20 x2
    1df78:        00112e23        sw x1 28 x2
    1df7c:        00812c23        sw x8 24 x2
    1df80:        01212823        sw x18 16 x2
    1df84:        01312623        sw x19 12 x2
    1df88:        00050493        addi x9 x10 0
    1df8c:        04070263        beq x14 x0 68
    1df90:        00000913        addi x18 x0 0
    1df94:        08000993        addi x19 x0 128
    1df98:        012707b3        add x15 x14 x18
    1df9c:        0007a583        lw x11 0 x15
    1dfa0:        00058e63        beq x11 x0 28
    1dfa4:        0005a403        lw x8 0 x11
    1dfa8:        00048513        addi x10 x9 0
    1dfac:        b09f50ef        jal x1 -42232 <_free_r>
    1dfb0:        00040593        addi x11 x8 0
    1dfb4:        fe0418e3        bne x8 x0 -16
    1dfb8:        04c4a703        lw x14 76 x9
    1dfbc:        00490913        addi x18 x18 4
    1dfc0:        fd391ce3        bne x18 x19 -40
    1dfc4:        00070593        addi x11 x14 0
    1dfc8:        00048513        addi x10 x9 0
    1dfcc:        ae9f50ef        jal x1 -42264 <_free_r>
    1dfd0:        0404a583        lw x11 64 x9
    1dfd4:        00058663        beq x11 x0 12
    1dfd8:        00048513        addi x10 x9 0
    1dfdc:        ad9f50ef        jal x1 -42280 <_free_r>
    1dfe0:        1484a583        lw x11 328 x9
    1dfe4:        02058063        beq x11 x0 32
    1dfe8:        14c48913        addi x18 x9 332
    1dfec:        01258c63        beq x11 x18 24
    1dff0:        0005a403        lw x8 0 x11
    1dff4:        00048513        addi x10 x9 0
    1dff8:        abdf50ef        jal x1 -42308 <_free_r>
    1dffc:        00040593        addi x11 x8 0
    1e000:        fe8918e3        bne x18 x8 -16
    1e004:        0544a583        lw x11 84 x9
    1e008:        00058663        beq x11 x0 12
    1e00c:        00048513        addi x10 x9 0
    1e010:        aa5f50ef        jal x1 -42332 <_free_r>
    1e014:        0384a783        lw x15 56 x9
    1e018:        02078c63        beq x15 x0 56
    1e01c:        03c4a783        lw x15 60 x9
    1e020:        00048513        addi x10 x9 0
    1e024:        000780e7        jalr x1 x15 0
    1e028:        2e04a583        lw x11 736 x9
    1e02c:        02058263        beq x11 x0 36
    1e030:        01812403        lw x8 24 x2
    1e034:        01c12083        lw x1 28 x2
    1e038:        01012903        lw x18 16 x2
    1e03c:        00c12983        lw x19 12 x2
    1e040:        00048513        addi x10 x9 0
    1e044:        01412483        lw x9 20 x2
    1e048:        02010113        addi x2 x2 32
    1e04c:        ed5ff06f        jal x0 -300 <cleanup_glue>
    1e050:        01c12083        lw x1 28 x2
    1e054:        01812403        lw x8 24 x2
    1e058:        01412483        lw x9 20 x2
    1e05c:        01012903        lw x18 16 x2
    1e060:        00c12983        lw x19 12 x2
    1e064:        02010113        addi x2 x2 32
    1e068:        00008067        jalr x0 x1 0
    1e06c:        00008067        jalr x0 x1 0

0001e070 <__ssprint_r>:
    1e070:        00862783        lw x15 8 x12
    1e074:        fd010113        addi x2 x2 -48
    1e078:        01512a23        sw x21 20 x2
    1e07c:        02112623        sw x1 44 x2
    1e080:        02812423        sw x8 40 x2
    1e084:        02912223        sw x9 36 x2
    1e088:        03212023        sw x18 32 x2
    1e08c:        01312e23        sw x19 28 x2
    1e090:        01412c23        sw x20 24 x2
    1e094:        01612823        sw x22 16 x2
    1e098:        01712623        sw x23 12 x2
    1e09c:        01812423        sw x24 8 x2
    1e0a0:        00060a93        addi x21 x12 0
    1e0a4:        14078863        beq x15 x0 336
    1e0a8:        00050b13        addi x22 x10 0
    1e0ac:        00058413        addi x8 x11 0
    1e0b0:        00062983        lw x19 0 x12
    1e0b4:        0005a503        lw x10 0 x11
    1e0b8:        0085a483        lw x9 8 x11
    1e0bc:        0d40006f        jal x0 212
    1e0c0:        00c45783        lhu x15 12 x8
    1e0c4:        4807f713        andi x14 x15 1152
    1e0c8:        08070a63        beq x14 x0 148
    1e0cc:        01442683        lw x13 20 x8
    1e0d0:        01042583        lw x11 16 x8
    1e0d4:        00190713        addi x14 x18 1
    1e0d8:        00169493        slli x9 x13 1
    1e0dc:        00d486b3        add x13 x9 x13
    1e0e0:        01f6d493        srli x9 x13 31
    1e0e4:        40b50a33        sub x20 x10 x11
    1e0e8:        00d484b3        add x9 x9 x13
    1e0ec:        4014d493        srai x9 x9 1
    1e0f0:        01470733        add x14 x14 x20
    1e0f4:        00048613        addi x12 x9 0
    1e0f8:        00e4f663        bgeu x9 x14 12
    1e0fc:        00070493        addi x9 x14 0
    1e100:        00070613        addi x12 x14 0
    1e104:        4007f793        andi x15 x15 1024
    1e108:        0a078663        beq x15 x0 172
    1e10c:        00060593        addi x11 x12 0
    1e110:        000b0513        addi x10 x22 0
    1e114:        bd1f80ef        jal x1 -29744 <_malloc_r>
    1e118:        00050c13        addi x24 x10 0
    1e11c:        0a050a63        beq x10 x0 180
    1e120:        01042583        lw x11 16 x8
    1e124:        000a0613        addi x12 x20 0
    1e128:        d8cff0ef        jal x1 -2676 <memcpy>
    1e12c:        00c45783        lhu x15 12 x8
    1e130:        b7f7f793        andi x15 x15 -1153
    1e134:        0807e793        ori x15 x15 128
    1e138:        00f41623        sh x15 12 x8
    1e13c:        014c0533        add x10 x24 x20
    1e140:        41448a33        sub x20 x9 x20
    1e144:        00942a23        sw x9 20 x8
    1e148:        01442423        sw x20 8 x8
    1e14c:        01842823        sw x24 16 x8
    1e150:        00a42023        sw x10 0 x8
    1e154:        00090493        addi x9 x18 0
    1e158:        00090a13        addi x20 x18 0
    1e15c:        000a0613        addi x12 x20 0
    1e160:        000b8593        addi x11 x23 0
    1e164:        e6cff0ef        jal x1 -2452 <memmove>
    1e168:        00842703        lw x14 8 x8
    1e16c:        00042503        lw x10 0 x8
    1e170:        008aa783        lw x15 8 x21
    1e174:        409704b3        sub x9 x14 x9
    1e178:        01450533        add x10 x10 x20
    1e17c:        00942423        sw x9 8 x8
    1e180:        00a42023        sw x10 0 x8
    1e184:        41278933        sub x18 x15 x18
    1e188:        012aa423        sw x18 8 x21
    1e18c:        06090463        beq x18 x0 104
    1e190:        0049a903        lw x18 4 x19
    1e194:        0009ab83        lw x23 0 x19
    1e198:        00048a13        addi x20 x9 0
    1e19c:        00898993        addi x19 x19 8
    1e1a0:        fe0908e3        beq x18 x0 -16
    1e1a4:        f0997ee3        bgeu x18 x9 -228
    1e1a8:        00090493        addi x9 x18 0
    1e1ac:        00090a13        addi x20 x18 0
    1e1b0:        fadff06f        jal x0 -84
    1e1b4:        000b0513        addi x10 x22 0
    1e1b8:        f98ff0ef        jal x1 -2152 <_realloc_r>
    1e1bc:        00050c13        addi x24 x10 0
    1e1c0:        f6051ee3        bne x10 x0 -132
    1e1c4:        01042583        lw x11 16 x8
    1e1c8:        000b0513        addi x10 x22 0
    1e1cc:        8e9f50ef        jal x1 -42776 <_free_r>
    1e1d0:        00c00793        addi x15 x0 12
    1e1d4:        00fb2023        sw x15 0 x22
    1e1d8:        00c45783        lhu x15 12 x8
    1e1dc:        fff00513        addi x10 x0 -1
    1e1e0:        0407e793        ori x15 x15 64
    1e1e4:        00f41623        sh x15 12 x8
    1e1e8:        000aa423        sw x0 8 x21
    1e1ec:        000aa223        sw x0 4 x21
    1e1f0:        00c0006f        jal x0 12
    1e1f4:        000aa223        sw x0 4 x21
    1e1f8:        00000513        addi x10 x0 0
    1e1fc:        02c12083        lw x1 44 x2
    1e200:        02812403        lw x8 40 x2
    1e204:        02412483        lw x9 36 x2
    1e208:        02012903        lw x18 32 x2
    1e20c:        01c12983        lw x19 28 x2
    1e210:        01812a03        lw x20 24 x2
    1e214:        01412a83        lw x21 20 x2
    1e218:        01012b03        lw x22 16 x2
    1e21c:        00c12b83        lw x23 12 x2
    1e220:        00812c03        lw x24 8 x2
    1e224:        03010113        addi x2 x2 48
    1e228:        00008067        jalr x0 x1 0

0001e22c <_svfiprintf_r>:
    1e22c:        00c5d783        lhu x15 12 x11
    1e230:        ed010113        addi x2 x2 -304
    1e234:        11312e23        sw x19 284 x2
    1e238:        11412c23        sw x20 280 x2
    1e23c:        11812423        sw x24 264 x2
    1e240:        12112623        sw x1 300 x2
    1e244:        12812423        sw x8 296 x2
    1e248:        12912223        sw x9 292 x2
    1e24c:        13212023        sw x18 288 x2
    1e250:        11512a23        sw x21 276 x2
    1e254:        11612823        sw x22 272 x2
    1e258:        11712623        sw x23 268 x2
    1e25c:        11912223        sw x25 260 x2
    1e260:        11a12023        sw x26 256 x2
    1e264:        0fb12e23        sw x27 252 x2
    1e268:        0807f793        andi x15 x15 128
    1e26c:        00d12623        sw x13 12 x2
    1e270:        00058993        addi x19 x11 0
    1e274:        00050a13        addi x20 x10 0
    1e278:        00060c13        addi x24 x12 0
    1e27c:        00078663        beq x15 x0 12
    1e280:        0105a783        lw x15 16 x11
    1e284:        560786e3        beq x15 x0 3436
    1e288:        ffff87b7        lui x15 0xffff8
    1e28c:        04c10493        addi x9 x2 76
    1e290:        8307c793        xori x15 x15 -2000
    1e294:        04912023        sw x9 64 x2
    1e298:        04012423        sw x0 72 x2
    1e29c:        04012223        sw x0 68 x2
    1e2a0:        00012823        sw x0 16 x2
    1e2a4:        00012c23        sw x0 24 x2
    1e2a8:        02012023        sw x0 32 x2
    1e2ac:        00012e23        sw x0 28 x2
    1e2b0:        00012423        sw x0 8 x2
    1e2b4:        00006a97        auipc x21 0x6
    1e2b8:        5e0a8a93        addi x21 x21 1504
    1e2bc:        02f12223        sw x15 36 x2
    1e2c0:        00048413        addi x8 x9 0
    1e2c4:        000c0d13        addi x26 x24 0
    1e2c8:        000d4783        lbu x15 0 x26
    1e2cc:        12078063        beq x15 x0 288
    1e2d0:        02500693        addi x13 x0 37
    1e2d4:        4ad786e3        beq x15 x13 3244
    1e2d8:        000d0913        addi x18 x26 0
    1e2dc:        00c0006f        jal x0 12
    1e2e0:        0ed78263        beq x15 x13 228
    1e2e4:        000b0913        addi x18 x22 0
    1e2e8:        00194783        lbu x15 1 x18
    1e2ec:        00190b13        addi x22 x18 1
    1e2f0:        fe0798e3        bne x15 x0 -16
    1e2f4:        41ab0c33        sub x24 x22 x26
    1e2f8:        0e0c0a63        beq x24 x0 244
    1e2fc:        04812703        lw x14 72 x2
    1e300:        04412783        lw x15 68 x2
    1e304:        01a42023        sw x26 0 x8
    1e308:        01870733        add x14 x14 x24
    1e30c:        00178793        addi x15 x15 1
    1e310:        01842223        sw x24 4 x8
    1e314:        04e12423        sw x14 72 x2
    1e318:        04f12223        sw x15 68 x2
    1e31c:        00700713        addi x14 x0 7
    1e320:        00840413        addi x8 x8 8
    1e324:        0af74663        blt x14 x15 172
    1e328:        00812703        lw x14 8 x2
    1e32c:        00194783        lbu x15 1 x18
    1e330:        01870733        add x14 x14 x24
    1e334:        00e12423        sw x14 8 x2
    1e338:        0a078a63        beq x15 x0 180
    1e33c:        001b0d13        addi x26 x22 1
    1e340:        001b4683        lbu x13 1 x22
    1e344:        02010da3        sb x0 59 x2
    1e348:        fff00c13        addi x24 x0 -1
    1e34c:        00000913        addi x18 x0 0
    1e350:        00000c93        addi x25 x0 0
    1e354:        02a00b13        addi x22 x0 42
    1e358:        001d0d13        addi x26 x26 1
    1e35c:        05a00713        addi x14 x0 90
    1e360:        fe068793        addi x15 x13 -32
    1e364:        1af76e63        bltu x14 x15 444
    1e368:        00279793        slli x15 x15 2
    1e36c:        015787b3        add x15 x15 x21
    1e370:        0007a783        lw x15 0 x15
    1e374:        015787b3        add x15 x15 x21
    1e378:        00078067        jalr x0 x15 0
    1e37c:        000a0513        addi x10 x20 0
    1e380:        eccf80ef        jal x1 -31028 <_localeconv_r>
    1e384:        00452783        lw x15 4 x10
    1e388:        00078513        addi x10 x15 0
    1e38c:        00f12e23        sw x15 28 x2
    1e390:        ff4fa0ef        jal x1 -22540 <strlen>
    1e394:        02a12023        sw x10 32 x2
    1e398:        00050b93        addi x23 x10 0
    1e39c:        000a0513        addi x10 x20 0
    1e3a0:        eacf80ef        jal x1 -31060 <_localeconv_r>
    1e3a4:        00852783        lw x15 8 x10
    1e3a8:        00f12c23        sw x15 24 x2
    1e3ac:        3c0b9ee3        bne x23 x0 3036
    1e3b0:        000d4683        lbu x13 0 x26
    1e3b4:        fa5ff06f        jal x0 -92
    1e3b8:        020cec93        ori x25 x25 32
    1e3bc:        000d4683        lbu x13 0 x26
    1e3c0:        f99ff06f        jal x0 -104
    1e3c4:        41ab0c33        sub x24 x22 x26
    1e3c8:        f60c0ae3        beq x24 x0 -140
    1e3cc:        f31ff06f        jal x0 -208
    1e3d0:        04010613        addi x12 x2 64
    1e3d4:        00098593        addi x11 x19 0
    1e3d8:        000a0513        addi x10 x20 0
    1e3dc:        c95ff0ef        jal x1 -876 <__ssprint_r>
    1e3e0:        02051263        bne x10 x0 36
    1e3e4:        00048413        addi x8 x9 0
    1e3e8:        f41ff06f        jal x0 -192
    1e3ec:        04812783        lw x15 72 x2
    1e3f0:        00078a63        beq x15 x0 20
    1e3f4:        04010613        addi x12 x2 64
    1e3f8:        00098593        addi x11 x19 0
    1e3fc:        000a0513        addi x10 x20 0
    1e400:        c71ff0ef        jal x1 -912 <__ssprint_r>
    1e404:        00c9d783        lhu x15 12 x19
    1e408:        0407f793        andi x15 x15 64
    1e40c:        6a0792e3        bne x15 x0 3748
    1e410:        12c12083        lw x1 300 x2
    1e414:        12812403        lw x8 296 x2
    1e418:        00812503        lw x10 8 x2
    1e41c:        12412483        lw x9 292 x2
    1e420:        12012903        lw x18 288 x2
    1e424:        11c12983        lw x19 284 x2
    1e428:        11812a03        lw x20 280 x2
    1e42c:        11412a83        lw x21 276 x2
    1e430:        11012b03        lw x22 272 x2
    1e434:        10c12b83        lw x23 268 x2
    1e438:        10812c03        lw x24 264 x2
    1e43c:        10412c83        lw x25 260 x2
    1e440:        10012d03        lw x26 256 x2
    1e444:        0fc12d83        lw x27 252 x2
    1e448:        13010113        addi x2 x2 304
    1e44c:        00008067        jalr x0 x1 0
    1e450:        00006797        auipc x15 0x6
    1e454:        c5478793        addi x15 x15 -940
    1e458:        00f12823        sw x15 16 x2
    1e45c:        020cf793        andi x15 x25 32
    1e460:        4c078663        beq x15 x0 1228
    1e464:        00c12783        lw x15 12 x2
    1e468:        00778613        addi x12 x15 7
    1e46c:        ff867613        andi x12 x12 -8
    1e470:        00062d83        lw x27 0 x12
    1e474:        00462303        lw x6 4 x12
    1e478:        00860793        addi x15 x12 8
    1e47c:        00f12623        sw x15 12 x2
    1e480:        001cf613        andi x12 x25 1
    1e484:        00060663        beq x12 x0 12
    1e488:        006de633        or x12 x27 x6
    1e48c:        30061ce3        bne x12 x0 2840
    1e490:        bffcfb13        andi x22 x25 -1025
    1e494:        00200693        addi x13 x0 2
    1e498:        02010da3        sb x0 59 x2
    1e49c:        fff00613        addi x12 x0 -1
    1e4a0:        5ecc0c63        beq x24 x12 1528
    1e4a4:        006de633        or x12 x27 x6
    1e4a8:        f7fb7c93        andi x25 x22 -129
    1e4ac:        100616e3        bne x12 x0 2316
    1e4b0:        6c0c1a63        bne x24 x0 1748
    1e4b4:        26069ee3        bne x13 x0 2684
    1e4b8:        001b7d93        andi x27 x22 1
    1e4bc:        0f010b93        addi x23 x2 240
    1e4c0:        000d8863        beq x27 x0 16
    1e4c4:        03000793        addi x15 x0 48
    1e4c8:        0ef107a3        sb x15 239 x2
    1e4cc:        0ef10b93        addi x23 x2 239
    1e4d0:        000c0b13        addi x22 x24 0
    1e4d4:        01bc5463        bge x24 x27 8
    1e4d8:        000d8b13        addi x22 x27 0
    1e4dc:        03b14783        lbu x15 59 x2
    1e4e0:        00f037b3        sltu x15 x0 x15
    1e4e4:        00fb0b33        add x22 x22 x15
    1e4e8:        0540006f        jal x0 84
    1e4ec:        00000913        addi x18 x0 0
    1e4f0:        fd068613        addi x12 x13 -48
    1e4f4:        001d0d13        addi x26 x26 1
    1e4f8:        00291793        slli x15 x18 2
    1e4fc:        fffd4683        lbu x13 -1 x26
    1e500:        01278933        add x18 x15 x18
    1e504:        00191913        slli x18 x18 1
    1e508:        01260933        add x18 x12 x18
    1e50c:        00900793        addi x15 x0 9
    1e510:        fd068613        addi x12 x13 -48
    1e514:        fec7f0e3        bgeu x15 x12 -32
    1e518:        fe068793        addi x15 x13 -32
    1e51c:        e4f776e3        bgeu x14 x15 -436
    1e520:        ec0686e3        beq x13 x0 -308
    1e524:        08d10623        sb x13 140 x2
    1e528:        02010da3        sb x0 59 x2
    1e52c:        00100b13        addi x22 x0 1
    1e530:        00100d93        addi x27 x0 1
    1e534:        08c10b93        addi x23 x2 140
    1e538:        00000c13        addi x24 x0 0
    1e53c:        002cff13        andi x30 x25 2
    1e540:        000f0463        beq x30 x0 8
    1e544:        002b0b13        addi x22 x22 2
    1e548:        084cfe93        andi x29 x25 132
    1e54c:        04812783        lw x15 72 x2
    1e550:        04412603        lw x12 68 x2
    1e554:        000e9663        bne x29 x0 12
    1e558:        416906b3        sub x13 x18 x22
    1e55c:        06d042e3        blt x0 x13 2148
    1e560:        03b14503        lbu x10 59 x2
    1e564:        00160593        addi x11 x12 1
    1e568:        00840693        addi x13 x8 8
    1e56c:        04050063        beq x10 x0 64
    1e570:        03b10513        addi x10 x2 59
    1e574:        00178793        addi x15 x15 1
    1e578:        00a42023        sw x10 0 x8
    1e57c:        00100513        addi x10 x0 1
    1e580:        00a42223        sw x10 4 x8
    1e584:        04f12423        sw x15 72 x2
    1e588:        04b12223        sw x11 68 x2
    1e58c:        00700513        addi x10 x0 7
    1e590:        12b546e3        blt x10 x11 2348
    1e594:        00260313        addi x6 x12 2
    1e598:        01040513        addi x10 x8 16
    1e59c:        00058613        addi x12 x11 0
    1e5a0:        00068413        addi x8 x13 0
    1e5a4:        00030593        addi x11 x6 0
    1e5a8:        00050693        addi x13 x10 0
    1e5ac:        020f0c63        beq x30 x0 56
    1e5b0:        03c10613        addi x12 x2 60
    1e5b4:        00278793        addi x15 x15 2
    1e5b8:        00c42023        sw x12 0 x8
    1e5bc:        00200613        addi x12 x0 2
    1e5c0:        00c42223        sw x12 4 x8
    1e5c4:        04f12423        sw x15 72 x2
    1e5c8:        04b12223        sw x11 68 x2
    1e5cc:        00700613        addi x12 x0 7
    1e5d0:        12b644e3        blt x12 x11 2344
    1e5d4:        00058613        addi x12 x11 0
    1e5d8:        00068413        addi x8 x13 0
    1e5dc:        00158593        addi x11 x11 1
    1e5e0:        00868693        addi x13 x13 8
    1e5e4:        08000513        addi x10 x0 128
    1e5e8:        5eae8a63        beq x29 x10 1524
    1e5ec:        41bc0c33        sub x24 x24 x27
    1e5f0:        6d804063        blt x0 x24 1728
    1e5f4:        00fd87b3        add x15 x27 x15
    1e5f8:        01742023        sw x23 0 x8
    1e5fc:        01b42223        sw x27 4 x8
    1e600:        04f12423        sw x15 72 x2
    1e604:        04b12223        sw x11 68 x2
    1e608:        00700613        addi x12 x0 7
    1e60c:        76b64a63        blt x12 x11 1908
    1e610:        004cf813        andi x16 x25 4
    1e614:        00080663        beq x16 x0 12
    1e618:        41690433        sub x8 x18 x22
    1e61c:        1e804263        blt x0 x8 484
    1e620:        01695463        bge x18 x22 8
    1e624:        000b0913        addi x18 x22 0
    1e628:        00812703        lw x14 8 x2
    1e62c:        01270733        add x14 x14 x18
    1e630:        00e12423        sw x14 8 x2
    1e634:        76079663        bne x15 x0 1900
    1e638:        04012223        sw x0 68 x2
    1e63c:        00048413        addi x8 x9 0
    1e640:        c89ff06f        jal x0 -888
    1e644:        00c12783        lw x15 12 x2
    1e648:        02010da3        sb x0 59 x2
    1e64c:        0007ab83        lw x23 0 x15
    1e650:        00478713        addi x14 x15 4
    1e654:        2e0b82e3        beq x23 x0 2788
    1e658:        fff00793        addi x15 x0 -1
    1e65c:        00e12623        sw x14 12 x2
    1e660:        16fc0ee3        beq x24 x15 2428
    1e664:        000c0613        addi x12 x24 0
    1e668:        00000593        addi x11 x0 0
    1e66c:        000b8513        addi x10 x23 0
    1e670:        eb5f80ef        jal x1 -29004 <memchr>
    1e674:        00c12703        lw x14 12 x2
    1e678:        40050ae3        beq x10 x0 3092
    1e67c:        41750db3        sub x27 x10 x23
    1e680:        00000c13        addi x24 x0 0
    1e684:        e4dff06f        jal x0 -436
    1e688:        020cf793        andi x15 x25 32
    1e68c:        010ce813        ori x16 x25 16
    1e690:        46079e63        bne x15 x0 1148
    1e694:        00c12783        lw x15 12 x2
    1e698:        00478693        addi x13 x15 4
    1e69c:        00c12783        lw x15 12 x2
    1e6a0:        00000313        addi x6 x0 0
    1e6a4:        00d12623        sw x13 12 x2
    1e6a8:        0007ad83        lw x27 0 x15
    1e6ac:        47c0006f        jal x0 1148
    1e6b0:        020cf793        andi x15 x25 32
    1e6b4:        010ceb13        ori x22 x25 16
    1e6b8:        48079063        bne x15 x0 1152
    1e6bc:        00c12783        lw x15 12 x2
    1e6c0:        00478693        addi x13 x15 4
    1e6c4:        00c12783        lw x15 12 x2
    1e6c8:        00000313        addi x6 x0 0
    1e6cc:        00d12623        sw x13 12 x2
    1e6d0:        0007ad83        lw x27 0 x15
    1e6d4:        00100693        addi x13 x0 1
    1e6d8:        dc1ff06f        jal x0 -576
    1e6dc:        080cec93        ori x25 x25 128
    1e6e0:        000d4683        lbu x13 0 x26
    1e6e4:        c75ff06f        jal x0 -908
    1e6e8:        000d4683        lbu x13 0 x26
    1e6ec:        001d0793        addi x15 x26 1
    1e6f0:        3d6686e3        beq x13 x22 3020
    1e6f4:        00078d13        addi x26 x15 0
    1e6f8:        fd068613        addi x12 x13 -48
    1e6fc:        00900793        addi x15 x0 9
    1e700:        00000c13        addi x24 x0 0
    1e704:        c4c7eee3        bltu x15 x12 -932
    1e708:        001d0d13        addi x26 x26 1
    1e70c:        002c1793        slli x15 x24 2
    1e710:        fffd4683        lbu x13 -1 x26
    1e714:        01878c33        add x24 x15 x24
    1e718:        001c1c13        slli x24 x24 1
    1e71c:        00cc0c33        add x24 x24 x12
    1e720:        00900793        addi x15 x0 9
    1e724:        fd068613        addi x12 x13 -48
    1e728:        fec7f0e3        bgeu x15 x12 -32
    1e72c:        c35ff06f        jal x0 -972
    1e730:        000d4683        lbu x13 0 x26
    1e734:        004cec93        ori x25 x25 4
    1e738:        c21ff06f        jal x0 -992
    1e73c:        02b00793        addi x15 x0 43
    1e740:        02f10da3        sb x15 59 x2
    1e744:        000d4683        lbu x13 0 x26
    1e748:        c11ff06f        jal x0 -1008
    1e74c:        00c12783        lw x15 12 x2
    1e750:        000d4683        lbu x13 0 x26
    1e754:        0007a903        lw x18 0 x15
    1e758:        00478793        addi x15 x15 4
    1e75c:        00f12623        sw x15 12 x2
    1e760:        be095ce3        bge x18 x0 -1032
    1e764:        41200933        sub x18 x0 x18
    1e768:        004cec93        ori x25 x25 4
    1e76c:        bedff06f        jal x0 -1044
    1e770:        020cf793        andi x15 x25 32
    1e774:        010ceb13        ori x22 x25 16
    1e778:        3e079463        bne x15 x0 1000
    1e77c:        00c12783        lw x15 12 x2
    1e780:        00478693        addi x13 x15 4
    1e784:        00c12783        lw x15 12 x2
    1e788:        00d12623        sw x13 12 x2
    1e78c:        0007ad83        lw x27 0 x15
    1e790:        41fdd313        srai x6 x27 31
    1e794:        00030693        addi x13 x6 0
    1e798:        2c06cc63        blt x13 x0 728
    1e79c:        fff00693        addi x13 x0 -1
    1e7a0:        00dc0a63        beq x24 x13 20
    1e7a4:        006de6b3        or x13 x27 x6
    1e7a8:        f7fb7c93        andi x25 x22 -129
    1e7ac:        78068063        beq x13 x0 1920
    1e7b0:        000c8b13        addi x22 x25 0
    1e7b4:        04031ee3        bne x6 x0 2140
    1e7b8:        00900793        addi x15 x0 9
    1e7bc:        05b7eae3        bltu x15 x27 2132
    1e7c0:        030d8793        addi x15 x27 48
    1e7c4:        0ef107a3        sb x15 239 x2
    1e7c8:        000b0c93        addi x25 x22 0
    1e7cc:        00100d93        addi x27 x0 1
    1e7d0:        0ef10b93        addi x23 x2 239
    1e7d4:        cfdff06f        jal x0 -772
    1e7d8:        00c12703        lw x14 12 x2
    1e7dc:        02010da3        sb x0 59 x2
    1e7e0:        00100b13        addi x22 x0 1
    1e7e4:        00072783        lw x15 0 x14
    1e7e8:        00470713        addi x14 x14 4
    1e7ec:        00e12623        sw x14 12 x2
    1e7f0:        08f10623        sb x15 140 x2
    1e7f4:        00100d93        addi x27 x0 1
    1e7f8:        08c10b93        addi x23 x2 140
    1e7fc:        d3dff06f        jal x0 -708
    1e800:        00006317        auipc x6 0x6
    1e804:        20030313        addi x6 x6 512
    1e808:        01000593        addi x11 x0 16
    1e80c:        04412603        lw x12 68 x2
    1e810:        01000c13        addi x24 x0 16
    1e814:        00700d93        addi x27 x0 7
    1e818:        00030b93        addi x23 x6 0
    1e81c:        0085c863        blt x11 x8 16
    1e820:        0580006f        jal x0 88
    1e824:        ff040413        addi x8 x8 -16
    1e828:        048c5663        bge x24 x8 76
    1e82c:        01078793        addi x15 x15 16
    1e830:        00160613        addi x12 x12 1
    1e834:        0176a023        sw x23 0 x13
    1e838:        0186a223        sw x24 4 x13
    1e83c:        04f12423        sw x15 72 x2
    1e840:        04c12223        sw x12 68 x2
    1e844:        00868693        addi x13 x13 8
    1e848:        fccddee3        bge x27 x12 -36
    1e84c:        04010613        addi x12 x2 64
    1e850:        00098593        addi x11 x19 0
    1e854:        000a0513        addi x10 x20 0
    1e858:        819ff0ef        jal x1 -2024 <__ssprint_r>
    1e85c:        ba0514e3        bne x10 x0 -1112
    1e860:        ff040413        addi x8 x8 -16
    1e864:        04812783        lw x15 72 x2
    1e868:        04412603        lw x12 68 x2
    1e86c:        00048693        addi x13 x9 0
    1e870:        fa8c4ee3        blt x24 x8 -68
    1e874:        000b8313        addi x6 x23 0
    1e878:        008787b3        add x15 x15 x8
    1e87c:        00160613        addi x12 x12 1
    1e880:        0066a023        sw x6 0 x13
    1e884:        0086a223        sw x8 4 x13
    1e888:        04f12423        sw x15 72 x2
    1e88c:        04c12223        sw x12 68 x2
    1e890:        00700693        addi x13 x0 7
    1e894:        d8c6d6e3        bge x13 x12 -628
    1e898:        04010613        addi x12 x2 64
    1e89c:        00098593        addi x11 x19 0
    1e8a0:        000a0513        addi x10 x20 0
    1e8a4:        fccff0ef        jal x1 -2100 <__ssprint_r>
    1e8a8:        b4051ee3        bne x10 x0 -1188
    1e8ac:        04812783        lw x15 72 x2
    1e8b0:        d71ff06f        jal x0 -656
    1e8b4:        001cec93        ori x25 x25 1
    1e8b8:        000d4683        lbu x13 0 x26
    1e8bc:        a9dff06f        jal x0 -1380
    1e8c0:        03b14783        lbu x15 59 x2
    1e8c4:        000d4683        lbu x13 0 x26
    1e8c8:        a80798e3        bne x15 x0 -1392
    1e8cc:        02000793        addi x15 x0 32
    1e8d0:        02f10da3        sb x15 59 x2
    1e8d4:        a85ff06f        jal x0 -1404
    1e8d8:        020cf793        andi x15 x25 32
    1e8dc:        24079c63        bne x15 x0 600
    1e8e0:        00c12783        lw x15 12 x2
    1e8e4:        010cf613        andi x12 x25 16
    1e8e8:        00478693        addi x13 x15 4
    1e8ec:        0007a783        lw x15 0 x15
    1e8f0:        20061ae3        bne x12 x0 2580
    1e8f4:        040cf613        andi x12 x25 64
    1e8f8:        060602e3        beq x12 x0 2148
    1e8fc:        01079d93        slli x27 x15 16
    1e900:        00d12623        sw x13 12 x2
    1e904:        010ddd93        srli x27 x27 16
    1e908:        00000313        addi x6 x0 0
    1e90c:        000c8b13        addi x22 x25 0
    1e910:        00100693        addi x13 x0 1
    1e914:        b85ff06f        jal x0 -1148
    1e918:        00005797        auipc x15 0x5
    1e91c:        77878793        addi x15 x15 1912
    1e920:        00f12823        sw x15 16 x2
    1e924:        020cf793        andi x15 x25 32
    1e928:        b2079ee3        bne x15 x0 -1220
    1e92c:        00c12703        lw x14 12 x2
    1e930:        010cf613        andi x12 x25 16
    1e934:        00072783        lw x15 0 x14
    1e938:        00470713        addi x14 x14 4
    1e93c:        00e12623        sw x14 12 x2
    1e940:        60061463        bne x12 x0 1544
    1e944:        040cf613        andi x12 x25 64
    1e948:        5e060c63        beq x12 x0 1528
    1e94c:        01079d93        slli x27 x15 16
    1e950:        010ddd93        srli x27 x27 16
    1e954:        00000313        addi x6 x0 0
    1e958:        b29ff06f        jal x0 -1240
    1e95c:        00c12783        lw x15 12 x2
    1e960:        02412703        lw x14 36 x2
    1e964:        00000313        addi x6 x0 0
    1e968:        0007ad83        lw x27 0 x15
    1e96c:        00478793        addi x15 x15 4
    1e970:        00f12623        sw x15 12 x2
    1e974:        00005797        auipc x15 0x5
    1e978:        71c78793        addi x15 x15 1820
    1e97c:        002ceb13        ori x22 x25 2
    1e980:        02e11e23        sh x14 60 x2
    1e984:        00f12823        sw x15 16 x2
    1e988:        00200693        addi x13 x0 2
    1e98c:        b0dff06f        jal x0 -1268
    1e990:        020cf793        andi x15 x25 32
    1e994:        16079a63        bne x15 x0 372
    1e998:        00c12783        lw x15 12 x2
    1e99c:        010cf613        andi x12 x25 16
    1e9a0:        00478693        addi x13 x15 4
    1e9a4:        0007a783        lw x15 0 x15
    1e9a8:        14061ae3        bne x12 x0 2388
    1e9ac:        040cf613        andi x12 x25 64
    1e9b0:        7e060863        beq x12 x0 2032
    1e9b4:        01079d93        slli x27 x15 16
    1e9b8:        010ddd93        srli x27 x27 16
    1e9bc:        00000313        addi x6 x0 0
    1e9c0:        000c8813        addi x16 x25 0
    1e9c4:        00d12623        sw x13 12 x2
    1e9c8:        1600006f        jal x0 352
    1e9cc:        00c12703        lw x14 12 x2
    1e9d0:        020cf793        andi x15 x25 32
    1e9d4:        00470693        addi x13 x14 4
    1e9d8:        5e079463        bne x15 x0 1512
    1e9dc:        010cf793        andi x15 x25 16
    1e9e0:        74079063        bne x15 x0 1856
    1e9e4:        040cf793        andi x15 x25 64
    1e9e8:        080792e3        bne x15 x0 2180
    1e9ec:        200cf813        andi x16 x25 512
    1e9f0:        72080863        beq x16 x0 1840
    1e9f4:        00c12783        lw x15 12 x2
    1e9f8:        00812703        lw x14 8 x2
    1e9fc:        00d12623        sw x13 12 x2
    1ea00:        0007a783        lw x15 0 x15
    1ea04:        00e78023        sb x14 0 x15
    1ea08:        8c1ff06f        jal x0 -1856
    1ea0c:        000d4683        lbu x13 0 x26
    1ea10:        06c00793        addi x15 x0 108
    1ea14:        6cf68863        beq x13 x15 1744
    1ea18:        010cec93        ori x25 x25 16
    1ea1c:        93dff06f        jal x0 -1732
    1ea20:        000d4683        lbu x13 0 x26
    1ea24:        06800793        addi x15 x0 104
    1ea28:        6af68663        beq x13 x15 1708
    1ea2c:        040cec93        ori x25 x25 64
    1ea30:        929ff06f        jal x0 -1752
    1ea34:        020cf793        andi x15 x25 32
    1ea38:        12079263        bne x15 x0 292
    1ea3c:        00c12703        lw x14 12 x2
    1ea40:        010cf793        andi x15 x25 16
    1ea44:        00470693        addi x13 x14 4
    1ea48:        0a0796e3        bne x15 x0 2220
    1ea4c:        040cf793        andi x15 x25 64
    1ea50:        72078663        beq x15 x0 1836
    1ea54:        00c12783        lw x15 12 x2
    1ea58:        00d12623        sw x13 12 x2
    1ea5c:        000c8b13        addi x22 x25 0
    1ea60:        00079d83        lh x27 0 x15
    1ea64:        41fdd313        srai x6 x27 31
    1ea68:        00030693        addi x13 x6 0
    1ea6c:        d206d8e3        bge x13 x0 -720
    1ea70:        41b007b3        sub x15 x0 x27
    1ea74:        00f036b3        sltu x13 x0 x15
    1ea78:        40600333        sub x6 x0 x6
    1ea7c:        40d30333        sub x6 x6 x13
    1ea80:        02d00693        addi x13 x0 45
    1ea84:        02d10da3        sb x13 59 x2
    1ea88:        fff00613        addi x12 x0 -1
    1ea8c:        00078d93        addi x27 x15 0
    1ea90:        00100693        addi x13 x0 1
    1ea94:        a0cc18e3        bne x24 x12 -1520
    1ea98:        00100613        addi x12 x0 1
    1ea9c:        d0c68ce3        beq x13 x12 -744
    1eaa0:        00200613        addi x12 x0 2
    1eaa4:        0ec68a63        beq x13 x12 244
    1eaa8:        0f010613        addi x12 x2 240
    1eaac:        0080006f        jal x0 8
    1eab0:        000b8613        addi x12 x23 0
    1eab4:        01d31793        slli x15 x6 29
    1eab8:        007df693        andi x13 x27 7
    1eabc:        003ddd93        srli x27 x27 3
    1eac0:        03068693        addi x13 x13 48
    1eac4:        01b7edb3        or x27 x15 x27
    1eac8:        00335313        srli x6 x6 3
    1eacc:        fed60fa3        sb x13 -1 x12
    1ead0:        006de7b3        or x15 x27 x6
    1ead4:        fff60b93        addi x23 x12 -1
    1ead8:        fc079ce3        bne x15 x0 -40
    1eadc:        001b7793        andi x15 x22 1
    1eae0:        0e078663        beq x15 x0 236
    1eae4:        03000793        addi x15 x0 48
    1eae8:        0ef68263        beq x13 x15 228
    1eaec:        ffe60613        addi x12 x12 -2
    1eaf0:        fefb8fa3        sb x15 -1 x23
    1eaf4:        0f010793        addi x15 x2 240
    1eaf8:        40c78db3        sub x27 x15 x12
    1eafc:        000b0c93        addi x25 x22 0
    1eb00:        00060b93        addi x23 x12 0
    1eb04:        9cdff06f        jal x0 -1588
    1eb08:        000c8813        addi x16 x25 0
    1eb0c:        00c12783        lw x15 12 x2
    1eb10:        00778693        addi x13 x15 7
    1eb14:        ff86f693        andi x13 x13 -8
    1eb18:        0006ad83        lw x27 0 x13
    1eb1c:        0046a303        lw x6 4 x13
    1eb20:        00868793        addi x15 x13 8
    1eb24:        00f12623        sw x15 12 x2
    1eb28:        bff87b13        andi x22 x16 -1025
    1eb2c:        00000693        addi x13 x0 0
    1eb30:        969ff06f        jal x0 -1688
    1eb34:        000c8b13        addi x22 x25 0
    1eb38:        00c12783        lw x15 12 x2
    1eb3c:        00778693        addi x13 x15 7
    1eb40:        ff86f693        andi x13 x13 -8
    1eb44:        00868793        addi x15 x13 8
    1eb48:        0006ad83        lw x27 0 x13
    1eb4c:        0046a303        lw x6 4 x13
    1eb50:        00f12623        sw x15 12 x2
    1eb54:        00100693        addi x13 x0 1
    1eb58:        941ff06f        jal x0 -1728
    1eb5c:        000c8b13        addi x22 x25 0
    1eb60:        00c12783        lw x15 12 x2
    1eb64:        00778793        addi x15 x15 7
    1eb68:        ff87f793        andi x15 x15 -8
    1eb6c:        0047a683        lw x13 4 x15
    1eb70:        00878713        addi x14 x15 8
    1eb74:        00e12623        sw x14 12 x2
    1eb78:        0007ad83        lw x27 0 x15
    1eb7c:        00068313        addi x6 x13 0
    1eb80:        c19ff06f        jal x0 -1000
    1eb84:        00100613        addi x12 x0 1
    1eb88:        6ec68e63        beq x13 x12 1788
    1eb8c:        00200613        addi x12 x0 2
    1eb90:        000c8b13        addi x22 x25 0
    1eb94:        f0c69ae3        bne x13 x12 -236
    1eb98:        01012683        lw x13 16 x2
    1eb9c:        0f010b93        addi x23 x2 240
    1eba0:        00fdf793        andi x15 x27 15
    1eba4:        00f687b3        add x15 x13 x15
    1eba8:        0007c783        lbu x15 0 x15
    1ebac:        01c31713        slli x14 x6 28
    1ebb0:        004ddd93        srli x27 x27 4
    1ebb4:        fffb8b93        addi x23 x23 -1
    1ebb8:        01b76db3        or x27 x14 x27
    1ebbc:        00435313        srli x6 x6 4
    1ebc0:        00fb8023        sb x15 0 x23
    1ebc4:        006de7b3        or x15 x27 x6
    1ebc8:        fc079ce3        bne x15 x0 -40
    1ebcc:        0f010793        addi x15 x2 240
    1ebd0:        41778db3        sub x27 x15 x23
    1ebd4:        000b0c93        addi x25 x22 0
    1ebd8:        8f9ff06f        jal x0 -1800
    1ebdc:        41690e33        sub x28 x18 x22
    1ebe0:        a1c056e3        bge x0 x28 -1524
    1ebe4:        01000513        addi x10 x0 16
    1ebe8:        6bc55a63        bge x10 x28 1716
    1ebec:        00006317        auipc x6 0x6
    1ebf0:        e2430313        addi x6 x6 -476
    1ebf4:        01212a23        sw x18 20 x2
    1ebf8:        03612423        sw x22 40 x2
    1ebfc:        01000693        addi x13 x0 16
    1ec00:        00700e93        addi x29 x0 7
    1ec04:        000e0913        addi x18 x28 0
    1ec08:        00030b13        addi x22 x6 0
    1ec0c:        00c0006f        jal x0 12
    1ec10:        ff090913        addi x18 x18 -16
    1ec14:        0526da63        bge x13 x18 84
    1ec18:        01078793        addi x15 x15 16
    1ec1c:        00160613        addi x12 x12 1
    1ec20:        01642023        sw x22 0 x8
    1ec24:        00d42223        sw x13 4 x8
    1ec28:        04f12423        sw x15 72 x2
    1ec2c:        04c12223        sw x12 68 x2
    1ec30:        00840413        addi x8 x8 8
    1ec34:        fccedee3        bge x29 x12 -36
    1ec38:        04010613        addi x12 x2 64
    1ec3c:        00098593        addi x11 x19 0
    1ec40:        000a0513        addi x10 x20 0
    1ec44:        c2cff0ef        jal x1 -3028 <__ssprint_r>
    1ec48:        fa051e63        bne x10 x0 -2116
    1ec4c:        01000693        addi x13 x0 16
    1ec50:        ff090913        addi x18 x18 -16
    1ec54:        04812783        lw x15 72 x2
    1ec58:        04412603        lw x12 68 x2
    1ec5c:        00048413        addi x8 x9 0
    1ec60:        00700e93        addi x29 x0 7
    1ec64:        fb26cae3        blt x13 x18 -76
    1ec68:        00090e13        addi x28 x18 0
    1ec6c:        000b0313        addi x6 x22 0
    1ec70:        01412903        lw x18 20 x2
    1ec74:        02812b03        lw x22 40 x2
    1ec78:        00160613        addi x12 x12 1
    1ec7c:        00840513        addi x10 x8 8
    1ec80:        01c787b3        add x15 x15 x28
    1ec84:        00642023        sw x6 0 x8
    1ec88:        01c42223        sw x28 4 x8
    1ec8c:        04f12423        sw x15 72 x2
    1ec90:        04c12223        sw x12 68 x2
    1ec94:        00700693        addi x13 x0 7
    1ec98:        44c6ce63        blt x13 x12 1116
    1ec9c:        41bc0c33        sub x24 x24 x27
    1eca0:        00160593        addi x11 x12 1
    1eca4:        00850693        addi x13 x10 8
    1eca8:        00050413        addi x8 x10 0
    1ecac:        958054e3        bge x0 x24 -1720
    1ecb0:        01000513        addi x10 x0 16
    1ecb4:        51855463        bge x10 x24 1288
    1ecb8:        00006317        auipc x6 0x6
    1ecbc:        d5830313        addi x6 x6 -680
    1ecc0:        01212a23        sw x18 20 x2
    1ecc4:        01000693        addi x13 x0 16
    1ecc8:        00700e13        addi x28 x0 7
    1eccc:        00030913        addi x18 x6 0
    1ecd0:        00c0006f        jal x0 12
    1ecd4:        ff0c0c13        addi x24 x24 -16
    1ecd8:        0586da63        bge x13 x24 84
    1ecdc:        01078793        addi x15 x15 16
    1ece0:        00160613        addi x12 x12 1
    1ece4:        01242023        sw x18 0 x8
    1ece8:        00d42223        sw x13 4 x8
    1ecec:        04f12423        sw x15 72 x2
    1ecf0:        04c12223        sw x12 68 x2
    1ecf4:        00840413        addi x8 x8 8
    1ecf8:        fcce5ee3        bge x28 x12 -36
    1ecfc:        04010613        addi x12 x2 64
    1ed00:        00098593        addi x11 x19 0
    1ed04:        000a0513        addi x10 x20 0
    1ed08:        b68ff0ef        jal x1 -3224 <__ssprint_r>
    1ed0c:        ee051c63        bne x10 x0 -2312
    1ed10:        01000693        addi x13 x0 16
    1ed14:        ff0c0c13        addi x24 x24 -16
    1ed18:        04812783        lw x15 72 x2
    1ed1c:        04412603        lw x12 68 x2
    1ed20:        00048413        addi x8 x9 0
    1ed24:        00700e13        addi x28 x0 7
    1ed28:        fb86cae3        blt x13 x24 -76
    1ed2c:        00090313        addi x6 x18 0
    1ed30:        01412903        lw x18 20 x2
    1ed34:        00160593        addi x11 x12 1
    1ed38:        00840613        addi x12 x8 8
    1ed3c:        018787b3        add x15 x15 x24
    1ed40:        00642023        sw x6 0 x8
    1ed44:        01842223        sw x24 4 x8
    1ed48:        04f12423        sw x15 72 x2
    1ed4c:        04b12223        sw x11 68 x2
    1ed50:        00700693        addi x13 x0 7
    1ed54:        20b6c063        blt x13 x11 512
    1ed58:        00060413        addi x8 x12 0
    1ed5c:        00158593        addi x11 x11 1
    1ed60:        00fd87b3        add x15 x27 x15
    1ed64:        00860693        addi x13 x12 8
    1ed68:        01742023        sw x23 0 x8
    1ed6c:        01b42223        sw x27 4 x8
    1ed70:        04f12423        sw x15 72 x2
    1ed74:        04b12223        sw x11 68 x2
    1ed78:        00700613        addi x12 x0 7
    1ed7c:        88b65ae3        bge x12 x11 -1900
    1ed80:        04010613        addi x12 x2 64
    1ed84:        00098593        addi x11 x19 0
    1ed88:        000a0513        addi x10 x20 0
    1ed8c:        ae4ff0ef        jal x1 -3356 <__ssprint_r>
    1ed90:        e6051a63        bne x10 x0 -2444
    1ed94:        04812783        lw x15 72 x2
    1ed98:        00048693        addi x13 x9 0
    1ed9c:        875ff06f        jal x0 -1932
    1eda0:        04010613        addi x12 x2 64
    1eda4:        00098593        addi x11 x19 0
    1eda8:        000a0513        addi x10 x20 0
    1edac:        ac4ff0ef        jal x1 -3388 <__ssprint_r>
    1edb0:        880504e3        beq x10 x0 -1912
    1edb4:        e50ff06f        jal x0 -2480
    1edb8:        000c8b13        addi x22 x25 0
    1edbc:        cddff06f        jal x0 -804
    1edc0:        01000593        addi x11 x0 16
    1edc4:        00006317        auipc x6 0x6
    1edc8:        c3c30313        addi x6 x6 -964
    1edcc:        08d5dc63        bge x11 x13 152
    1edd0:        03212623        sw x18 44 x2
    1edd4:        00040713        addi x14 x8 0
    1edd8:        01000e13        addi x28 x0 16
    1eddc:        00700f93        addi x31 x0 7
    1ede0:        01e12a23        sw x30 20 x2
    1ede4:        03d12423        sw x29 40 x2
    1ede8:        00068413        addi x8 x13 0
    1edec:        00030913        addi x18 x6 0
    1edf0:        00c0006f        jal x0 12
    1edf4:        ff040413        addi x8 x8 -16
    1edf8:        048e5a63        bge x28 x8 84
    1edfc:        01078793        addi x15 x15 16
    1ee00:        00160613        addi x12 x12 1
    1ee04:        01272023        sw x18 0 x14
    1ee08:        01c72223        sw x28 4 x14
    1ee0c:        04f12423        sw x15 72 x2
    1ee10:        04c12223        sw x12 68 x2
    1ee14:        00870713        addi x14 x14 8
    1ee18:        fccfdee3        bge x31 x12 -36
    1ee1c:        04010613        addi x12 x2 64
    1ee20:        00098593        addi x11 x19 0
    1ee24:        000a0513        addi x10 x20 0
    1ee28:        a48ff0ef        jal x1 -3512 <__ssprint_r>
    1ee2c:        dc051c63        bne x10 x0 -2600
    1ee30:        01000e13        addi x28 x0 16
    1ee34:        ff040413        addi x8 x8 -16
    1ee38:        04812783        lw x15 72 x2
    1ee3c:        04412603        lw x12 68 x2
    1ee40:        00048713        addi x14 x9 0
    1ee44:        00700f93        addi x31 x0 7
    1ee48:        fa8e4ae3        blt x28 x8 -76
    1ee4c:        00090313        addi x6 x18 0
    1ee50:        01412f03        lw x30 20 x2
    1ee54:        02812e83        lw x29 40 x2
    1ee58:        02c12903        lw x18 44 x2
    1ee5c:        00040693        addi x13 x8 0
    1ee60:        00070413        addi x8 x14 0
    1ee64:        00d787b3        add x15 x15 x13
    1ee68:        00160613        addi x12 x12 1
    1ee6c:        00d42223        sw x13 4 x8
    1ee70:        00642023        sw x6 0 x8
    1ee74:        04f12423        sw x15 72 x2
    1ee78:        04c12223        sw x12 68 x2
    1ee7c:        00700693        addi x13 x0 7
    1ee80:        00840413        addi x8 x8 8
    1ee84:        ecc6de63        bge x13 x12 -2340
    1ee88:        04010613        addi x12 x2 64
    1ee8c:        00098593        addi x11 x19 0
    1ee90:        000a0513        addi x10 x20 0
    1ee94:        03d12423        sw x29 40 x2
    1ee98:        01e12a23        sw x30 20 x2
    1ee9c:        9d4ff0ef        jal x1 -3628 <__ssprint_r>
    1eea0:        d6051263        bne x10 x0 -2716
    1eea4:        04812783        lw x15 72 x2
    1eea8:        04412603        lw x12 68 x2
    1eeac:        00048413        addi x8 x9 0
    1eeb0:        02812e83        lw x29 40 x2
    1eeb4:        01412f03        lw x30 20 x2
    1eeb8:        ea8ff06f        jal x0 -2392
    1eebc:        04010613        addi x12 x2 64
    1eec0:        00098593        addi x11 x19 0
    1eec4:        000a0513        addi x10 x20 0
    1eec8:        03d12423        sw x29 40 x2
    1eecc:        01e12a23        sw x30 20 x2
    1eed0:        9a0ff0ef        jal x1 -3680 <__ssprint_r>
    1eed4:        d2051863        bne x10 x0 -2768
    1eed8:        04412603        lw x12 68 x2
    1eedc:        04812783        lw x15 72 x2
    1eee0:        05410693        addi x13 x2 84
    1eee4:        00160593        addi x11 x12 1
    1eee8:        00048413        addi x8 x9 0
    1eeec:        02812e83        lw x29 40 x2
    1eef0:        01412f03        lw x30 20 x2
    1eef4:        eb8ff06f        jal x0 -2376
    1eef8:        04010613        addi x12 x2 64
    1eefc:        00098593        addi x11 x19 0
    1ef00:        000a0513        addi x10 x20 0
    1ef04:        01d12a23        sw x29 20 x2
    1ef08:        968ff0ef        jal x1 -3736 <__ssprint_r>
    1ef0c:        ce051c63        bne x10 x0 -2824
    1ef10:        04412603        lw x12 68 x2
    1ef14:        04812783        lw x15 72 x2
    1ef18:        05410693        addi x13 x2 84
    1ef1c:        00160593        addi x11 x12 1
    1ef20:        00048413        addi x8 x9 0
    1ef24:        01412e83        lw x29 20 x2
    1ef28:        ebcff06f        jal x0 -2372
    1ef2c:        340c1c63        bne x24 x0 856
    1ef30:        00000c13        addi x24 x0 0
    1ef34:        00000d93        addi x27 x0 0
    1ef38:        0f010b93        addi x23 x2 240
    1ef3c:        d94ff06f        jal x0 -2668
    1ef40:        200cf613        andi x12 x25 512
    1ef44:        30061e63        bne x12 x0 796
    1ef48:        00078d93        addi x27 x15 0
    1ef4c:        00000313        addi x6 x0 0
    1ef50:        d30ff06f        jal x0 -2768
    1ef54:        04010613        addi x12 x2 64
    1ef58:        00098593        addi x11 x19 0
    1ef5c:        000a0513        addi x10 x20 0
    1ef60:        910ff0ef        jal x1 -3824 <__ssprint_r>
    1ef64:        ca051063        bne x10 x0 -2912
    1ef68:        04412583        lw x11 68 x2
    1ef6c:        04812783        lw x15 72 x2
    1ef70:        05410693        addi x13 x2 84
    1ef74:        00158593        addi x11 x11 1
    1ef78:        00048413        addi x8 x9 0
    1ef7c:        e78ff06f        jal x0 -2440
    1ef80:        000d0b13        addi x22 x26 0
    1ef84:        bb8ff06f        jal x0 -3144
    1ef88:        01812783        lw x15 24 x2
    1ef8c:        000d4683        lbu x13 0 x26
    1ef90:        bc078463        beq x15 x0 -3128
    1ef94:        0007c783        lbu x15 0 x15
    1ef98:        bc078063        beq x15 x0 -3136
    1ef9c:        400cec93        ori x25 x25 1024
    1efa0:        bb8ff06f        jal x0 -3144
    1efa4:        03000613        addi x12 x0 48
    1efa8:        002cec93        ori x25 x25 2
    1efac:        02d10ea3        sb x13 61 x2
    1efb0:        02c10e23        sb x12 60 x2
    1efb4:        bffcfb13        andi x22 x25 -1025
    1efb8:        00200693        addi x13 x0 2
    1efbc:        cdcff06f        jal x0 -2852
    1efc0:        00072783        lw x15 0 x14
    1efc4:        00812703        lw x14 8 x2
    1efc8:        00d12623        sw x13 12 x2
    1efcc:        41f75613        srai x12 x14 31
    1efd0:        00e7a023        sw x14 0 x15
    1efd4:        00c7a223        sw x12 4 x15
    1efd8:        af0ff06f        jal x0 -3344
    1efdc:        000b8513        addi x10 x23 0
    1efe0:        ba5f90ef        jal x1 -25692 <strlen>
    1efe4:        00050d93        addi x27 x10 0
    1efe8:        00000c13        addi x24 x0 0
    1efec:        ce4ff06f        jal x0 -2844
    1eff0:        04000593        addi x11 x0 64
    1eff4:        cf1f70ef        jal x1 -33552 <_malloc_r>
    1eff8:        00a9a023        sw x10 0 x19
    1effc:        00a9a823        sw x10 16 x19
    1f000:        2e050063        beq x10 x0 736
    1f004:        04000793        addi x15 x0 64
    1f008:        00f9aa23        sw x15 20 x19
    1f00c:        a7cff06f        jal x0 -3460
    1f010:        0f010b93        addi x23 x2 240
    1f014:        400b7793        andi x15 x22 1024
    1f018:        01612a23        sw x22 20 x2
    1f01c:        03212423        sw x18 40 x2
    1f020:        02812623        sw x8 44 x2
    1f024:        000b8913        addi x18 x23 0
    1f028:        00000c93        addi x25 x0 0
    1f02c:        000d0b93        addi x23 x26 0
    1f030:        01812403        lw x8 24 x2
    1f034:        00098d13        addi x26 x19 0
    1f038:        00078b13        addi x22 x15 0
    1f03c:        00030993        addi x19 x6 0
    1f040:        0240006f        jal x0 36
    1f044:        00a00613        addi x12 x0 10
    1f048:        00000693        addi x13 x0 0
    1f04c:        000d8513        addi x10 x27 0
    1f050:        00098593        addi x11 x19 0
    1f054:        0e5000ef        jal x1 2276 <__udivdi3>
    1f058:        16098a63        beq x19 x0 372
    1f05c:        00050d93        addi x27 x10 0
    1f060:        00058993        addi x19 x11 0
    1f064:        00a00613        addi x12 x0 10
    1f068:        00000693        addi x13 x0 0
    1f06c:        000d8513        addi x10 x27 0
    1f070:        00098593        addi x11 x19 0
    1f074:        4f9000ef        jal x1 3320 <__umoddi3>
    1f078:        03050513        addi x10 x10 48
    1f07c:        fea90fa3        sb x10 -1 x18
    1f080:        001c8c93        addi x25 x25 1
    1f084:        fff90913        addi x18 x18 -1
    1f088:        fa0b0ee3        beq x22 x0 -68
    1f08c:        00044703        lbu x14 0 x8
    1f090:        fb971ae3        bne x14 x25 -76
    1f094:        0ff00793        addi x15 x0 255
    1f098:        fafc86e3        beq x25 x15 -84
    1f09c:        12099e63        bne x19 x0 316
    1f0a0:        00900793        addi x15 x0 9
    1f0a4:        13b7ea63        bltu x15 x27 308
    1f0a8:        01412b03        lw x22 20 x2
    1f0ac:        000d0993        addi x19 x26 0
    1f0b0:        0f010793        addi x15 x2 240
    1f0b4:        000b8d13        addi x26 x23 0
    1f0b8:        00090b93        addi x23 x18 0
    1f0bc:        00812c23        sw x8 24 x2
    1f0c0:        02812903        lw x18 40 x2
    1f0c4:        02c12403        lw x8 44 x2
    1f0c8:        41778db3        sub x27 x15 x23
    1f0cc:        000b0c93        addi x25 x22 0
    1f0d0:        c00ff06f        jal x0 -3072
    1f0d4:        001d4683        lbu x13 1 x26
    1f0d8:        200cec93        ori x25 x25 512
    1f0dc:        001d0d13        addi x26 x26 1
    1f0e0:        a78ff06f        jal x0 -3464
    1f0e4:        001d4683        lbu x13 1 x26
    1f0e8:        020cec93        ori x25 x25 32
    1f0ec:        001d0d13        addi x26 x26 1
    1f0f0:        a68ff06f        jal x0 -3480
    1f0f4:        04010613        addi x12 x2 64
    1f0f8:        00098593        addi x11 x19 0
    1f0fc:        000a0513        addi x10 x20 0
    1f100:        f71fe0ef        jal x1 -4240 <__ssprint_r>
    1f104:        b0051063        bne x10 x0 -3328
    1f108:        04412603        lw x12 68 x2
    1f10c:        04812783        lw x15 72 x2
    1f110:        05410693        addi x13 x2 84
    1f114:        00160593        addi x11 x12 1
    1f118:        00048413        addi x8 x9 0
    1f11c:        cd0ff06f        jal x0 -2864
    1f120:        00c12783        lw x15 12 x2
    1f124:        00812703        lw x14 8 x2
    1f128:        0007a783        lw x15 0 x15
    1f12c:        00d12623        sw x13 12 x2
    1f130:        00e7a023        sw x14 0 x15
    1f134:        994ff06f        jal x0 -3692
    1f138:        00600793        addi x15 x0 6
    1f13c:        000c0d93        addi x27 x24 0
    1f140:        0187f463        bgeu x15 x24 8
    1f144:        00600d93        addi x27 x0 6
    1f148:        000d8b13        addi x22 x27 0
    1f14c:        00e12623        sw x14 12 x2
    1f150:        00005b97        auipc x23 0x5
    1f154:        f68b8b93        addi x23 x23 -152
    1f158:        be0ff06f        jal x0 -3104
    1f15c:        200cf613        andi x12 x25 512
    1f160:        0e060463        beq x12 x0 232
    1f164:        00d12623        sw x13 12 x2
    1f168:        0ff7fd93        andi x27 x15 255
    1f16c:        00000313        addi x6 x0 0
    1f170:        000c8b13        addi x22 x25 0
    1f174:        00100693        addi x13 x0 1
    1f178:        b20ff06f        jal x0 -3296
    1f17c:        200cf793        andi x15 x25 512
    1f180:        0a078663        beq x15 x0 172
    1f184:        00c12783        lw x15 12 x2
    1f188:        000c8b13        addi x22 x25 0
    1f18c:        00d12623        sw x13 12 x2
    1f190:        00078d83        lb x27 0 x15
    1f194:        41fdd313        srai x6 x27 31
    1f198:        00030693        addi x13 x6 0
    1f19c:        dfcff06f        jal x0 -2564
    1f1a0:        200cf613        andi x12 x25 512
    1f1a4:        06060a63        beq x12 x0 116
    1f1a8:        0ff7fd93        andi x27 x15 255
    1f1ac:        00000313        addi x6 x0 0
    1f1b0:        000c8813        addi x16 x25 0
    1f1b4:        00d12623        sw x13 12 x2
    1f1b8:        971ff06f        jal x0 -1680
    1f1bc:        00068613        addi x12 x13 0
    1f1c0:        00006317        auipc x6 0x6
    1f1c4:        85030313        addi x6 x6 -1968
    1f1c8:        b75ff06f        jal x0 -1164
    1f1cc:        00900793        addi x15 x0 9
    1f1d0:        e9b7e6e3        bltu x15 x27 -372
    1f1d4:        ed5ff06f        jal x0 -300
    1f1d8:        02012783        lw x15 32 x2
    1f1dc:        01c12583        lw x11 28 x2
    1f1e0:        00000c93        addi x25 x0 0
    1f1e4:        40f90933        sub x18 x18 x15
    1f1e8:        00078613        addi x12 x15 0
    1f1ec:        00090513        addi x10 x18 0
    1f1f0:        a21f90ef        jal x1 -26080 <strncpy>
    1f1f4:        00144703        lbu x14 1 x8
    1f1f8:        00a00613        addi x12 x0 10
    1f1fc:        00000693        addi x13 x0 0
    1f200:        00e03733        sltu x14 x0 x14
    1f204:        000d8513        addi x10 x27 0
    1f208:        00098593        addi x11 x19 0
    1f20c:        00e40433        add x8 x8 x14
    1f210:        728000ef        jal x1 1832 <__udivdi3>
    1f214:        e49ff06f        jal x0 -440
    1f218:        00078d93        addi x27 x15 0
    1f21c:        00000313        addi x6 x0 0
    1f220:        000c8813        addi x16 x25 0
    1f224:        00d12623        sw x13 12 x2
    1f228:        901ff06f        jal x0 -1792
    1f22c:        00c12783        lw x15 12 x2
    1f230:        000c8b13        addi x22 x25 0
    1f234:        00d12623        sw x13 12 x2
    1f238:        0007ad83        lw x27 0 x15
    1f23c:        41fdd313        srai x6 x27 31
    1f240:        00030693        addi x13 x6 0
    1f244:        d54ff06f        jal x0 -2732
    1f248:        00d12623        sw x13 12 x2
    1f24c:        00078d93        addi x27 x15 0
    1f250:        00000313        addi x6 x0 0
    1f254:        000c8b13        addi x22 x25 0
    1f258:        00100693        addi x13 x0 1
    1f25c:        a3cff06f        jal x0 -3524
    1f260:        0ff7fd93        andi x27 x15 255
    1f264:        00000313        addi x6 x0 0
    1f268:        a18ff06f        jal x0 -3560
    1f26c:        00c12783        lw x15 12 x2
    1f270:        00812703        lw x14 8 x2
    1f274:        00d12623        sw x13 12 x2
    1f278:        0007a783        lw x15 0 x15
    1f27c:        00e79023        sh x14 0 x15
    1f280:        848ff06f        jal x0 -4024
    1f284:        000c8b13        addi x22 x25 0
    1f288:        d38ff06f        jal x0 -2760
    1f28c:        000c0d93        addi x27 x24 0
    1f290:        00e12623        sw x14 12 x2
    1f294:        00000c13        addi x24 x0 0
    1f298:        a38ff06f        jal x0 -3528
    1f29c:        00068513        addi x10 x13 0
    1f2a0:        00058613        addi x12 x11 0
    1f2a4:        00005317        auipc x6 0x5
    1f2a8:        76c30313        addi x6 x6 1900
    1f2ac:        9d5ff06f        jal x0 -1580
    1f2b0:        fff00793        addi x15 x0 -1
    1f2b4:        00f12423        sw x15 8 x2
    1f2b8:        958ff06f        jal x0 -3752
    1f2bc:        00c12703        lw x14 12 x2
    1f2c0:        00072c03        lw x24 0 x14
    1f2c4:        00470713        addi x14 x14 4
    1f2c8:        000c5463        bge x24 x0 8
    1f2cc:        fff00c13        addi x24 x0 -1
    1f2d0:        001d4683        lbu x13 1 x26
    1f2d4:        00e12623        sw x14 12 x2
    1f2d8:        00078d13        addi x26 x15 0
    1f2dc:        87cff06f        jal x0 -3972
    1f2e0:        00c00793        addi x15 x0 12
    1f2e4:        00fa2023        sw x15 0 x20
    1f2e8:        fff00793        addi x15 x0 -1
    1f2ec:        00f12423        sw x15 8 x2
    1f2f0:        920ff06f        jal x0 -3808
    1f2f4:        000c8b13        addi x22 x25 0
    1f2f8:        c8cff06f        jal x0 -2932
    1f2fc:        000c8813        addi x16 x25 0
    1f300:        b9cff06f        jal x0 -3172
    1f304:        000c8b13        addi x22 x25 0
    1f308:        bbcff06f        jal x0 -3140

0001f30c <__swbuf_r>:
    1f30c:        fe010113        addi x2 x2 -32
    1f310:        00812c23        sw x8 24 x2
    1f314:        00912a23        sw x9 20 x2
    1f318:        01212823        sw x18 16 x2
    1f31c:        00112e23        sw x1 28 x2
    1f320:        01312623        sw x19 12 x2
    1f324:        00050913        addi x18 x10 0
    1f328:        00058493        addi x9 x11 0
    1f32c:        00060413        addi x8 x12 0
    1f330:        00050663        beq x10 x0 12
    1f334:        03852783        lw x15 56 x10
    1f338:        14078863        beq x15 x0 336
    1f33c:        00c41703        lh x14 12 x8
    1f340:        01842783        lw x15 24 x8
    1f344:        01071693        slli x13 x14 16
    1f348:        0106d693        srli x13 x13 16
    1f34c:        00f42423        sw x15 8 x8
    1f350:        0086f793        andi x15 x13 8
    1f354:        08078263        beq x15 x0 132
    1f358:        01042783        lw x15 16 x8
    1f35c:        06078e63        beq x15 x0 124
    1f360:        01269613        slli x12 x13 18
    1f364:        0ff4f993        andi x19 x9 255
    1f368:        0ff4f493        andi x9 x9 255
    1f36c:        08065e63        bge x12 x0 156
    1f370:        00042703        lw x14 0 x8
    1f374:        01442683        lw x13 20 x8
    1f378:        40f707b3        sub x15 x14 x15
    1f37c:        0ad7de63        bge x15 x13 188
    1f380:        00842683        lw x13 8 x8
    1f384:        00170613        addi x12 x14 1
    1f388:        00c42023        sw x12 0 x8
    1f38c:        fff68693        addi x13 x13 -1
    1f390:        00d42423        sw x13 8 x8
    1f394:        01370023        sb x19 0 x14
    1f398:        01442703        lw x14 20 x8
    1f39c:        00178793        addi x15 x15 1
    1f3a0:        0cf70863        beq x14 x15 208
    1f3a4:        00c45783        lhu x15 12 x8
    1f3a8:        0017f793        andi x15 x15 1
    1f3ac:        00078663        beq x15 x0 12
    1f3b0:        00a00793        addi x15 x0 10
    1f3b4:        0af48e63        beq x9 x15 188
    1f3b8:        01c12083        lw x1 28 x2
    1f3bc:        01812403        lw x8 24 x2
    1f3c0:        00048513        addi x10 x9 0
    1f3c4:        01012903        lw x18 16 x2
    1f3c8:        01412483        lw x9 20 x2
    1f3cc:        00c12983        lw x19 12 x2
    1f3d0:        02010113        addi x2 x2 32
    1f3d4:        00008067        jalr x0 x1 0
    1f3d8:        00040593        addi x11 x8 0
    1f3dc:        00090513        addi x10 x18 0
    1f3e0:        c3df30ef        jal x1 -50116 <__swsetup_r>
    1f3e4:        08051e63        bne x10 x0 156
    1f3e8:        00c41703        lh x14 12 x8
    1f3ec:        0ff4f993        andi x19 x9 255
    1f3f0:        01042783        lw x15 16 x8
    1f3f4:        01071693        slli x13 x14 16
    1f3f8:        0106d693        srli x13 x13 16
    1f3fc:        01269613        slli x12 x13 18
    1f400:        0ff4f493        andi x9 x9 255
    1f404:        f60646e3        blt x12 x0 -148
    1f408:        06442683        lw x13 100 x8
    1f40c:        00002637        lui x12 0x2
    1f410:        00c76733        or x14 x14 x12
    1f414:        ffffe637        lui x12 0xffffe
    1f418:        fff60613        addi x12 x12 -1
    1f41c:        00c6f6b3        and x13 x13 x12
    1f420:        00e41623        sh x14 12 x8
    1f424:        00042703        lw x14 0 x8
    1f428:        06d42223        sw x13 100 x8
    1f42c:        01442683        lw x13 20 x8
    1f430:        40f707b3        sub x15 x14 x15
    1f434:        f4d7c6e3        blt x15 x13 -180
    1f438:        00040593        addi x11 x8 0
    1f43c:        00090513        addi x10 x18 0
    1f440:        958f40ef        jal x1 -48808 <_fflush_r>
    1f444:        02051e63        bne x10 x0 60
    1f448:        00042703        lw x14 0 x8
    1f44c:        00842683        lw x13 8 x8
    1f450:        00100793        addi x15 x0 1
    1f454:        00170613        addi x12 x14 1
    1f458:        fff68693        addi x13 x13 -1
    1f45c:        00c42023        sw x12 0 x8
    1f460:        00d42423        sw x13 8 x8
    1f464:        01370023        sb x19 0 x14
    1f468:        01442703        lw x14 20 x8
    1f46c:        f2f71ce3        bne x14 x15 -200
    1f470:        00040593        addi x11 x8 0
    1f474:        00090513        addi x10 x18 0
    1f478:        920f40ef        jal x1 -48864 <_fflush_r>
    1f47c:        f2050ee3        beq x10 x0 -196
    1f480:        fff00493        addi x9 x0 -1
    1f484:        f35ff06f        jal x0 -204
    1f488:        cbcf40ef        jal x1 -47940 <__sinit>
    1f48c:        eb1ff06f        jal x0 -336

0001f490 <__swbuf>:
    1f490:        1c018793        addi x15 x3 448
    1f494:        00058613        addi x12 x11 0
    1f498:        00050593        addi x11 x10 0
    1f49c:        0007a503        lw x10 0 x15
    1f4a0:        e6dff06f        jal x0 -404 <__swbuf_r>

0001f4a4 <_wcrtomb_r>:
    1f4a4:        fe010113        addi x2 x2 -32
    1f4a8:        00812c23        sw x8 24 x2
    1f4ac:        00912a23        sw x9 20 x2
    1f4b0:        c2818793        addi x15 x3 -984
    1f4b4:        00112e23        sw x1 28 x2
    1f4b8:        00050413        addi x8 x10 0
    1f4bc:        00068493        addi x9 x13 0
    1f4c0:        0e07a783        lw x15 224 x15
    1f4c4:        02058263        beq x11 x0 36
    1f4c8:        000780e7        jalr x1 x15 0
    1f4cc:        fff00793        addi x15 x0 -1
    1f4d0:        02f50663        beq x10 x15 44
    1f4d4:        01c12083        lw x1 28 x2
    1f4d8:        01812403        lw x8 24 x2
    1f4dc:        01412483        lw x9 20 x2
    1f4e0:        02010113        addi x2 x2 32
    1f4e4:        00008067        jalr x0 x1 0
    1f4e8:        00000613        addi x12 x0 0
    1f4ec:        00410593        addi x11 x2 4
    1f4f0:        000780e7        jalr x1 x15 0
    1f4f4:        fff00793        addi x15 x0 -1
    1f4f8:        fcf51ee3        bne x10 x15 -36
    1f4fc:        0004a023        sw x0 0 x9
    1f500:        08a00793        addi x15 x0 138
    1f504:        00f42023        sw x15 0 x8
    1f508:        01c12083        lw x1 28 x2
    1f50c:        01812403        lw x8 24 x2
    1f510:        01412483        lw x9 20 x2
    1f514:        02010113        addi x2 x2 32
    1f518:        00008067        jalr x0 x1 0

0001f51c <wcrtomb>:
    1f51c:        fe010113        addi x2 x2 -32
    1f520:        1c018793        addi x15 x3 448
    1f524:        00812c23        sw x8 24 x2
    1f528:        00912a23        sw x9 20 x2
    1f52c:        0007a403        lw x8 0 x15
    1f530:        00112e23        sw x1 28 x2
    1f534:        c2818793        addi x15 x3 -984
    1f538:        00060493        addi x9 x12 0
    1f53c:        0e07a783        lw x15 224 x15
    1f540:        00060693        addi x13 x12 0
    1f544:        02050863        beq x10 x0 48
    1f548:        00058613        addi x12 x11 0
    1f54c:        00050593        addi x11 x10 0
    1f550:        00040513        addi x10 x8 0
    1f554:        000780e7        jalr x1 x15 0
    1f558:        fff00793        addi x15 x0 -1
    1f55c:        02f50863        beq x10 x15 48
    1f560:        01c12083        lw x1 28 x2
    1f564:        01812403        lw x8 24 x2
    1f568:        01412483        lw x9 20 x2
    1f56c:        02010113        addi x2 x2 32
    1f570:        00008067        jalr x0 x1 0
    1f574:        00000613        addi x12 x0 0
    1f578:        00410593        addi x11 x2 4
    1f57c:        00040513        addi x10 x8 0
    1f580:        000780e7        jalr x1 x15 0
    1f584:        fff00793        addi x15 x0 -1
    1f588:        fcf51ce3        bne x10 x15 -40
    1f58c:        0004a023        sw x0 0 x9
    1f590:        08a00793        addi x15 x0 138
    1f594:        00f42023        sw x15 0 x8
    1f598:        01c12083        lw x1 28 x2
    1f59c:        01812403        lw x8 24 x2
    1f5a0:        01412483        lw x9 20 x2
    1f5a4:        02010113        addi x2 x2 32
    1f5a8:        00008067        jalr x0 x1 0

0001f5ac <_close>:
    1f5ac:        ff010113        addi x2 x2 -16
    1f5b0:        00112623        sw x1 12 x2
    1f5b4:        00812423        sw x8 8 x2
    1f5b8:        00000593        addi x11 x0 0
    1f5bc:        00000613        addi x12 x0 0
    1f5c0:        00000693        addi x13 x0 0
    1f5c4:        00000713        addi x14 x0 0
    1f5c8:        00000793        addi x15 x0 0
    1f5cc:        03900893        addi x17 x0 57
    1f5d0:        00000073        ecall
    1f5d4:        00050413        addi x8 x10 0
    1f5d8:        00054c63        blt x10 x0 24
    1f5dc:        00040513        addi x10 x8 0
    1f5e0:        00c12083        lw x1 12 x2
    1f5e4:        00812403        lw x8 8 x2
    1f5e8:        01010113        addi x2 x2 16
    1f5ec:        00008067        jalr x0 x1 0
    1f5f0:        40800433        sub x8 x0 x8
    1f5f4:        338000ef        jal x1 824 <__errno>
    1f5f8:        00852023        sw x8 0 x10
    1f5fc:        fff00413        addi x8 x0 -1
    1f600:        fddff06f        jal x0 -36

0001f604 <_exit>:
    1f604:        00000593        addi x11 x0 0
    1f608:        00000613        addi x12 x0 0
    1f60c:        00000693        addi x13 x0 0
    1f610:        00000713        addi x14 x0 0
    1f614:        00000793        addi x15 x0 0
    1f618:        05d00893        addi x17 x0 93
    1f61c:        00000073        ecall
    1f620:        00054463        blt x10 x0 8
    1f624:        0000006f        jal x0 0
    1f628:        ff010113        addi x2 x2 -16
    1f62c:        00812423        sw x8 8 x2
    1f630:        00050413        addi x8 x10 0
    1f634:        00112623        sw x1 12 x2
    1f638:        40800433        sub x8 x0 x8
    1f63c:        2f0000ef        jal x1 752 <__errno>
    1f640:        00852023        sw x8 0 x10
    1f644:        0000006f        jal x0 0

0001f648 <_fstat>:
    1f648:        f7010113        addi x2 x2 -144
    1f64c:        08912223        sw x9 132 x2
    1f650:        08112623        sw x1 140 x2
    1f654:        00058493        addi x9 x11 0
    1f658:        08812423        sw x8 136 x2
    1f65c:        00000613        addi x12 x0 0
    1f660:        00010593        addi x11 x2 0
    1f664:        00000693        addi x13 x0 0
    1f668:        00000713        addi x14 x0 0
    1f66c:        00000793        addi x15 x0 0
    1f670:        05000893        addi x17 x0 80
    1f674:        00000073        ecall
    1f678:        00050413        addi x8 x10 0
    1f67c:        02054463        blt x10 x0 40
    1f680:        00048513        addi x10 x9 0
    1f684:        00010593        addi x11 x2 0
    1f688:        200000ef        jal x1 512 <_conv_stat>
    1f68c:        00040513        addi x10 x8 0
    1f690:        08c12083        lw x1 140 x2
    1f694:        08812403        lw x8 136 x2
    1f698:        08412483        lw x9 132 x2
    1f69c:        09010113        addi x2 x2 144
    1f6a0:        00008067        jalr x0 x1 0
    1f6a4:        40800433        sub x8 x0 x8
    1f6a8:        284000ef        jal x1 644 <__errno>
    1f6ac:        00852023        sw x8 0 x10
    1f6b0:        fff00413        addi x8 x0 -1
    1f6b4:        fcdff06f        jal x0 -52

0001f6b8 <_isatty>:
    1f6b8:        f9010113        addi x2 x2 -112
    1f6bc:        00810593        addi x11 x2 8
    1f6c0:        06112623        sw x1 108 x2
    1f6c4:        f85ff0ef        jal x1 -124 <_fstat>
    1f6c8:        fff00793        addi x15 x0 -1
    1f6cc:        00f50e63        beq x10 x15 28
    1f6d0:        00c12503        lw x10 12 x2
    1f6d4:        06c12083        lw x1 108 x2
    1f6d8:        00d55513        srli x10 x10 13
    1f6dc:        00157513        andi x10 x10 1
    1f6e0:        07010113        addi x2 x2 112
    1f6e4:        00008067        jalr x0 x1 0
    1f6e8:        06c12083        lw x1 108 x2
    1f6ec:        00000513        addi x10 x0 0
    1f6f0:        07010113        addi x2 x2 112
    1f6f4:        00008067        jalr x0 x1 0

0001f6f8 <_lseek>:
    1f6f8:        ff010113        addi x2 x2 -16
    1f6fc:        00112623        sw x1 12 x2
    1f700:        00812423        sw x8 8 x2
    1f704:        00000693        addi x13 x0 0
    1f708:        00000713        addi x14 x0 0
    1f70c:        00000793        addi x15 x0 0
    1f710:        03e00893        addi x17 x0 62
    1f714:        00000073        ecall
    1f718:        00050413        addi x8 x10 0
    1f71c:        00054c63        blt x10 x0 24
    1f720:        00040513        addi x10 x8 0
    1f724:        00c12083        lw x1 12 x2
    1f728:        00812403        lw x8 8 x2
    1f72c:        01010113        addi x2 x2 16
    1f730:        00008067        jalr x0 x1 0
    1f734:        40800433        sub x8 x0 x8
    1f738:        1f4000ef        jal x1 500 <__errno>
    1f73c:        00852023        sw x8 0 x10
    1f740:        fff00413        addi x8 x0 -1
    1f744:        fddff06f        jal x0 -36

0001f748 <_read>:
    1f748:        ff010113        addi x2 x2 -16
    1f74c:        00112623        sw x1 12 x2
    1f750:        00812423        sw x8 8 x2
    1f754:        00000693        addi x13 x0 0
    1f758:        00000713        addi x14 x0 0
    1f75c:        00000793        addi x15 x0 0
    1f760:        03f00893        addi x17 x0 63
    1f764:        00000073        ecall
    1f768:        00050413        addi x8 x10 0
    1f76c:        00054c63        blt x10 x0 24
    1f770:        00040513        addi x10 x8 0
    1f774:        00c12083        lw x1 12 x2
    1f778:        00812403        lw x8 8 x2
    1f77c:        01010113        addi x2 x2 16
    1f780:        00008067        jalr x0 x1 0
    1f784:        40800433        sub x8 x0 x8
    1f788:        1a4000ef        jal x1 420 <__errno>
    1f78c:        00852023        sw x8 0 x10
    1f790:        fff00413        addi x8 x0 -1
    1f794:        fddff06f        jal x0 -36

0001f798 <_sbrk>:
    1f798:        1dc18313        addi x6 x3 476
    1f79c:        00032783        lw x15 0 x6
    1f7a0:        ff010113        addi x2 x2 -16
    1f7a4:        00112623        sw x1 12 x2
    1f7a8:        00050813        addi x16 x10 0
    1f7ac:        02079863        bne x15 x0 48
    1f7b0:        00000513        addi x10 x0 0
    1f7b4:        00000593        addi x11 x0 0
    1f7b8:        00000613        addi x12 x0 0
    1f7bc:        00000693        addi x13 x0 0
    1f7c0:        00000713        addi x14 x0 0
    1f7c4:        0d600893        addi x17 x0 214
    1f7c8:        00000073        ecall
    1f7cc:        fff00793        addi x15 x0 -1
    1f7d0:        04f50663        beq x10 x15 76
    1f7d4:        00050793        addi x15 x10 0
    1f7d8:        1ca1ae23        sw x10 476 x3
    1f7dc:        00f80533        add x10 x16 x15
    1f7e0:        00000593        addi x11 x0 0
    1f7e4:        00000613        addi x12 x0 0
    1f7e8:        00000693        addi x13 x0 0
    1f7ec:        00000713        addi x14 x0 0
    1f7f0:        00000793        addi x15 x0 0
    1f7f4:        0d600893        addi x17 x0 214
    1f7f8:        00000073        ecall
    1f7fc:        00032783        lw x15 0 x6
    1f800:        00f80833        add x16 x16 x15
    1f804:        01051c63        bne x10 x16 24
    1f808:        00c12083        lw x1 12 x2
    1f80c:        1ca1ae23        sw x10 476 x3
    1f810:        00078513        addi x10 x15 0
    1f814:        01010113        addi x2 x2 16
    1f818:        00008067        jalr x0 x1 0
    1f81c:        110000ef        jal x1 272 <__errno>
    1f820:        00c12083        lw x1 12 x2
    1f824:        00c00793        addi x15 x0 12
    1f828:        00f52023        sw x15 0 x10
    1f82c:        fff00513        addi x10 x0 -1
    1f830:        01010113        addi x2 x2 16
    1f834:        00008067        jalr x0 x1 0

0001f838 <_write>:
    1f838:        ff010113        addi x2 x2 -16
    1f83c:        00112623        sw x1 12 x2
    1f840:        00812423        sw x8 8 x2
    1f844:        00000693        addi x13 x0 0
    1f848:        00000713        addi x14 x0 0
    1f84c:        00000793        addi x15 x0 0
    1f850:        04000893        addi x17 x0 64
    1f854:        00000073        ecall
    1f858:        00050413        addi x8 x10 0
    1f85c:        00054c63        blt x10 x0 24
    1f860:        00040513        addi x10 x8 0
    1f864:        00c12083        lw x1 12 x2
    1f868:        00812403        lw x8 8 x2
    1f86c:        01010113        addi x2 x2 16
    1f870:        00008067        jalr x0 x1 0
    1f874:        40800433        sub x8 x0 x8
    1f878:        0b4000ef        jal x1 180 <__errno>
    1f87c:        00852023        sw x8 0 x10
    1f880:        fff00413        addi x8 x0 -1
    1f884:        fddff06f        jal x0 -36

0001f888 <_conv_stat>:
    1f888:        ff010113        addi x2 x2 -16
    1f88c:        0145a383        lw x7 20 x11
    1f890:        0185a283        lw x5 24 x11
    1f894:        01c5af83        lw x31 28 x11
    1f898:        0205af03        lw x30 32 x11
    1f89c:        0305ae83        lw x29 48 x11
    1f8a0:        0405ae03        lw x28 64 x11
    1f8a4:        0385a303        lw x6 56 x11
    1f8a8:        0485a803        lw x16 72 x11
    1f8ac:        04c5a883        lw x17 76 x11
    1f8b0:        0585a603        lw x12 88 x11
    1f8b4:        00812623        sw x8 12 x2
    1f8b8:        00912423        sw x9 8 x2
    1f8bc:        0105a403        lw x8 16 x11
    1f8c0:        0085a483        lw x9 8 x11
    1f8c4:        01212223        sw x18 4 x2
    1f8c8:        0005a903        lw x18 0 x11
    1f8cc:        05c5a683        lw x13 92 x11
    1f8d0:        0685a703        lw x14 104 x11
    1f8d4:        06c5a783        lw x15 108 x11
    1f8d8:        01251023        sh x18 0 x10
    1f8dc:        00951123        sh x9 2 x10
    1f8e0:        00852223        sw x8 4 x10
    1f8e4:        00751423        sh x7 8 x10
    1f8e8:        00551523        sh x5 10 x10
    1f8ec:        01f51623        sh x31 12 x10
    1f8f0:        01e51723        sh x30 14 x10
    1f8f4:        01d52823        sw x29 16 x10
    1f8f8:        05c52423        sw x28 72 x10
    1f8fc:        04652223        sw x6 68 x10
    1f900:        01052c23        sw x16 24 x10
    1f904:        01152e23        sw x17 28 x10
    1f908:        02c52423        sw x12 40 x10
    1f90c:        02d52623        sw x13 44 x10
    1f910:        00c12403        lw x8 12 x2
    1f914:        02e52c23        sw x14 56 x10
    1f918:        02f52e23        sw x15 60 x10
    1f91c:        00812483        lw x9 8 x2
    1f920:        00412903        lw x18 4 x2
    1f924:        01010113        addi x2 x2 16
    1f928:        00008067        jalr x0 x1 0

0001f92c <__errno>:
    1f92c:        1c018793        addi x15 x3 448
    1f930:        0007a503        lw x10 0 x15
    1f934:        00008067        jalr x0 x1 0

0001f938 <__udivdi3>:
    1f938:        00058793        addi x15 x11 0
    1f93c:        00060813        addi x16 x12 0
    1f940:        00068713        addi x14 x13 0
    1f944:        00050313        addi x6 x10 0
    1f948:        28069663        bne x13 x0 652
    1f94c:        00005897        auipc x17 0x5
    1f950:        18888893        addi x17 x17 392
    1f954:        0ec5f663        bgeu x11 x12 236
    1f958:        00010737        lui x14 0x10
    1f95c:        0ce67863        bgeu x12 x14 208
    1f960:        0ff00713        addi x14 x0 255
    1f964:        00c73733        sltu x14 x14 x12
    1f968:        00371713        slli x14 x14 3
    1f96c:        00e656b3        srl x13 x12 x14
    1f970:        00d888b3        add x17 x17 x13
    1f974:        0008c683        lbu x13 0 x17
    1f978:        00e68733        add x14 x13 x14
    1f97c:        02000693        addi x13 x0 32
    1f980:        40e686b3        sub x13 x13 x14
    1f984:        00068c63        beq x13 x0 24
    1f988:        00d797b3        sll x15 x15 x13
    1f98c:        00e55733        srl x14 x10 x14
    1f990:        00d61833        sll x16 x12 x13
    1f994:        00f765b3        or x11 x14 x15
    1f998:        00d51333        sll x6 x10 x13
    1f99c:        01085513        srli x10 x16 16
    1f9a0:        02a5f733        remu x14 x11 x10
    1f9a4:        01081613        slli x12 x16 16
    1f9a8:        01065613        srli x12 x12 16
    1f9ac:        01035693        srli x13 x6 16
    1f9b0:        02a5d5b3        divu x11 x11 x10
    1f9b4:        01071713        slli x14 x14 16
    1f9b8:        00d766b3        or x13 x14 x13
    1f9bc:        02b607b3        mul x15 x12 x11
    1f9c0:        00058713        addi x14 x11 0
    1f9c4:        00f6fe63        bgeu x13 x15 28
    1f9c8:        010686b3        add x13 x13 x16
    1f9cc:        fff58713        addi x14 x11 -1
    1f9d0:        0106e863        bltu x13 x16 16
    1f9d4:        00f6f663        bgeu x13 x15 12
    1f9d8:        ffe58713        addi x14 x11 -2
    1f9dc:        010686b3        add x13 x13 x16
    1f9e0:        40f686b3        sub x13 x13 x15
    1f9e4:        02a6f7b3        remu x15 x13 x10
    1f9e8:        01031313        slli x6 x6 16
    1f9ec:        01035313        srli x6 x6 16
    1f9f0:        02a6d6b3        divu x13 x13 x10
    1f9f4:        01079793        slli x15 x15 16
    1f9f8:        0067e333        or x6 x15 x6
    1f9fc:        02d605b3        mul x11 x12 x13
    1fa00:        00068513        addi x10 x13 0
    1fa04:        00b37c63        bgeu x6 x11 24
    1fa08:        00680333        add x6 x16 x6
    1fa0c:        fff68513        addi x10 x13 -1
    1fa10:        01036663        bltu x6 x16 12
    1fa14:        00b37463        bgeu x6 x11 8
    1fa18:        ffe68513        addi x10 x13 -2
    1fa1c:        01071713        slli x14 x14 16
    1fa20:        00a76733        or x14 x14 x10
    1fa24:        00000593        addi x11 x0 0
    1fa28:        0e40006f        jal x0 228
    1fa2c:        010006b7        lui x13 0x1000
    1fa30:        01000713        addi x14 x0 16
    1fa34:        f2d66ce3        bltu x12 x13 -200
    1fa38:        01800713        addi x14 x0 24
    1fa3c:        f31ff06f        jal x0 -208
    1fa40:        00061663        bne x12 x0 12
    1fa44:        00100693        addi x13 x0 1
    1fa48:        02c6d833        divu x16 x13 x12
    1fa4c:        000106b7        lui x13 0x10
    1fa50:        0cd87263        bgeu x16 x13 196
    1fa54:        0ff00693        addi x13 x0 255
    1fa58:        0106f463        bgeu x13 x16 8
    1fa5c:        00800713        addi x14 x0 8
    1fa60:        00e856b3        srl x13 x16 x14
    1fa64:        00d888b3        add x17 x17 x13
    1fa68:        0008c683        lbu x13 0 x17
    1fa6c:        00e686b3        add x13 x13 x14
    1fa70:        02000713        addi x14 x0 32
    1fa74:        40d70733        sub x14 x14 x13
    1fa78:        0a071863        bne x14 x0 176
    1fa7c:        410787b3        sub x15 x15 x16
    1fa80:        00100593        addi x11 x0 1
    1fa84:        01085613        srli x12 x16 16
    1fa88:        01081893        slli x17 x16 16
    1fa8c:        0108d893        srli x17 x17 16
    1fa90:        01035693        srli x13 x6 16
    1fa94:        02c7f733        remu x14 x15 x12
    1fa98:        02c7d7b3        divu x15 x15 x12
    1fa9c:        01071713        slli x14 x14 16
    1faa0:        00d766b3        or x13 x14 x13
    1faa4:        02f88533        mul x10 x17 x15
    1faa8:        00078713        addi x14 x15 0
    1faac:        00a6fe63        bgeu x13 x10 28
    1fab0:        010686b3        add x13 x13 x16
    1fab4:        fff78713        addi x14 x15 -1
    1fab8:        0106e863        bltu x13 x16 16
    1fabc:        00a6f663        bgeu x13 x10 12
    1fac0:        ffe78713        addi x14 x15 -2
    1fac4:        010686b3        add x13 x13 x16
    1fac8:        40a686b3        sub x13 x13 x10
    1facc:        02c6f7b3        remu x15 x13 x12
    1fad0:        01031313        slli x6 x6 16
    1fad4:        01035313        srli x6 x6 16
    1fad8:        02c6d6b3        divu x13 x13 x12
    1fadc:        01079793        slli x15 x15 16
    1fae0:        0067e333        or x6 x15 x6
    1fae4:        02d888b3        mul x17 x17 x13
    1fae8:        00068513        addi x10 x13 0
    1faec:        01137c63        bgeu x6 x17 24
    1faf0:        00680333        add x6 x16 x6
    1faf4:        fff68513        addi x10 x13 -1
    1faf8:        01036663        bltu x6 x16 12
    1fafc:        01137463        bgeu x6 x17 8
    1fb00:        ffe68513        addi x10 x13 -2
    1fb04:        01071713        slli x14 x14 16
    1fb08:        00a76733        or x14 x14 x10
    1fb0c:        00070513        addi x10 x14 0
    1fb10:        00008067        jalr x0 x1 0
    1fb14:        010006b7        lui x13 0x1000
    1fb18:        01000713        addi x14 x0 16
    1fb1c:        f4d862e3        bltu x16 x13 -188
    1fb20:        01800713        addi x14 x0 24
    1fb24:        f3dff06f        jal x0 -196
    1fb28:        00e81833        sll x16 x16 x14
    1fb2c:        00d7d5b3        srl x11 x15 x13
    1fb30:        00e51333        sll x6 x10 x14
    1fb34:        00d556b3        srl x13 x10 x13
    1fb38:        01085513        srli x10 x16 16
    1fb3c:        00e797b3        sll x15 x15 x14
    1fb40:        02a5f733        remu x14 x11 x10
    1fb44:        00f6e8b3        or x17 x13 x15
    1fb48:        01081793        slli x15 x16 16
    1fb4c:        0107d793        srli x15 x15 16
    1fb50:        0108d613        srli x12 x17 16
    1fb54:        02a5d5b3        divu x11 x11 x10
    1fb58:        01071713        slli x14 x14 16
    1fb5c:        00c76733        or x14 x14 x12
    1fb60:        02b786b3        mul x13 x15 x11
    1fb64:        00058613        addi x12 x11 0
    1fb68:        00d77e63        bgeu x14 x13 28
    1fb6c:        01070733        add x14 x14 x16
    1fb70:        fff58613        addi x12 x11 -1
    1fb74:        01076863        bltu x14 x16 16
    1fb78:        00d77663        bgeu x14 x13 12
    1fb7c:        ffe58613        addi x12 x11 -2
    1fb80:        01070733        add x14 x14 x16
    1fb84:        40d706b3        sub x13 x14 x13
    1fb88:        02a6f733        remu x14 x13 x10
    1fb8c:        01089893        slli x17 x17 16
    1fb90:        0108d893        srli x17 x17 16
    1fb94:        02a6d6b3        divu x13 x13 x10
    1fb98:        01071713        slli x14 x14 16
    1fb9c:        02d785b3        mul x11 x15 x13
    1fba0:        011767b3        or x15 x14 x17
    1fba4:        00068713        addi x14 x13 0
    1fba8:        00b7fe63        bgeu x15 x11 28
    1fbac:        010787b3        add x15 x15 x16
    1fbb0:        fff68713        addi x14 x13 -1
    1fbb4:        0107e863        bltu x15 x16 16
    1fbb8:        00b7f663        bgeu x15 x11 12
    1fbbc:        ffe68713        addi x14 x13 -2
    1fbc0:        010787b3        add x15 x15 x16
    1fbc4:        40b787b3        sub x15 x15 x11
    1fbc8:        01061593        slli x11 x12 16
    1fbcc:        00e5e5b3        or x11 x11 x14
    1fbd0:        eb5ff06f        jal x0 -332
    1fbd4:        18d5e663        bltu x11 x13 396
    1fbd8:        00010737        lui x14 0x10
    1fbdc:        04e6f463        bgeu x13 x14 72
    1fbe0:        0ff00813        addi x16 x0 255
    1fbe4:        00d83733        sltu x14 x16 x13
    1fbe8:        00371713        slli x14 x14 3
    1fbec:        00e6d833        srl x16 x13 x14
    1fbf0:        00005597        auipc x11 0x5
    1fbf4:        ee458593        addi x11 x11 -284
    1fbf8:        010585b3        add x11 x11 x16
    1fbfc:        0005c803        lbu x16 0 x11
    1fc00:        02000593        addi x11 x0 32
    1fc04:        00e80833        add x16 x16 x14
    1fc08:        410585b3        sub x11 x11 x16
    1fc0c:        02059663        bne x11 x0 44
    1fc10:        00100713        addi x14 x0 1
    1fc14:        eef6ece3        bltu x13 x15 -264
    1fc18:        00c53533        sltu x10 x10 x12
    1fc1c:        00154713        xori x14 x10 1
    1fc20:        eedff06f        jal x0 -276
    1fc24:        010005b7        lui x11 0x1000
    1fc28:        01000713        addi x14 x0 16
    1fc2c:        fcb6e0e3        bltu x13 x11 -64
    1fc30:        01800713        addi x14 x0 24
    1fc34:        fb9ff06f        jal x0 -72
    1fc38:        01065733        srl x14 x12 x16
    1fc3c:        00b696b3        sll x13 x13 x11
    1fc40:        00d766b3        or x13 x14 x13
    1fc44:        0106de93        srli x29 x13 16
    1fc48:        0107d733        srl x14 x15 x16
    1fc4c:        03d778b3        remu x17 x14 x29
    1fc50:        00b797b3        sll x15 x15 x11
    1fc54:        01055833        srl x16 x10 x16
    1fc58:        00f86333        or x6 x16 x15
    1fc5c:        01069793        slli x15 x13 16
    1fc60:        0107d793        srli x15 x15 16
    1fc64:        01035813        srli x16 x6 16
    1fc68:        00b61633        sll x12 x12 x11
    1fc6c:        03d75733        divu x14 x14 x29
    1fc70:        01089893        slli x17 x17 16
    1fc74:        0108e833        or x16 x17 x16
    1fc78:        02e78f33        mul x30 x15 x14
    1fc7c:        00070e13        addi x28 x14 0
    1fc80:        01e87e63        bgeu x16 x30 28
    1fc84:        00d80833        add x16 x16 x13
    1fc88:        fff70e13        addi x28 x14 -1
    1fc8c:        00d86863        bltu x16 x13 16
    1fc90:        01e87663        bgeu x16 x30 12
    1fc94:        ffe70e13        addi x28 x14 -2
    1fc98:        00d80833        add x16 x16 x13
    1fc9c:        41e80833        sub x16 x16 x30
    1fca0:        03d878b3        remu x17 x16 x29
    1fca4:        03d85833        divu x16 x16 x29
    1fca8:        01089893        slli x17 x17 16
    1fcac:        03078eb3        mul x29 x15 x16
    1fcb0:        01031793        slli x15 x6 16
    1fcb4:        0107d793        srli x15 x15 16
    1fcb8:        00f8e7b3        or x15 x17 x15
    1fcbc:        00080713        addi x14 x16 0
    1fcc0:        01d7fe63        bgeu x15 x29 28
    1fcc4:        00d787b3        add x15 x15 x13
    1fcc8:        fff80713        addi x14 x16 -1
    1fccc:        00d7e863        bltu x15 x13 16
    1fcd0:        01d7f663        bgeu x15 x29 12
    1fcd4:        ffe80713        addi x14 x16 -2
    1fcd8:        00d787b3        add x15 x15 x13
    1fcdc:        010e1e13        slli x28 x28 16
    1fce0:        41d787b3        sub x15 x15 x29
    1fce4:        00010eb7        lui x29 0x10
    1fce8:        00ee6733        or x14 x28 x14
    1fcec:        fffe8813        addi x16 x29 -1
    1fcf0:        01077333        and x6 x14 x16
    1fcf4:        01075893        srli x17 x14 16
    1fcf8:        01067833        and x16 x12 x16
    1fcfc:        01065613        srli x12 x12 16
    1fd00:        03030e33        mul x28 x6 x16
    1fd04:        03088833        mul x16 x17 x16
    1fd08:        010e5693        srli x13 x28 16
    1fd0c:        02c30333        mul x6 x6 x12
    1fd10:        01030333        add x6 x6 x16
    1fd14:        006686b3        add x13 x13 x6
    1fd18:        02c888b3        mul x17 x17 x12
    1fd1c:        0106f463        bgeu x13 x16 8
    1fd20:        01d888b3        add x17 x17 x29
    1fd24:        0106d613        srli x12 x13 16
    1fd28:        011608b3        add x17 x12 x17
    1fd2c:        0317e663        bltu x15 x17 44
    1fd30:        cf179ae3        bne x15 x17 -780
    1fd34:        000107b7        lui x15 0x10
    1fd38:        fff78793        addi x15 x15 -1
    1fd3c:        00f6f6b3        and x13 x13 x15
    1fd40:        01069693        slli x13 x13 16
    1fd44:        00fe7e33        and x28 x28 x15
    1fd48:        00b51533        sll x10 x10 x11
    1fd4c:        01c686b3        add x13 x13 x28
    1fd50:        00000593        addi x11 x0 0
    1fd54:        dad57ce3        bgeu x10 x13 -584
    1fd58:        fff70713        addi x14 x14 -1
    1fd5c:        cc9ff06f        jal x0 -824
    1fd60:        00000593        addi x11 x0 0
    1fd64:        00000713        addi x14 x0 0
    1fd68:        da5ff06f        jal x0 -604

0001fd6c <__umoddi3>:
    1fd6c:        00060893        addi x17 x12 0
    1fd70:        00068713        addi x14 x13 0
    1fd74:        00050793        addi x15 x10 0
    1fd78:        00058813        addi x16 x11 0
    1fd7c:        22069c63        bne x13 x0 568
    1fd80:        00005697        auipc x13 0x5
    1fd84:        d5468693        addi x13 x13 -684
    1fd88:        0cc5fc63        bgeu x11 x12 216
    1fd8c:        00010337        lui x6 0x10
    1fd90:        0a667e63        bgeu x12 x6 188
    1fd94:        0ff00313        addi x6 x0 255
    1fd98:        00c37463        bgeu x6 x12 8
    1fd9c:        00800713        addi x14 x0 8
    1fda0:        00e65333        srl x6 x12 x14
    1fda4:        006686b3        add x13 x13 x6
    1fda8:        0006ce03        lbu x28 0 x13
    1fdac:        02000313        addi x6 x0 32
    1fdb0:        00ee0e33        add x28 x28 x14
    1fdb4:        41c30333        sub x6 x6 x28
    1fdb8:        00030c63        beq x6 x0 24
    1fdbc:        006595b3        sll x11 x11 x6
    1fdc0:        01c55e33        srl x28 x10 x28
    1fdc4:        006618b3        sll x17 x12 x6
    1fdc8:        00be6833        or x16 x28 x11
    1fdcc:        006517b3        sll x15 x10 x6
    1fdd0:        0108d613        srli x12 x17 16
    1fdd4:        02c87733        remu x14 x16 x12
    1fdd8:        01089513        slli x10 x17 16
    1fddc:        01055513        srli x10 x10 16
    1fde0:        0107d693        srli x13 x15 16
    1fde4:        02c85833        divu x16 x16 x12
    1fde8:        01071713        slli x14 x14 16
    1fdec:        00d766b3        or x13 x14 x13
    1fdf0:        03050833        mul x16 x10 x16
    1fdf4:        0106fa63        bgeu x13 x16 20
    1fdf8:        011686b3        add x13 x13 x17
    1fdfc:        0116e663        bltu x13 x17 12
    1fe00:        0106f463        bgeu x13 x16 8
    1fe04:        011686b3        add x13 x13 x17
    1fe08:        410686b3        sub x13 x13 x16
    1fe0c:        02c6f733        remu x14 x13 x12
    1fe10:        01079793        slli x15 x15 16
    1fe14:        0107d793        srli x15 x15 16
    1fe18:        02c6d6b3        divu x13 x13 x12
    1fe1c:        02d506b3        mul x13 x10 x13
    1fe20:        01071513        slli x10 x14 16
    1fe24:        00f567b3        or x15 x10 x15
    1fe28:        00d7fa63        bgeu x15 x13 20
    1fe2c:        011787b3        add x15 x15 x17
    1fe30:        0117e663        bltu x15 x17 12
    1fe34:        00d7f463        bgeu x15 x13 8
    1fe38:        011787b3        add x15 x15 x17
    1fe3c:        40d787b3        sub x15 x15 x13
    1fe40:        0067d533        srl x10 x15 x6
    1fe44:        00000593        addi x11 x0 0
    1fe48:        00008067        jalr x0 x1 0
    1fe4c:        01000337        lui x6 0x1000
    1fe50:        01000713        addi x14 x0 16
    1fe54:        f46666e3        bltu x12 x6 -180
    1fe58:        01800713        addi x14 x0 24
    1fe5c:        f45ff06f        jal x0 -188
    1fe60:        00061663        bne x12 x0 12
    1fe64:        00100613        addi x12 x0 1
    1fe68:        031658b3        divu x17 x12 x17
    1fe6c:        00010637        lui x12 0x10
    1fe70:        0ac8f263        bgeu x17 x12 164
    1fe74:        0ff00613        addi x12 x0 255
    1fe78:        01167463        bgeu x12 x17 8
    1fe7c:        00800713        addi x14 x0 8
    1fe80:        00e8d633        srl x12 x17 x14
    1fe84:        00c686b3        add x13 x13 x12
    1fe88:        0006ce03        lbu x28 0 x13
    1fe8c:        02000313        addi x6 x0 32
    1fe90:        00ee0e33        add x28 x28 x14
    1fe94:        41c30333        sub x6 x6 x28
    1fe98:        08031863        bne x6 x0 144
    1fe9c:        411585b3        sub x11 x11 x17
    1fea0:        0108d713        srli x14 x17 16
    1fea4:        01089513        slli x10 x17 16
    1fea8:        01055513        srli x10 x10 16
    1feac:        0107d613        srli x12 x15 16
    1feb0:        02e5f6b3        remu x13 x11 x14
    1feb4:        02e5d5b3        divu x11 x11 x14
    1feb8:        01069693        slli x13 x13 16
    1febc:        00c6e6b3        or x13 x13 x12
    1fec0:        02b505b3        mul x11 x10 x11
    1fec4:        00b6fa63        bgeu x13 x11 20
    1fec8:        011686b3        add x13 x13 x17
    1fecc:        0116e663        bltu x13 x17 12
    1fed0:        00b6f463        bgeu x13 x11 8
    1fed4:        011686b3        add x13 x13 x17
    1fed8:        40b685b3        sub x11 x13 x11
    1fedc:        02e5f6b3        remu x13 x11 x14
    1fee0:        01079793        slli x15 x15 16
    1fee4:        0107d793        srli x15 x15 16
    1fee8:        02e5d5b3        divu x11 x11 x14
    1feec:        02b505b3        mul x11 x10 x11
    1fef0:        01069513        slli x10 x13 16
    1fef4:        00f567b3        or x15 x10 x15
    1fef8:        00b7fa63        bgeu x15 x11 20
    1fefc:        011787b3        add x15 x15 x17
    1ff00:        0117e663        bltu x15 x17 12
    1ff04:        00b7f463        bgeu x15 x11 8
    1ff08:        011787b3        add x15 x15 x17
    1ff0c:        40b787b3        sub x15 x15 x11
    1ff10:        f31ff06f        jal x0 -208
    1ff14:        01000637        lui x12 0x1000
    1ff18:        01000713        addi x14 x0 16
    1ff1c:        f6c8e2e3        bltu x17 x12 -156
    1ff20:        01800713        addi x14 x0 24
    1ff24:        f5dff06f        jal x0 -164
    1ff28:        006898b3        sll x17 x17 x6
    1ff2c:        01c5d733        srl x14 x11 x28
    1ff30:        006517b3        sll x15 x10 x6
    1ff34:        01c55e33        srl x28 x10 x28
    1ff38:        0108d513        srli x10 x17 16
    1ff3c:        02a776b3        remu x13 x14 x10
    1ff40:        006595b3        sll x11 x11 x6
    1ff44:        00be6e33        or x28 x28 x11
    1ff48:        01089593        slli x11 x17 16
    1ff4c:        0105d593        srli x11 x11 16
    1ff50:        010e5613        srli x12 x28 16
    1ff54:        02a75733        divu x14 x14 x10
    1ff58:        01069693        slli x13 x13 16
    1ff5c:        00c6e6b3        or x13 x13 x12
    1ff60:        02e58733        mul x14 x11 x14
    1ff64:        00e6fa63        bgeu x13 x14 20
    1ff68:        011686b3        add x13 x13 x17
    1ff6c:        0116e663        bltu x13 x17 12
    1ff70:        00e6f463        bgeu x13 x14 8
    1ff74:        011686b3        add x13 x13 x17
    1ff78:        40e68633        sub x12 x13 x14
    1ff7c:        02a676b3        remu x13 x12 x10
    1ff80:        010e1e13        slli x28 x28 16
    1ff84:        010e5e13        srli x28 x28 16
    1ff88:        02a65633        divu x12 x12 x10
    1ff8c:        01069693        slli x13 x13 16
    1ff90:        02c58633        mul x12 x11 x12
    1ff94:        01c6e5b3        or x11 x13 x28
    1ff98:        00c5fa63        bgeu x11 x12 20
    1ff9c:        011585b3        add x11 x11 x17
    1ffa0:        0115e663        bltu x11 x17 12
    1ffa4:        00c5f463        bgeu x11 x12 8
    1ffa8:        011585b3        add x11 x11 x17
    1ffac:        40c585b3        sub x11 x11 x12
    1ffb0:        ef1ff06f        jal x0 -272
    1ffb4:        e8d5eae3        bltu x11 x13 -364
    1ffb8:        00010737        lui x14 0x10
    1ffbc:        04e6fc63        bgeu x13 x14 88
    1ffc0:        0ff00e93        addi x29 x0 255
    1ffc4:        00deb733        sltu x14 x29 x13
    1ffc8:        00371713        slli x14 x14 3
    1ffcc:        00e6d333        srl x6 x13 x14
    1ffd0:        00005897        auipc x17 0x5
    1ffd4:        b0488893        addi x17 x17 -1276
    1ffd8:        006888b3        add x17 x17 x6
    1ffdc:        0008ce83        lbu x29 0 x17
    1ffe0:        02000e13        addi x28 x0 32
    1ffe4:        00ee8eb3        add x29 x29 x14
    1ffe8:        41de0e33        sub x28 x28 x29
    1ffec:        020e1e63        bne x28 x0 60
    1fff0:        00b6e463        bltu x13 x11 8
    1fff4:        00c56a63        bltu x10 x12 20
    1fff8:        40c507b3        sub x15 x10 x12
    1fffc:        40d585b3        sub x11 x11 x13
    20000:        00f53533        sltu x10 x10 x15
    20004:        40a58833        sub x16 x11 x10
    20008:        00078513        addi x10 x15 0
    2000c:        00080593        addi x11 x16 0
    20010:        e39ff06f        jal x0 -456
    20014:        010008b7        lui x17 0x1000
    20018:        01000713        addi x14 x0 16
    2001c:        fb16e8e3        bltu x13 x17 -80
    20020:        01800713        addi x14 x0 24
    20024:        fa9ff06f        jal x0 -88
    20028:        01d65733        srl x14 x12 x29
    2002c:        01c696b3        sll x13 x13 x28
    20030:        00d766b3        or x13 x14 x13
    20034:        0106d813        srli x16 x13 16
    20038:        01d5d733        srl x14 x11 x29
    2003c:        03077333        remu x6 x14 x16
    20040:        01c595b3        sll x11 x11 x28
    20044:        01d557b3        srl x15 x10 x29
    20048:        00b7e7b3        or x15 x15 x11
    2004c:        01069593        slli x11 x13 16
    20050:        0105d593        srli x11 x11 16
    20054:        0107d893        srli x17 x15 16
    20058:        01c61633        sll x12 x12 x28
    2005c:        01c51533        sll x10 x10 x28
    20060:        03075733        divu x14 x14 x16
    20064:        01031313        slli x6 x6 16
    20068:        011368b3        or x17 x6 x17
    2006c:        02e58f33        mul x30 x11 x14
    20070:        00070313        addi x6 x14 0
    20074:        01e8fe63        bgeu x17 x30 28
    20078:        00d888b3        add x17 x17 x13
    2007c:        fff70313        addi x6 x14 -1
    20080:        00d8e863        bltu x17 x13 16
    20084:        01e8f663        bgeu x17 x30 12
    20088:        ffe70313        addi x6 x14 -2
    2008c:        00d888b3        add x17 x17 x13
    20090:        41e888b3        sub x17 x17 x30
    20094:        0308ff33        remu x30 x17 x16
    20098:        0308d8b3        divu x17 x17 x16
    2009c:        010f1f13        slli x30 x30 16
    200a0:        03158833        mul x16 x11 x17
    200a4:        01079593        slli x11 x15 16
    200a8:        0105d593        srli x11 x11 16
    200ac:        00bf65b3        or x11 x30 x11
    200b0:        00088793        addi x15 x17 0
    200b4:        0105fe63        bgeu x11 x16 28
    200b8:        00d585b3        add x11 x11 x13
    200bc:        fff88793        addi x15 x17 -1
    200c0:        00d5e863        bltu x11 x13 16
    200c4:        0105f663        bgeu x11 x16 12
    200c8:        ffe88793        addi x15 x17 -2
    200cc:        00d585b3        add x11 x11 x13
    200d0:        01031313        slli x6 x6 16
    200d4:        00010f37        lui x30 0x10
    200d8:        00f36333        or x6 x6 x15
    200dc:        ffff0793        addi x15 x30 -1
    200e0:        00f378b3        and x17 x6 x15
    200e4:        410585b3        sub x11 x11 x16
    200e8:        01035313        srli x6 x6 16
    200ec:        01065813        srli x16 x12 16
    200f0:        00f677b3        and x15 x12 x15
    200f4:        02f88733        mul x14 x17 x15
    200f8:        02f307b3        mul x15 x6 x15
    200fc:        030888b3        mul x17 x17 x16
    20100:        03030333        mul x6 x6 x16
    20104:        00f888b3        add x17 x17 x15
    20108:        01075813        srli x16 x14 16
    2010c:        01180833        add x16 x16 x17
    20110:        00f87463        bgeu x16 x15 8
    20114:        01e30333        add x6 x6 x30
    20118:        01085793        srli x15 x16 16
    2011c:        00678333        add x6 x15 x6
    20120:        000107b7        lui x15 0x10
    20124:        fff78793        addi x15 x15 -1
    20128:        00f87833        and x16 x16 x15
    2012c:        01081813        slli x16 x16 16
    20130:        00f77733        and x14 x14 x15
    20134:        00e80733        add x14 x16 x14
    20138:        0065e663        bltu x11 x6 12
    2013c:        00659e63        bne x11 x6 28
    20140:        00e57c63        bgeu x10 x14 24
    20144:        40c70633        sub x12 x14 x12
    20148:        00c73733        sltu x14 x14 x12
    2014c:        00d70733        add x14 x14 x13
    20150:        40e30333        sub x6 x6 x14
    20154:        00060713        addi x14 x12 0
    20158:        40e50733        sub x14 x10 x14
    2015c:        00e53533        sltu x10 x10 x14
    20160:        406585b3        sub x11 x11 x6
    20164:        40a585b3        sub x11 x11 x10
    20168:        01d597b3        sll x15 x11 x29
    2016c:        01c75733        srl x14 x14 x28
    20170:        00e7e533        or x10 x15 x14
    20174:        01c5d5b3        srl x11 x11 x28
    20178:        cd1ff06f        jal x0 -816

0002017c <__divdf3>:
    2017c:        fd010113        addi x2 x2 -48
    20180:        0145d813        srli x16 x11 20
    20184:        02912223        sw x9 36 x2
    20188:        01312e23        sw x19 28 x2
    2018c:        01412c23        sw x20 24 x2
    20190:        01612823        sw x22 16 x2
    20194:        01712623        sw x23 12 x2
    20198:        00c59493        slli x9 x11 12
    2019c:        02112623        sw x1 44 x2
    201a0:        02812423        sw x8 40 x2
    201a4:        03212023        sw x18 32 x2
    201a8:        01512a23        sw x21 20 x2
    201ac:        7ff87813        andi x16 x16 2047
    201b0:        00050b13        addi x22 x10 0
    201b4:        00060b93        addi x23 x12 0
    201b8:        00068a13        addi x20 x13 0
    201bc:        00c4d493        srli x9 x9 12
    201c0:        01f5d993        srli x19 x11 31
    201c4:        0a080263        beq x16 x0 164
    201c8:        7ff00793        addi x15 x0 2047
    201cc:        10f80063        beq x16 x15 256
    201d0:        01d55a93        srli x21 x10 29
    201d4:        00349493        slli x9 x9 3
    201d8:        009ae4b3        or x9 x21 x9
    201dc:        00800ab7        lui x21 0x800
    201e0:        0154eab3        or x21 x9 x21
    201e4:        00351413        slli x8 x10 3
    201e8:        c0180913        addi x18 x16 -1023
    201ec:        00000b13        addi x22 x0 0
    201f0:        014a5513        srli x10 x20 20
    201f4:        00ca1493        slli x9 x20 12
    201f8:        7ff57813        andi x16 x10 2047
    201fc:        00c4d493        srli x9 x9 12
    20200:        01fa5a13        srli x20 x20 31
    20204:        10080263        beq x16 x0 260
    20208:        7ff00793        addi x15 x0 2047
    2020c:        16f80263        beq x16 x15 356
    20210:        00349513        slli x10 x9 3
    20214:        01dbd793        srli x15 x23 29
    20218:        00a7e533        or x10 x15 x10
    2021c:        008004b7        lui x9 0x800
    20220:        009564b3        or x9 x10 x9
    20224:        003b9f13        slli x30 x23 3
    20228:        c0180513        addi x10 x16 -1023
    2022c:        00000793        addi x15 x0 0
    20230:        002b1713        slli x14 x22 2
    20234:        00f76733        or x14 x14 x15
    20238:        fff70713        addi x14 x14 -1
    2023c:        00e00693        addi x13 x0 14
    20240:        0149c633        xor x12 x19 x20
    20244:        40a90833        sub x16 x18 x10
    20248:        16e6e063        bltu x13 x14 352
    2024c:        00004697        auipc x13 0x4
    20250:        7d468693        addi x13 x13 2004
    20254:        00271713        slli x14 x14 2
    20258:        00d70733        add x14 x14 x13
    2025c:        00072703        lw x14 0 x14
    20260:        00d70733        add x14 x14 x13
    20264:        00070067        jalr x0 x14 0
    20268:        00a4eab3        or x21 x9 x10
    2026c:        060a8e63        beq x21 x0 124
    20270:        04048063        beq x9 x0 64
    20274:        00048513        addi x10 x9 0
    20278:        425030ef        jal x1 15396 <__clzsi2>
    2027c:        ff550793        addi x15 x10 -11
    20280:        01c00713        addi x14 x0 28
    20284:        02f74c63        blt x14 x15 56
    20288:        01d00a93        addi x21 x0 29
    2028c:        ff850413        addi x8 x10 -8
    20290:        40fa8ab3        sub x21 x21 x15
    20294:        008494b3        sll x9 x9 x8
    20298:        015b5ab3        srl x21 x22 x21
    2029c:        009aeab3        or x21 x21 x9
    202a0:        008b1433        sll x8 x22 x8
    202a4:        c0d00813        addi x16 x0 -1011
    202a8:        40a80933        sub x18 x16 x10
    202ac:        f41ff06f        jal x0 -192
    202b0:        3ed030ef        jal x1 15340 <__clzsi2>
    202b4:        02050513        addi x10 x10 32
    202b8:        fc5ff06f        jal x0 -60
    202bc:        fd850493        addi x9 x10 -40
    202c0:        009b1ab3        sll x21 x22 x9
    202c4:        00000413        addi x8 x0 0
    202c8:        fddff06f        jal x0 -36
    202cc:        00a4eab3        or x21 x9 x10
    202d0:        020a8463        beq x21 x0 40
    202d4:        00050413        addi x8 x10 0
    202d8:        00048a93        addi x21 x9 0
    202dc:        7ff00913        addi x18 x0 2047
    202e0:        00300b13        addi x22 x0 3
    202e4:        f0dff06f        jal x0 -244
    202e8:        00000413        addi x8 x0 0
    202ec:        00000913        addi x18 x0 0
    202f0:        00100b13        addi x22 x0 1
    202f4:        efdff06f        jal x0 -260
    202f8:        00000413        addi x8 x0 0
    202fc:        7ff00913        addi x18 x0 2047
    20300:        00200b13        addi x22 x0 2
    20304:        eedff06f        jal x0 -276
    20308:        0174ef33        or x30 x9 x23
    2030c:        060f0e63        beq x30 x0 124
    20310:        04048063        beq x9 x0 64
    20314:        00048513        addi x10 x9 0
    20318:        385030ef        jal x1 15236 <__clzsi2>
    2031c:        ff550793        addi x15 x10 -11
    20320:        01c00713        addi x14 x0 28
    20324:        02f74e63        blt x14 x15 60
    20328:        01d00713        addi x14 x0 29
    2032c:        ff850f13        addi x30 x10 -8
    20330:        40f70733        sub x14 x14 x15
    20334:        01e494b3        sll x9 x9 x30
    20338:        00ebd733        srl x14 x23 x14
    2033c:        009764b3        or x9 x14 x9
    20340:        01eb9f33        sll x30 x23 x30
    20344:        c0d00613        addi x12 x0 -1011
    20348:        40a60533        sub x10 x12 x10
    2034c:        ee1ff06f        jal x0 -288
    20350:        000b8513        addi x10 x23 0
    20354:        349030ef        jal x1 15176 <__clzsi2>
    20358:        02050513        addi x10 x10 32
    2035c:        fc1ff06f        jal x0 -64
    20360:        fd850493        addi x9 x10 -40
    20364:        009b94b3        sll x9 x23 x9
    20368:        00000f13        addi x30 x0 0
    2036c:        fd9ff06f        jal x0 -40
    20370:        0174ef33        or x30 x9 x23
    20374:        020f0263        beq x30 x0 36
    20378:        000b8f13        addi x30 x23 0
    2037c:        7ff00513        addi x10 x0 2047
    20380:        00300793        addi x15 x0 3
    20384:        eadff06f        jal x0 -340
    20388:        00000493        addi x9 x0 0
    2038c:        00000513        addi x10 x0 0
    20390:        00100793        addi x15 x0 1
    20394:        e9dff06f        jal x0 -356
    20398:        00000493        addi x9 x0 0
    2039c:        7ff00513        addi x10 x0 2047
    203a0:        00200793        addi x15 x0 2
    203a4:        e8dff06f        jal x0 -372
    203a8:        0154e663        bltu x9 x21 12
    203ac:        349a9863        bne x21 x9 848
    203b0:        35e46663        bltu x8 x30 844
    203b4:        01fa9693        slli x13 x21 31
    203b8:        00145713        srli x14 x8 1
    203bc:        01f41793        slli x15 x8 31
    203c0:        001ada93        srli x21 x21 1
    203c4:        00e6e433        or x8 x13 x14
    203c8:        00849513        slli x10 x9 8
    203cc:        018f5493        srli x9 x30 24
    203d0:        00a4e533        or x10 x9 x10
    203d4:        01055e13        srli x28 x10 16
    203d8:        03cad8b3        divu x17 x21 x28
    203dc:        01051313        slli x6 x10 16
    203e0:        01035313        srli x6 x6 16
    203e4:        01045713        srli x14 x8 16
    203e8:        008f1593        slli x11 x30 8
    203ec:        03caf4b3        remu x9 x21 x28
    203f0:        00088f93        addi x31 x17 0
    203f4:        031306b3        mul x13 x6 x17
    203f8:        01049a93        slli x21 x9 16
    203fc:        01576733        or x14 x14 x21
    20400:        00d77e63        bgeu x14 x13 28
    20404:        00a70733        add x14 x14 x10
    20408:        fff88f93        addi x31 x17 -1
    2040c:        00a76863        bltu x14 x10 16
    20410:        00d77663        bgeu x14 x13 12
    20414:        ffe88f93        addi x31 x17 -2
    20418:        00a70733        add x14 x14 x10
    2041c:        40d70733        sub x14 x14 x13
    20420:        03c75eb3        divu x29 x14 x28
    20424:        01041413        slli x8 x8 16
    20428:        01045413        srli x8 x8 16
    2042c:        03c77733        remu x14 x14 x28
    20430:        000e8693        addi x13 x29 0
    20434:        03d308b3        mul x17 x6 x29
    20438:        01071713        slli x14 x14 16
    2043c:        00e46733        or x14 x8 x14
    20440:        01177e63        bgeu x14 x17 28
    20444:        00a70733        add x14 x14 x10
    20448:        fffe8693        addi x13 x29 -1
    2044c:        00a76863        bltu x14 x10 16
    20450:        01177663        bgeu x14 x17 12
    20454:        ffee8693        addi x13 x29 -2
    20458:        00a70733        add x14 x14 x10
    2045c:        010f9f93        slli x31 x31 16
    20460:        00dfefb3        or x31 x31 x13
    20464:        000106b7        lui x13 0x10
    20468:        41170433        sub x8 x14 x17
    2046c:        fff68893        addi x17 x13 -1
    20470:        010fdf13        srli x30 x31 16
    20474:        011ff733        and x14 x31 x17
    20478:        0105de93        srli x29 x11 16
    2047c:        0115f8b3        and x17 x11 x17
    20480:        031703b3        mul x7 x14 x17
    20484:        031f04b3        mul x9 x30 x17
    20488:        02ee8733        mul x14 x29 x14
    2048c:        03df02b3        mul x5 x30 x29
    20490:        00970f33        add x30 x14 x9
    20494:        0103d713        srli x14 x7 16
    20498:        01e70733        add x14 x14 x30
    2049c:        00977463        bgeu x14 x9 8
    204a0:        00d282b3        add x5 x5 x13
    204a4:        01075f13        srli x30 x14 16
    204a8:        005f0f33        add x30 x30 x5
    204ac:        000102b7        lui x5 0x10
    204b0:        fff28293        addi x5 x5 -1
    204b4:        005776b3        and x13 x14 x5
    204b8:        01069693        slli x13 x13 16
    204bc:        0053f3b3        and x7 x7 x5
    204c0:        007686b3        add x13 x13 x7
    204c4:        01e46863        bltu x8 x30 16
    204c8:        000f8493        addi x9 x31 0
    204cc:        05e41463        bne x8 x30 72
    204d0:        04d7f263        bgeu x15 x13 68
    204d4:        00b787b3        add x15 x15 x11
    204d8:        00b7b733        sltu x14 x15 x11
    204dc:        00a70733        add x14 x14 x10
    204e0:        00e40433        add x8 x8 x14
    204e4:        ffff8493        addi x9 x31 -1
    204e8:        00856663        bltu x10 x8 12
    204ec:        02851463        bne x10 x8 40
    204f0:        02b7e263        bltu x15 x11 36
    204f4:        01e46663        bltu x8 x30 12
    204f8:        008f1e63        bne x30 x8 28
    204fc:        00d7fc63        bgeu x15 x13 24
    20500:        00b787b3        add x15 x15 x11
    20504:        00b7b733        sltu x14 x15 x11
    20508:        00a70733        add x14 x14 x10
    2050c:        ffef8493        addi x9 x31 -2
    20510:        00e40433        add x8 x8 x14
    20514:        40d786b3        sub x13 x15 x13
    20518:        41e40433        sub x8 x8 x30
    2051c:        00d7b7b3        sltu x15 x15 x13
    20520:        40f40433        sub x8 x8 x15
    20524:        fff00f13        addi x30 x0 -1
    20528:        12850463        beq x10 x8 296
    2052c:        03c45f33        divu x30 x8 x28
    20530:        0106d713        srli x14 x13 16
    20534:        03c47433        remu x8 x8 x28
    20538:        03e307b3        mul x15 x6 x30
    2053c:        01041413        slli x8 x8 16
    20540:        00876433        or x8 x14 x8
    20544:        000f0713        addi x14 x30 0
    20548:        00f47e63        bgeu x8 x15 28
    2054c:        00a40433        add x8 x8 x10
    20550:        ffff0713        addi x14 x30 -1
    20554:        00a46863        bltu x8 x10 16
    20558:        00f47663        bgeu x8 x15 12
    2055c:        ffef0713        addi x14 x30 -2
    20560:        00a40433        add x8 x8 x10
    20564:        40f40433        sub x8 x8 x15
    20568:        03c45f33        divu x30 x8 x28
    2056c:        01069693        slli x13 x13 16
    20570:        0106d693        srli x13 x13 16
    20574:        03c47433        remu x8 x8 x28
    20578:        000f0793        addi x15 x30 0
    2057c:        03e30333        mul x6 x6 x30
    20580:        01041413        slli x8 x8 16
    20584:        0086e433        or x8 x13 x8
    20588:        00647e63        bgeu x8 x6 28
    2058c:        00a40433        add x8 x8 x10
    20590:        ffff0793        addi x15 x30 -1
    20594:        00a46863        bltu x8 x10 16
    20598:        00647663        bgeu x8 x6 12
    2059c:        ffef0793        addi x15 x30 -2
    205a0:        00a40433        add x8 x8 x10
    205a4:        01071713        slli x14 x14 16
    205a8:        00f76733        or x14 x14 x15
    205ac:        01071793        slli x15 x14 16
    205b0:        0107d793        srli x15 x15 16
    205b4:        40640433        sub x8 x8 x6
    205b8:        01075313        srli x6 x14 16
    205bc:        03178e33        mul x28 x15 x17
    205c0:        031308b3        mul x17 x6 x17
    205c4:        026e8333        mul x6 x29 x6
    205c8:        02fe8eb3        mul x29 x29 x15
    205cc:        010e5793        srli x15 x28 16
    205d0:        011e8eb3        add x29 x29 x17
    205d4:        01d787b3        add x15 x15 x29
    205d8:        0117f663        bgeu x15 x17 12
    205dc:        000106b7        lui x13 0x10
    205e0:        00d30333        add x6 x6 x13
    205e4:        0107d893        srli x17 x15 16
    205e8:        006888b3        add x17 x17 x6
    205ec:        00010337        lui x6 0x10
    205f0:        fff30313        addi x6 x6 -1
    205f4:        0067f6b3        and x13 x15 x6
    205f8:        01069693        slli x13 x13 16
    205fc:        006e7e33        and x28 x28 x6
    20600:        01c686b3        add x13 x13 x28
    20604:        01146863        bltu x8 x17 16
    20608:        23141c63        bne x8 x17 568
    2060c:        00070f13        addi x30 x14 0
    20610:        04068063        beq x13 x0 64
    20614:        00850433        add x8 x10 x8
    20618:        fff70f13        addi x30 x14 -1
    2061c:        02a46463        bltu x8 x10 40
    20620:        01146663        bltu x8 x17 12
    20624:        21141c63        bne x8 x17 536
    20628:        02d5f063        bgeu x11 x13 32
    2062c:        00159793        slli x15 x11 1
    20630:        00b7b5b3        sltu x11 x15 x11
    20634:        00a58533        add x10 x11 x10
    20638:        ffe70f13        addi x30 x14 -2
    2063c:        00a40433        add x8 x8 x10
    20640:        00078593        addi x11 x15 0
    20644:        01141463        bne x8 x17 8
    20648:        00b68463        beq x13 x11 8
    2064c:        001f6f13        ori x30 x30 1
    20650:        3ff80713        addi x14 x16 1023
    20654:        10e05263        bge x0 x14 260
    20658:        007f7793        andi x15 x30 7
    2065c:        02078063        beq x15 x0 32
    20660:        00ff7793        andi x15 x30 15
    20664:        00400693        addi x13 x0 4
    20668:        00d78a63        beq x15 x13 20
    2066c:        004f0693        addi x13 x30 4
    20670:        01e6bf33        sltu x30 x13 x30
    20674:        01e484b3        add x9 x9 x30
    20678:        00068f13        addi x30 x13 0
    2067c:        00749793        slli x15 x9 7
    20680:        0007da63        bge x15 x0 20
    20684:        ff0007b7        lui x15 0xff000
    20688:        fff78793        addi x15 x15 -1
    2068c:        00f4f4b3        and x9 x9 x15
    20690:        40080713        addi x14 x16 1024
    20694:        7fe00793        addi x15 x0 2046
    20698:        18e7c263        blt x15 x14 388
    2069c:        003f5f13        srli x30 x30 3
    206a0:        01d49793        slli x15 x9 29
    206a4:        01e7e7b3        or x15 x15 x30
    206a8:        0034d513        srli x10 x9 3
    206ac:        00c51513        slli x10 x10 12
    206b0:        7ff77713        andi x14 x14 2047
    206b4:        01471713        slli x14 x14 20
    206b8:        02c12083        lw x1 44 x2
    206bc:        02812403        lw x8 40 x2
    206c0:        00c55513        srli x10 x10 12
    206c4:        00e56533        or x10 x10 x14
    206c8:        01f61613        slli x12 x12 31
    206cc:        00c56733        or x14 x10 x12
    206d0:        02412483        lw x9 36 x2
    206d4:        02012903        lw x18 32 x2
    206d8:        01c12983        lw x19 28 x2
    206dc:        01812a03        lw x20 24 x2
    206e0:        01412a83        lw x21 20 x2
    206e4:        01012b03        lw x22 16 x2
    206e8:        00c12b83        lw x23 12 x2
    206ec:        00078513        addi x10 x15 0
    206f0:        00070593        addi x11 x14 0
    206f4:        03010113        addi x2 x2 48
    206f8:        00008067        jalr x0 x1 0
    206fc:        fff80813        addi x16 x16 -1
    20700:        00000793        addi x15 x0 0
    20704:        cc5ff06f        jal x0 -828
    20708:        00098613        addi x12 x19 0
    2070c:        000a8493        addi x9 x21 0
    20710:        00040f13        addi x30 x8 0
    20714:        000b0793        addi x15 x22 0
    20718:        00200713        addi x14 x0 2
    2071c:        10e78063        beq x15 x14 256
    20720:        00300713        addi x14 x0 3
    20724:        0ee78263        beq x15 x14 228
    20728:        00100713        addi x14 x0 1
    2072c:        f2e792e3        bne x15 x14 -220
    20730:        00000513        addi x10 x0 0
    20734:        00000793        addi x15 x0 0
    20738:        0940006f        jal x0 148
    2073c:        000a0613        addi x12 x20 0
    20740:        fd9ff06f        jal x0 -40
    20744:        000804b7        lui x9 0x80
    20748:        00000f13        addi x30 x0 0
    2074c:        00000613        addi x12 x0 0
    20750:        00300793        addi x15 x0 3
    20754:        fc5ff06f        jal x0 -60
    20758:        00100513        addi x10 x0 1
    2075c:        40e50533        sub x10 x10 x14
    20760:        03800793        addi x15 x0 56
    20764:        fca7c6e3        blt x15 x10 -52
    20768:        01f00793        addi x15 x0 31
    2076c:        06a7c463        blt x15 x10 104
    20770:        41e80813        addi x16 x16 1054
    20774:        010497b3        sll x15 x9 x16
    20778:        00af5733        srl x14 x30 x10
    2077c:        010f1833        sll x16 x30 x16
    20780:        00e7e7b3        or x15 x15 x14
    20784:        01003833        sltu x16 x0 x16
    20788:        0107e7b3        or x15 x15 x16
    2078c:        00a4d533        srl x10 x9 x10
    20790:        0077f713        andi x14 x15 7
    20794:        02070063        beq x14 x0 32
    20798:        00f7f713        andi x14 x15 15
    2079c:        00400693        addi x13 x0 4
    207a0:        00d70a63        beq x14 x13 20
    207a4:        00478713        addi x14 x15 4
    207a8:        00f737b3        sltu x15 x14 x15
    207ac:        00f50533        add x10 x10 x15
    207b0:        00070793        addi x15 x14 0
    207b4:        00851713        slli x14 x10 8
    207b8:        06074a63        blt x14 x0 116
    207bc:        01d51713        slli x14 x10 29
    207c0:        0037d793        srli x15 x15 3
    207c4:        00f767b3        or x15 x14 x15
    207c8:        00355513        srli x10 x10 3
    207cc:        00000713        addi x14 x0 0
    207d0:        eddff06f        jal x0 -292
    207d4:        fe100793        addi x15 x0 -31
    207d8:        40e787b3        sub x15 x15 x14
    207dc:        02000693        addi x13 x0 32
    207e0:        00f4d7b3        srl x15 x9 x15
    207e4:        00000713        addi x14 x0 0
    207e8:        00d50663        beq x10 x13 12
    207ec:        43e80813        addi x16 x16 1086
    207f0:        01049733        sll x14 x9 x16
    207f4:        01e76f33        or x30 x14 x30
    207f8:        01e03f33        sltu x30 x0 x30
    207fc:        01e7e7b3        or x15 x15 x30
    20800:        00000513        addi x10 x0 0
    20804:        f8dff06f        jal x0 -116
    20808:        00080537        lui x10 0x80
    2080c:        00000793        addi x15 x0 0
    20810:        7ff00713        addi x14 x0 2047
    20814:        00000613        addi x12 x0 0
    20818:        e95ff06f        jal x0 -364
    2081c:        00000513        addi x10 x0 0
    20820:        00000793        addi x15 x0 0
    20824:        7ff00713        addi x14 x0 2047
    20828:        e85ff06f        jal x0 -380
    2082c:        00000513        addi x10 x0 0
    20830:        00000793        addi x15 x0 0
    20834:        00100713        addi x14 x0 1
    20838:        e75ff06f        jal x0 -396
    2083c:        000f0713        addi x14 x30 0
    20840:        00070f13        addi x30 x14 0
    20844:        e09ff06f        jal x0 -504

00020848 <__muldf3>:
    20848:        fd010113        addi x2 x2 -48
    2084c:        01312e23        sw x19 28 x2
    20850:        0145d993        srli x19 x11 20
    20854:        02812423        sw x8 40 x2
    20858:        02912223        sw x9 36 x2
    2085c:        01412c23        sw x20 24 x2
    20860:        01512a23        sw x21 20 x2
    20864:        01612823        sw x22 16 x2
    20868:        00c59493        slli x9 x11 12
    2086c:        02112623        sw x1 44 x2
    20870:        03212023        sw x18 32 x2
    20874:        01712623        sw x23 12 x2
    20878:        7ff9f993        andi x19 x19 2047
    2087c:        00050413        addi x8 x10 0
    20880:        00060b13        addi x22 x12 0
    20884:        00068a93        addi x21 x13 0
    20888:        00c4d493        srli x9 x9 12
    2088c:        01f5da13        srli x20 x11 31
    20890:        0a098463        beq x19 x0 168
    20894:        7ff00793        addi x15 x0 2047
    20898:        10f98263        beq x19 x15 260
    2089c:        01d55793        srli x15 x10 29
    208a0:        00349493        slli x9 x9 3
    208a4:        0097e4b3        or x9 x15 x9
    208a8:        008007b7        lui x15 0x800
    208ac:        00f4e4b3        or x9 x9 x15
    208b0:        00351913        slli x18 x10 3
    208b4:        c0198993        addi x19 x19 -1023
    208b8:        00000b93        addi x23 x0 0
    208bc:        014ad513        srli x10 x21 20
    208c0:        00ca9413        slli x8 x21 12
    208c4:        7ff57513        andi x10 x10 2047
    208c8:        00c45413        srli x8 x8 12
    208cc:        01fada93        srli x21 x21 31
    208d0:        10050263        beq x10 x0 260
    208d4:        7ff00793        addi x15 x0 2047
    208d8:        16f50263        beq x10 x15 356
    208dc:        01db5793        srli x15 x22 29
    208e0:        00341413        slli x8 x8 3
    208e4:        0087e433        or x8 x15 x8
    208e8:        008007b7        lui x15 0x800
    208ec:        00f46433        or x8 x8 x15
    208f0:        c0150513        addi x10 x10 -1023
    208f4:        003b1793        slli x15 x22 3
    208f8:        00000713        addi x14 x0 0
    208fc:        002b9693        slli x13 x23 2
    20900:        00e6e6b3        or x13 x13 x14
    20904:        00a98533        add x10 x19 x10
    20908:        fff68693        addi x13 x13 -1
    2090c:        00e00593        addi x11 x0 14
    20910:        015a4633        xor x12 x20 x21
    20914:        00150813        addi x16 x10 1
    20918:        14d5ee63        bltu x11 x13 348
    2091c:        00004597        auipc x11 0x4
    20920:        14058593        addi x11 x11 320
    20924:        00269693        slli x13 x13 2
    20928:        00b686b3        add x13 x13 x11
    2092c:        0006a683        lw x13 0 x13
    20930:        00b686b3        add x13 x13 x11
    20934:        00068067        jalr x0 x13 0
    20938:        00a4e933        or x18 x9 x10
    2093c:        06090c63        beq x18 x0 120
    20940:        04048063        beq x9 x0 64
    20944:        00048513        addi x10 x9 0
    20948:        554030ef        jal x1 13652 <__clzsi2>
    2094c:        ff550713        addi x14 x10 -11
    20950:        01c00793        addi x15 x0 28
    20954:        02e7cc63        blt x15 x14 56
    20958:        01d00793        addi x15 x0 29
    2095c:        ff850913        addi x18 x10 -8
    20960:        40e787b3        sub x15 x15 x14
    20964:        012494b3        sll x9 x9 x18
    20968:        00f457b3        srl x15 x8 x15
    2096c:        0097e4b3        or x9 x15 x9
    20970:        01241933        sll x18 x8 x18
    20974:        c0d00993        addi x19 x0 -1011
    20978:        40a989b3        sub x19 x19 x10
    2097c:        f3dff06f        jal x0 -196
    20980:        51c030ef        jal x1 13596 <__clzsi2>
    20984:        02050513        addi x10 x10 32
    20988:        fc5ff06f        jal x0 -60
    2098c:        fd850493        addi x9 x10 -40
    20990:        009414b3        sll x9 x8 x9
    20994:        00000913        addi x18 x0 0
    20998:        fddff06f        jal x0 -36
    2099c:        00a4e933        or x18 x9 x10
    209a0:        02090263        beq x18 x0 36
    209a4:        00050913        addi x18 x10 0
    209a8:        7ff00993        addi x19 x0 2047
    209ac:        00300b93        addi x23 x0 3
    209b0:        f0dff06f        jal x0 -244
    209b4:        00000493        addi x9 x0 0
    209b8:        00000993        addi x19 x0 0
    209bc:        00100b93        addi x23 x0 1
    209c0:        efdff06f        jal x0 -260
    209c4:        00000493        addi x9 x0 0
    209c8:        7ff00993        addi x19 x0 2047
    209cc:        00200b93        addi x23 x0 2
    209d0:        eedff06f        jal x0 -276
    209d4:        016467b3        or x15 x8 x22
    209d8:        06078e63        beq x15 x0 124
    209dc:        04040063        beq x8 x0 64
    209e0:        00040513        addi x10 x8 0
    209e4:        4b8030ef        jal x1 13496 <__clzsi2>
    209e8:        ff550693        addi x13 x10 -11
    209ec:        01c00793        addi x15 x0 28
    209f0:        02d7ce63        blt x15 x13 60
    209f4:        01d00713        addi x14 x0 29
    209f8:        ff850793        addi x15 x10 -8
    209fc:        40d70733        sub x14 x14 x13
    20a00:        00f41433        sll x8 x8 x15
    20a04:        00eb5733        srl x14 x22 x14
    20a08:        00876433        or x8 x14 x8
    20a0c:        00fb17b3        sll x15 x22 x15
    20a10:        c0d00713        addi x14 x0 -1011
    20a14:        40a70533        sub x10 x14 x10
    20a18:        ee1ff06f        jal x0 -288
    20a1c:        000b0513        addi x10 x22 0
    20a20:        47c030ef        jal x1 13436 <__clzsi2>
    20a24:        02050513        addi x10 x10 32
    20a28:        fc1ff06f        jal x0 -64
    20a2c:        fd850413        addi x8 x10 -40
    20a30:        008b1433        sll x8 x22 x8
    20a34:        00000793        addi x15 x0 0
    20a38:        fd9ff06f        jal x0 -40
    20a3c:        016467b3        or x15 x8 x22
    20a40:        02078263        beq x15 x0 36
    20a44:        000b0793        addi x15 x22 0
    20a48:        7ff00513        addi x10 x0 2047
    20a4c:        00300713        addi x14 x0 3
    20a50:        eadff06f        jal x0 -340
    20a54:        00000413        addi x8 x0 0
    20a58:        00000513        addi x10 x0 0
    20a5c:        00100713        addi x14 x0 1
    20a60:        e9dff06f        jal x0 -356
    20a64:        00000413        addi x8 x0 0
    20a68:        7ff00513        addi x10 x0 2047
    20a6c:        00200713        addi x14 x0 2
    20a70:        e8dff06f        jal x0 -372
    20a74:        00010f37        lui x30 0x10
    20a78:        ffff0e93        addi x29 x30 -1
    20a7c:        01095713        srli x14 x18 16
    20a80:        0107d893        srli x17 x15 16
    20a84:        01d97933        and x18 x18 x29
    20a88:        01d7f7b3        and x15 x15 x29
    20a8c:        032885b3        mul x11 x17 x18
    20a90:        032786b3        mul x13 x15 x18
    20a94:        02f70fb3        mul x31 x14 x15
    20a98:        01f58333        add x6 x11 x31
    20a9c:        0106d593        srli x11 x13 16
    20aa0:        006585b3        add x11 x11 x6
    20aa4:        03170e33        mul x28 x14 x17
    20aa8:        01f5f463        bgeu x11 x31 8
    20aac:        01ee0e33        add x28 x28 x30
    20ab0:        0105d393        srli x7 x11 16
    20ab4:        01d5f5b3        and x11 x11 x29
    20ab8:        01d6f6b3        and x13 x13 x29
    20abc:        01045f13        srli x30 x8 16
    20ac0:        01d472b3        and x5 x8 x29
    20ac4:        01059593        slli x11 x11 16
    20ac8:        00d585b3        add x11 x11 x13
    20acc:        02570eb3        mul x29 x14 x5
    20ad0:        032286b3        mul x13 x5 x18
    20ad4:        032f0933        mul x18 x30 x18
    20ad8:        01d90333        add x6 x18 x29
    20adc:        0106d913        srli x18 x13 16
    20ae0:        00690933        add x18 x18 x6
    20ae4:        03e70733        mul x14 x14 x30
    20ae8:        01d97663        bgeu x18 x29 12
    20aec:        00010337        lui x6 0x10
    20af0:        00670733        add x14 x14 x6
    20af4:        01095e93        srli x29 x18 16
    20af8:        000109b7        lui x19 0x10
    20afc:        00ee8eb3        add x29 x29 x14
    20b00:        fff98713        addi x14 x19 -1
    20b04:        00e97933        and x18 x18 x14
    20b08:        00e6f6b3        and x13 x13 x14
    20b0c:        0104d413        srli x8 x9 16
    20b10:        01091913        slli x18 x18 16
    20b14:        00e4f4b3        and x9 x9 x14
    20b18:        00d90933        add x18 x18 x13
    20b1c:        02978733        mul x14 x15 x9
    20b20:        012383b3        add x7 x7 x18
    20b24:        02f40333        mul x6 x8 x15
    20b28:        029886b3        mul x13 x17 x9
    20b2c:        028887b3        mul x15 x17 x8
    20b30:        006688b3        add x17 x13 x6
    20b34:        01075693        srli x13 x14 16
    20b38:        011686b3        add x13 x13 x17
    20b3c:        0066f463        bgeu x13 x6 8
    20b40:        013787b3        add x15 x15 x19
    20b44:        0106d893        srli x17 x13 16
    20b48:        000109b7        lui x19 0x10
    20b4c:        00f88fb3        add x31 x17 x15
    20b50:        fff98793        addi x15 x19 -1
    20b54:        00f6f6b3        and x13 x13 x15
    20b58:        00f77733        and x14 x14 x15
    20b5c:        029288b3        mul x17 x5 x9
    20b60:        01069693        slli x13 x13 16
    20b64:        00e686b3        add x13 x13 x14
    20b68:        025407b3        mul x15 x8 x5
    20b6c:        029f04b3        mul x9 x30 x9
    20b70:        028f0333        mul x6 x30 x8
    20b74:        00f484b3        add x9 x9 x15
    20b78:        0108d413        srli x8 x17 16
    20b7c:        009404b3        add x9 x8 x9
    20b80:        00f4f463        bgeu x9 x15 8
    20b84:        01330333        add x6 x6 x19
    20b88:        000107b7        lui x15 0x10
    20b8c:        fff78793        addi x15 x15 -1
    20b90:        00f4f733        and x14 x9 x15
    20b94:        00f8f8b3        and x17 x17 x15
    20b98:        01071713        slli x14 x14 16
    20b9c:        007e0e33        add x28 x28 x7
    20ba0:        01170733        add x14 x14 x17
    20ba4:        012e3933        sltu x18 x28 x18
    20ba8:        01d70733        add x14 x14 x29
    20bac:        01270433        add x8 x14 x18
    20bb0:        00de0e33        add x28 x28 x13
    20bb4:        00de36b3        sltu x13 x28 x13
    20bb8:        01f408b3        add x17 x8 x31
    20bbc:        00d88f33        add x30 x17 x13
    20bc0:        01d73733        sltu x14 x14 x29
    20bc4:        01243433        sltu x8 x8 x18
    20bc8:        00876433        or x8 x14 x8
    20bcc:        0104d493        srli x9 x9 16
    20bd0:        01f8b8b3        sltu x17 x17 x31
    20bd4:        00df36b3        sltu x13 x30 x13
    20bd8:        00940433        add x8 x8 x9
    20bdc:        00d8e6b3        or x13 x17 x13
    20be0:        00d40433        add x8 x8 x13
    20be4:        00640433        add x8 x8 x6
    20be8:        017f5793        srli x15 x30 23
    20bec:        00941413        slli x8 x8 9
    20bf0:        00f46433        or x8 x8 x15
    20bf4:        009e1793        slli x15 x28 9
    20bf8:        00b7e7b3        or x15 x15 x11
    20bfc:        00f037b3        sltu x15 x0 x15
    20c00:        017e5e13        srli x28 x28 23
    20c04:        009f1713        slli x14 x30 9
    20c08:        01c7e7b3        or x15 x15 x28
    20c0c:        00e7e7b3        or x15 x15 x14
    20c10:        00741713        slli x14 x8 7
    20c14:        10075263        bge x14 x0 260
    20c18:        0017d713        srli x14 x15 1
    20c1c:        0017f793        andi x15 x15 1
    20c20:        00f767b3        or x15 x14 x15
    20c24:        01f41713        slli x14 x8 31
    20c28:        00e7e7b3        or x15 x15 x14
    20c2c:        00145413        srli x8 x8 1
    20c30:        3ff80693        addi x13 x16 1023
    20c34:        0ed05663        bge x0 x13 236
    20c38:        0077f713        andi x14 x15 7
    20c3c:        02070063        beq x14 x0 32
    20c40:        00f7f713        andi x14 x15 15
    20c44:        00400593        addi x11 x0 4
    20c48:        00b70a63        beq x14 x11 20
    20c4c:        00478713        addi x14 x15 4
    20c50:        00f737b3        sltu x15 x14 x15
    20c54:        00f40433        add x8 x8 x15
    20c58:        00070793        addi x15 x14 0
    20c5c:        00741713        slli x14 x8 7
    20c60:        00075a63        bge x14 x0 20
    20c64:        ff000737        lui x14 0xff000
    20c68:        fff70713        addi x14 x14 -1
    20c6c:        00e47433        and x8 x8 x14
    20c70:        40080693        addi x13 x16 1024
    20c74:        7fe00713        addi x14 x0 2046
    20c78:        16d74663        blt x14 x13 364
    20c7c:        0037d713        srli x14 x15 3
    20c80:        01d41793        slli x15 x8 29
    20c84:        00e7e7b3        or x15 x15 x14
    20c88:        00345413        srli x8 x8 3
    20c8c:        00c41413        slli x8 x8 12
    20c90:        7ff6f713        andi x14 x13 2047
    20c94:        01471713        slli x14 x14 20
    20c98:        00c45413        srli x8 x8 12
    20c9c:        00e46433        or x8 x8 x14
    20ca0:        01f61613        slli x12 x12 31
    20ca4:        00c46733        or x14 x8 x12
    20ca8:        02c12083        lw x1 44 x2
    20cac:        02812403        lw x8 40 x2
    20cb0:        02412483        lw x9 36 x2
    20cb4:        02012903        lw x18 32 x2
    20cb8:        01c12983        lw x19 28 x2
    20cbc:        01812a03        lw x20 24 x2
    20cc0:        01412a83        lw x21 20 x2
    20cc4:        01012b03        lw x22 16 x2
    20cc8:        00c12b83        lw x23 12 x2
    20ccc:        00078513        addi x10 x15 0
    20cd0:        00070593        addi x11 x14 0
    20cd4:        03010113        addi x2 x2 48
    20cd8:        00008067        jalr x0 x1 0
    20cdc:        000a0613        addi x12 x20 0
    20ce0:        00048413        addi x8 x9 0
    20ce4:        00090793        addi x15 x18 0
    20ce8:        000b8713        addi x14 x23 0
    20cec:        00200693        addi x13 x0 2
    20cf0:        0ed70a63        beq x14 x13 244
    20cf4:        00300693        addi x13 x0 3
    20cf8:        0cd70c63        beq x14 x13 216
    20cfc:        00100693        addi x13 x0 1
    20d00:        f2d718e3        bne x14 x13 -208
    20d04:        00000413        addi x8 x0 0
    20d08:        00000793        addi x15 x0 0
    20d0c:        0880006f        jal x0 136
    20d10:        000a8613        addi x12 x21 0
    20d14:        fd9ff06f        jal x0 -40
    20d18:        00050813        addi x16 x10 0
    20d1c:        f15ff06f        jal x0 -236
    20d20:        00100593        addi x11 x0 1
    20d24:        40d585b3        sub x11 x11 x13
    20d28:        03800713        addi x14 x0 56
    20d2c:        fcb74ce3        blt x14 x11 -40
    20d30:        01f00713        addi x14 x0 31
    20d34:        06b74463        blt x14 x11 104
    20d38:        41e80813        addi x16 x16 1054
    20d3c:        01041733        sll x14 x8 x16
    20d40:        00b7d6b3        srl x13 x15 x11
    20d44:        010797b3        sll x15 x15 x16
    20d48:        00d76733        or x14 x14 x13
    20d4c:        00f037b3        sltu x15 x0 x15
    20d50:        00f767b3        or x15 x14 x15
    20d54:        00b45433        srl x8 x8 x11
    20d58:        0077f713        andi x14 x15 7
    20d5c:        02070063        beq x14 x0 32
    20d60:        00f7f713        andi x14 x15 15
    20d64:        00400693        addi x13 x0 4
    20d68:        00d70a63        beq x14 x13 20
    20d6c:        00478713        addi x14 x15 4
    20d70:        00f737b3        sltu x15 x14 x15
    20d74:        00f40433        add x8 x8 x15
    20d78:        00070793        addi x15 x14 0
    20d7c:        00841713        slli x14 x8 8
    20d80:        06074a63        blt x14 x0 116
    20d84:        01d41713        slli x14 x8 29
    20d88:        0037d793        srli x15 x15 3
    20d8c:        00f767b3        or x15 x14 x15
    20d90:        00345413        srli x8 x8 3
    20d94:        00000693        addi x13 x0 0
    20d98:        ef5ff06f        jal x0 -268
    20d9c:        fe100713        addi x14 x0 -31
    20da0:        40d70733        sub x14 x14 x13
    20da4:        02000513        addi x10 x0 32
    20da8:        00e45733        srl x14 x8 x14
    20dac:        00000693        addi x13 x0 0
    20db0:        00a58663        beq x11 x10 12
    20db4:        43e80813        addi x16 x16 1086
    20db8:        010416b3        sll x13 x8 x16
    20dbc:        00f6e7b3        or x15 x13 x15
    20dc0:        00f037b3        sltu x15 x0 x15
    20dc4:        00f767b3        or x15 x14 x15
    20dc8:        00000413        addi x8 x0 0
    20dcc:        f8dff06f        jal x0 -116
    20dd0:        00080437        lui x8 0x80
    20dd4:        00000793        addi x15 x0 0
    20dd8:        7ff00693        addi x13 x0 2047
    20ddc:        00000613        addi x12 x0 0
    20de0:        eadff06f        jal x0 -340
    20de4:        00000413        addi x8 x0 0
    20de8:        00000793        addi x15 x0 0
    20dec:        7ff00693        addi x13 x0 2047
    20df0:        e9dff06f        jal x0 -356
    20df4:        00000413        addi x8 x0 0
    20df8:        00000793        addi x15 x0 0
    20dfc:        00100693        addi x13 x0 1
    20e00:        e8dff06f        jal x0 -372

00020e04 <__netf2>:
    20e04:        00c52783        lw x15 12 x10
    20e08:        0005af03        lw x30 0 x11
    20e0c:        0045af83        lw x31 4 x11
    20e10:        0085a283        lw x5 8 x11
    20e14:        00c5a583        lw x11 12 x11
    20e18:        00008737        lui x14 0x8
    20e1c:        0107d693        srli x13 x15 16
    20e20:        fff70713        addi x14 x14 -1
    20e24:        01079813        slli x16 x15 16
    20e28:        01059e93        slli x29 x11 16
    20e2c:        01f7d613        srli x12 x15 31
    20e30:        00e6f6b3        and x13 x13 x14
    20e34:        0105d793        srli x15 x11 16
    20e38:        ff010113        addi x2 x2 -16
    20e3c:        00052883        lw x17 0 x10
    20e40:        00452303        lw x6 4 x10
    20e44:        00852e03        lw x28 8 x10
    20e48:        01085813        srli x16 x16 16
    20e4c:        010ede93        srli x29 x29 16
    20e50:        00e7f7b3        and x15 x15 x14
    20e54:        01f5d593        srli x11 x11 31
    20e58:        02e69063        bne x13 x14 32
    20e5c:        0068e733        or x14 x17 x6
    20e60:        01c76733        or x14 x14 x28
    20e64:        01076733        or x14 x14 x16
    20e68:        00100513        addi x10 x0 1
    20e6c:        04071a63        bne x14 x0 84
    20e70:        04d79863        bne x15 x13 80
    20e74:        0080006f        jal x0 8
    20e78:        00e79c63        bne x15 x14 24
    20e7c:        01ff6733        or x14 x30 x31
    20e80:        00576733        or x14 x14 x5
    20e84:        01d76733        or x14 x14 x29
    20e88:        00100513        addi x10 x0 1
    20e8c:        02071a63        bne x14 x0 52
    20e90:        00100513        addi x10 x0 1
    20e94:        02d79663        bne x15 x13 44
    20e98:        03e89463        bne x17 x30 40
    20e9c:        03f31263        bne x6 x31 36
    20ea0:        025e1063        bne x28 x5 32
    20ea4:        01d81e63        bne x16 x29 28
    20ea8:        02b60063        beq x12 x11 32
    20eac:        00079a63        bne x15 x0 20
    20eb0:        0068e533        or x10 x17 x6
    20eb4:        01c56533        or x10 x10 x28
    20eb8:        01056533        or x10 x10 x16
    20ebc:        00a03533        sltu x10 x0 x10
    20ec0:        01010113        addi x2 x2 16
    20ec4:        00008067        jalr x0 x1 0
    20ec8:        00000513        addi x10 x0 0
    20ecc:        ff5ff06f        jal x0 -12

00020ed0 <__gttf2>:
    20ed0:        00052f83        lw x31 0 x10
    20ed4:        00452803        lw x16 4 x10
    20ed8:        00852e03        lw x28 8 x10
    20edc:        00c52503        lw x10 12 x10
    20ee0:        00c5a603        lw x12 12 x11
    20ee4:        000087b7        lui x15 0x8
    20ee8:        01055693        srli x13 x10 16
    20eec:        fff78793        addi x15 x15 -1
    20ef0:        01061313        slli x6 x12 16
    20ef4:        01065713        srli x14 x12 16
    20ef8:        0005a283        lw x5 0 x11
    20efc:        0045a883        lw x17 4 x11
    20f00:        0085ae83        lw x29 8 x11
    20f04:        00f6f6b3        and x13 x13 x15
    20f08:        01051593        slli x11 x10 16
    20f0c:        ff010113        addi x2 x2 -16
    20f10:        0105d593        srli x11 x11 16
    20f14:        01f55513        srli x10 x10 31
    20f18:        01035313        srli x6 x6 16
    20f1c:        00f77733        and x14 x14 x15
    20f20:        01f65613        srli x12 x12 31
    20f24:        00f69e63        bne x13 x15 28
    20f28:        01f867b3        or x15 x16 x31
    20f2c:        01c7e7b3        or x15 x15 x28
    20f30:        00b7e7b3        or x15 x15 x11
    20f34:        0c078863        beq x15 x0 208
    20f38:        ffe00513        addi x10 x0 -2
    20f3c:        0600006f        jal x0 96
    20f40:        00f71a63        bne x14 x15 20
    20f44:        0058e7b3        or x15 x17 x5
    20f48:        01d7e7b3        or x15 x15 x29
    20f4c:        0067e7b3        or x15 x15 x6
    20f50:        fe0794e3        bne x15 x0 -24
    20f54:        0a069a63        bne x13 x0 180
    20f58:        01f867b3        or x15 x16 x31
    20f5c:        01c7e7b3        or x15 x15 x28
    20f60:        00b7e7b3        or x15 x15 x11
    20f64:        0017b793        sltiu x15 x15 1
    20f68:        00071a63        bne x14 x0 20
    20f6c:        0058ef33        or x30 x17 x5
    20f70:        01df6f33        or x30 x30 x29
    20f74:        006f6f33        or x30 x30 x6
    20f78:        060f0a63        beq x30 x0 116
    20f7c:        00079a63        bne x15 x0 20
    20f80:        02c50263        beq x10 x12 36
    20f84:        06050063        beq x10 x0 96
    20f88:        fff00513        addi x10 x0 -1
    20f8c:        0100006f        jal x0 16
    20f90:        fff00513        addi x10 x0 -1
    20f94:        00060463        beq x12 x0 8
    20f98:        00060513        addi x10 x12 0
    20f9c:        01010113        addi x2 x2 16
    20fa0:        00008067        jalr x0 x1 0
    20fa4:        fed740e3        blt x14 x13 -32
    20fa8:        00e6d663        bge x13 x14 12
    20fac:        fe0518e3        bne x10 x0 -16
    20fb0:        fd9ff06f        jal x0 -40
    20fb4:        fcb368e3        bltu x6 x11 -48
    20fb8:        02659e63        bne x11 x6 60
    20fbc:        fdcee4e3        bltu x29 x28 -56
    20fc0:        03ce9e63        bne x29 x28 60
    20fc4:        fd08e0e3        bltu x17 x16 -64
    20fc8:        01089463        bne x17 x16 8
    20fcc:        fbf2ece3        bltu x5 x31 -72
    20fd0:        fd186ee3        bltu x16 x17 -36
    20fd4:        01089463        bne x17 x16 8
    20fd8:        fc5feae3        bltu x31 x5 -44
    20fdc:        00000513        addi x10 x0 0
    20fe0:        fbdff06f        jal x0 -68
    20fe4:        00100513        addi x10 x0 1
    20fe8:        fb5ff06f        jal x0 -76
    20fec:        fe0798e3        bne x15 x0 -16
    20ff0:        f95ff06f        jal x0 -108
    20ff4:        fa65ece3        bltu x11 x6 -72
    20ff8:        fe5ff06f        jal x0 -28
    20ffc:        fbde68e3        bltu x28 x29 -80
    21000:        fddff06f        jal x0 -36
    21004:        f4d700e3        beq x14 x13 -192
    21008:        f6071ce3        bne x14 x0 -136
    2100c:        00000793        addi x15 x0 0
    21010:        f5dff06f        jal x0 -164

00021014 <__lttf2>:
    21014:        00052f83        lw x31 0 x10
    21018:        00452803        lw x16 4 x10
    2101c:        00852e03        lw x28 8 x10
    21020:        00c52503        lw x10 12 x10
    21024:        00c5a603        lw x12 12 x11
    21028:        000087b7        lui x15 0x8
    2102c:        01055693        srli x13 x10 16
    21030:        fff78793        addi x15 x15 -1
    21034:        01061313        slli x6 x12 16
    21038:        01065713        srli x14 x12 16
    2103c:        0005a283        lw x5 0 x11
    21040:        0045a883        lw x17 4 x11
    21044:        0085ae83        lw x29 8 x11
    21048:        00f6f6b3        and x13 x13 x15
    2104c:        01051593        slli x11 x10 16
    21050:        ff010113        addi x2 x2 -16
    21054:        0105d593        srli x11 x11 16
    21058:        01f55513        srli x10 x10 31
    2105c:        01035313        srli x6 x6 16
    21060:        00f77733        and x14 x14 x15
    21064:        01f65613        srli x12 x12 31
    21068:        00f69e63        bne x13 x15 28
    2106c:        01f867b3        or x15 x16 x31
    21070:        01c7e7b3        or x15 x15 x28
    21074:        00b7e7b3        or x15 x15 x11
    21078:        0c078863        beq x15 x0 208
    2107c:        00200513        addi x10 x0 2
    21080:        0600006f        jal x0 96
    21084:        00f71a63        bne x14 x15 20
    21088:        0058e7b3        or x15 x17 x5
    2108c:        01d7e7b3        or x15 x15 x29
    21090:        0067e7b3        or x15 x15 x6
    21094:        fe0794e3        bne x15 x0 -24
    21098:        0a069a63        bne x13 x0 180
    2109c:        01f867b3        or x15 x16 x31
    210a0:        01c7e7b3        or x15 x15 x28
    210a4:        00b7e7b3        or x15 x15 x11
    210a8:        0017b793        sltiu x15 x15 1
    210ac:        00071a63        bne x14 x0 20
    210b0:        0058ef33        or x30 x17 x5
    210b4:        01df6f33        or x30 x30 x29
    210b8:        006f6f33        or x30 x30 x6
    210bc:        060f0a63        beq x30 x0 116
    210c0:        00079a63        bne x15 x0 20
    210c4:        02c50263        beq x10 x12 36
    210c8:        06050063        beq x10 x0 96
    210cc:        fff00513        addi x10 x0 -1
    210d0:        0100006f        jal x0 16
    210d4:        fff00513        addi x10 x0 -1
    210d8:        00060463        beq x12 x0 8
    210dc:        00060513        addi x10 x12 0
    210e0:        01010113        addi x2 x2 16
    210e4:        00008067        jalr x0 x1 0
    210e8:        fed740e3        blt x14 x13 -32
    210ec:        00e6d663        bge x13 x14 12
    210f0:        fe0518e3        bne x10 x0 -16
    210f4:        fd9ff06f        jal x0 -40
    210f8:        fcb368e3        bltu x6 x11 -48
    210fc:        02659e63        bne x11 x6 60
    21100:        fdcee4e3        bltu x29 x28 -56
    21104:        03ce9e63        bne x29 x28 60
    21108:        fd08e0e3        bltu x17 x16 -64
    2110c:        01089463        bne x17 x16 8
    21110:        fbf2ece3        bltu x5 x31 -72
    21114:        fd186ee3        bltu x16 x17 -36
    21118:        01089463        bne x17 x16 8
    2111c:        fc5feae3        bltu x31 x5 -44
    21120:        00000513        addi x10 x0 0
    21124:        fbdff06f        jal x0 -68
    21128:        00100513        addi x10 x0 1
    2112c:        fb5ff06f        jal x0 -76
    21130:        fe0798e3        bne x15 x0 -16
    21134:        f95ff06f        jal x0 -108
    21138:        fa65ece3        bltu x11 x6 -72
    2113c:        fe5ff06f        jal x0 -28
    21140:        fbde68e3        bltu x28 x29 -80
    21144:        fddff06f        jal x0 -36
    21148:        f4d700e3        beq x14 x13 -192
    2114c:        f6071ce3        bne x14 x0 -136
    21150:        00000793        addi x15 x0 0
    21154:        f5dff06f        jal x0 -164

00021158 <__multf3>:
    21158:        f4010113        addi x2 x2 -192
    2115c:        0b312623        sw x19 172 x2
    21160:        00c5a983        lw x19 12 x11
    21164:        0005a683        lw x13 0 x11
    21168:        0045a783        lw x15 4 x11
    2116c:        00a12623        sw x10 12 x2
    21170:        0085a503        lw x10 8 x11
    21174:        01099713        slli x14 x19 16
    21178:        0b212823        sw x18 176 x2
    2117c:        0b412423        sw x20 168 x2
    21180:        0b512223        sw x21 164 x2
    21184:        0b612023        sw x22 160 x2
    21188:        00062a03        lw x20 0 x12
    2118c:        00462b03        lw x22 4 x12
    21190:        00862a83        lw x21 8 x12
    21194:        00c62903        lw x18 12 x12
    21198:        00008637        lui x12 0x8
    2119c:        0a912a23        sw x9 180 x2
    211a0:        01075713        srli x14 x14 16
    211a4:        0109d493        srli x9 x19 16
    211a8:        fff60613        addi x12 x12 -1
    211ac:        07312623        sw x19 108 x2
    211b0:        0a112e23        sw x1 188 x2
    211b4:        0a812c23        sw x8 184 x2
    211b8:        09712e23        sw x23 156 x2
    211bc:        09812c23        sw x24 152 x2
    211c0:        09912a23        sw x25 148 x2
    211c4:        09a12823        sw x26 144 x2
    211c8:        09b12623        sw x27 140 x2
    211cc:        06d12023        sw x13 96 x2
    211d0:        06f12223        sw x15 100 x2
    211d4:        06a12423        sw x10 104 x2
    211d8:        02d12823        sw x13 48 x2
    211dc:        02f12a23        sw x15 52 x2
    211e0:        02a12c23        sw x10 56 x2
    211e4:        02e12e23        sw x14 60 x2
    211e8:        00c4f4b3        and x9 x9 x12
    211ec:        01f9d993        srli x19 x19 31
    211f0:        12048a63        beq x9 x0 308
    211f4:        24c48863        beq x9 x12 592
    211f8:        000107b7        lui x15 0x10
    211fc:        00f767b3        or x15 x14 x15
    21200:        02f12e23        sw x15 60 x2
    21204:        03010613        addi x12 x2 48
    21208:        03c10793        addi x15 x2 60
    2120c:        0007a703        lw x14 0 x15
    21210:        ffc7a683        lw x13 -4 x15
    21214:        ffc78793        addi x15 x15 -4
    21218:        00371713        slli x14 x14 3
    2121c:        01d6d693        srli x13 x13 29
    21220:        00d76733        or x14 x14 x13
    21224:        00e7a223        sw x14 4 x15
    21228:        fef612e3        bne x12 x15 -28
    2122c:        03012783        lw x15 48 x2
    21230:        ffffc537        lui x10 0xffffc
    21234:        00150513        addi x10 x10 1
    21238:        00379793        slli x15 x15 3
    2123c:        02f12823        sw x15 48 x2
    21240:        00a484b3        add x9 x9 x10
    21244:        00000b93        addi x23 x0 0
    21248:        01091513        slli x10 x18 16
    2124c:        00008737        lui x14 0x8
    21250:        01095793        srli x15 x18 16
    21254:        01055513        srli x10 x10 16
    21258:        fff70713        addi x14 x14 -1
    2125c:        07212623        sw x18 108 x2
    21260:        07412023        sw x20 96 x2
    21264:        07612223        sw x22 100 x2
    21268:        07512423        sw x21 104 x2
    2126c:        05412023        sw x20 64 x2
    21270:        05612223        sw x22 68 x2
    21274:        05512423        sw x21 72 x2
    21278:        04a12623        sw x10 76 x2
    2127c:        00e7f7b3        and x15 x15 x14
    21280:        01f95913        srli x18 x18 31
    21284:        1e078463        beq x15 x0 488
    21288:        30e78263        beq x15 x14 772
    2128c:        00010ab7        lui x21 0x10
    21290:        01556ab3        or x21 x10 x21
    21294:        05512623        sw x21 76 x2
    21298:        04010593        addi x11 x2 64
    2129c:        04c10713        addi x14 x2 76
    212a0:        00072683        lw x13 0 x14
    212a4:        ffc72603        lw x12 -4 x14
    212a8:        ffc70713        addi x14 x14 -4
    212ac:        00369693        slli x13 x13 3
    212b0:        01d65613        srli x12 x12 29
    212b4:        00c6e6b3        or x13 x13 x12
    212b8:        00d72223        sw x13 4 x14
    212bc:        fee592e3        bne x11 x14 -28
    212c0:        04012703        lw x14 64 x2
    212c4:        ffffc537        lui x10 0xffffc
    212c8:        00150513        addi x10 x10 1
    212cc:        00371713        slli x14 x14 3
    212d0:        04e12023        sw x14 64 x2
    212d4:        00a787b3        add x15 x15 x10
    212d8:        00000713        addi x14 x0 0
    212dc:        00f487b3        add x15 x9 x15
    212e0:        02f12023        sw x15 32 x2
    212e4:        00178793        addi x15 x15 1
    212e8:        00f12e23        sw x15 28 x2
    212ec:        002b9793        slli x15 x23 2
    212f0:        0129c6b3        xor x13 x19 x18
    212f4:        00e7e7b3        or x15 x15 x14
    212f8:        00d12823        sw x13 16 x2
    212fc:        fff78793        addi x15 x15 -1
    21300:        00e00693        addi x13 x0 14
    21304:        2af6e863        bltu x13 x15 688
    21308:        00003697        auipc x13 0x3
    2130c:        79068693        addi x13 x13 1936
    21310:        00279793        slli x15 x15 2
    21314:        00d787b3        add x15 x15 x13
    21318:        0007a783        lw x15 0 x15
    2131c:        00d787b3        add x15 x15 x13
    21320:        00078067        jalr x0 x15 0
    21324:        00d7e633        or x12 x15 x13
    21328:        00a66633        or x12 x12 x10
    2132c:        00e66633        or x12 x12 x14
    21330:        12060863        beq x12 x0 304
    21334:        06070063        beq x14 x0 96
    21338:        00070513        addi x10 x14 0
    2133c:        361020ef        jal x1 11104 <__clzsi2>
    21340:        ff450693        addi x13 x10 -12
    21344:        4056d793        srai x15 x13 5
    21348:        01f6f693        andi x13 x13 31
    2134c:        06068e63        beq x13 x0 124
    21350:        ffc00713        addi x14 x0 -4
    21354:        02e78733        mul x14 x15 x14
    21358:        03010313        addi x6 x2 48
    2135c:        02000813        addi x16 x0 32
    21360:        00279593        slli x11 x15 2
    21364:        40d80833        sub x16 x16 x13
    21368:        00c70713        addi x14 x14 12
    2136c:        00e30733        add x14 x6 x14
    21370:        08e31463        bne x6 x14 136
    21374:        08010713        addi x14 x2 128
    21378:        00b705b3        add x11 x14 x11
    2137c:        03012703        lw x14 48 x2
    21380:        fff78793        addi x15 x15 -1
    21384:        00d716b3        sll x13 x14 x13
    21388:        fad5a823        sw x13 -80 x11
    2138c:        fff00693        addi x13 x0 -1
    21390:        0a00006f        jal x0 160
    21394:        00050863        beq x10 x0 16
    21398:        305020ef        jal x1 11012 <__clzsi2>
    2139c:        02050513        addi x10 x10 32
    213a0:        fa1ff06f        jal x0 -96
    213a4:        00078a63        beq x15 x0 20
    213a8:        00078513        addi x10 x15 0
    213ac:        2f1020ef        jal x1 10992 <__clzsi2>
    213b0:        04050513        addi x10 x10 64
    213b4:        f8dff06f        jal x0 -116
    213b8:        00068513        addi x10 x13 0
    213bc:        2e1020ef        jal x1 10976 <__clzsi2>
    213c0:        06050513        addi x10 x10 96
    213c4:        f7dff06f        jal x0 -132
    213c8:        ffc00613        addi x12 x0 -4
    213cc:        02c78633        mul x12 x15 x12
    213d0:        03c10713        addi x14 x2 60
    213d4:        00300693        addi x13 x0 3
    213d8:        00c705b3        add x11 x14 x12
    213dc:        0005a583        lw x11 0 x11
    213e0:        fff68693        addi x13 x13 -1
    213e4:        ffc70713        addi x14 x14 -4
    213e8:        00b72223        sw x11 4 x14
    213ec:        fef6d6e3        bge x13 x15 -20
    213f0:        fff78793        addi x15 x15 -1
    213f4:        f99ff06f        jal x0 -104
    213f8:        ffc72603        lw x12 -4 x14
    213fc:        00072883        lw x17 0 x14
    21400:        00b70e33        add x28 x14 x11
    21404:        01065633        srl x12 x12 x16
    21408:        00d898b3        sll x17 x17 x13
    2140c:        01166633        or x12 x12 x17
    21410:        00ce2023        sw x12 0 x28
    21414:        ffc70713        addi x14 x14 -4
    21418:        f59ff06f        jal x0 -168
    2141c:        00279713        slli x14 x15 2
    21420:        03010613        addi x12 x2 48
    21424:        00e60733        add x14 x12 x14
    21428:        00072023        sw x0 0 x14
    2142c:        fff78793        addi x15 x15 -1
    21430:        fed796e3        bne x15 x13 -20
    21434:        ffffc4b7        lui x9 0xffffc
    21438:        01148493        addi x9 x9 17
    2143c:        40a484b3        sub x9 x9 x10
    21440:        e05ff06f        jal x0 -508
    21444:        00d7e7b3        or x15 x15 x13
    21448:        00a7e7b3        or x15 x15 x10
    2144c:        00e7e7b3        or x15 x15 x14
    21450:        00300b93        addi x23 x0 3
    21454:        de079ae3        bne x15 x0 -524
    21458:        00200b93        addi x23 x0 2
    2145c:        dedff06f        jal x0 -532
    21460:        00000493        addi x9 x0 0
    21464:        00100b93        addi x23 x0 1
    21468:        de1ff06f        jal x0 -544
    2146c:        016a67b3        or x15 x20 x22
    21470:        0157e7b3        or x15 x15 x21
    21474:        00a7e7b3        or x15 x15 x10
    21478:        12078863        beq x15 x0 304
    2147c:        04050e63        beq x10 x0 92
    21480:        21d020ef        jal x1 10780 <__clzsi2>
    21484:        ff450613        addi x12 x10 -12
    21488:        40565713        srai x14 x12 5
    2148c:        01f67613        andi x12 x12 31
    21490:        08060063        beq x12 x0 128
    21494:        ffc00693        addi x13 x0 -4
    21498:        02d706b3        mul x13 x14 x13
    2149c:        04010313        addi x6 x2 64
    214a0:        02000793        addi x15 x0 32
    214a4:        00271813        slli x16 x14 2
    214a8:        40c787b3        sub x15 x15 x12
    214ac:        00c68693        addi x13 x13 12
    214b0:        00d306b3        add x13 x6 x13
    214b4:        08d31663        bne x6 x13 140
    214b8:        08010793        addi x15 x2 128
    214bc:        01078833        add x16 x15 x16
    214c0:        04012783        lw x15 64 x2
    214c4:        fff70713        addi x14 x14 -1
    214c8:        00c79633        sll x12 x15 x12
    214cc:        fcc82023        sw x12 -64 x16
    214d0:        fff00693        addi x13 x0 -1
    214d4:        0a40006f        jal x0 164
    214d8:        000a8a63        beq x21 x0 20
    214dc:        000a8513        addi x10 x21 0
    214e0:        1bd020ef        jal x1 10684 <__clzsi2>
    214e4:        02050513        addi x10 x10 32
    214e8:        f9dff06f        jal x0 -100
    214ec:        000b0a63        beq x22 x0 20
    214f0:        000b0513        addi x10 x22 0
    214f4:        1a9020ef        jal x1 10664 <__clzsi2>
    214f8:        04050513        addi x10 x10 64
    214fc:        f89ff06f        jal x0 -120
    21500:        000a0513        addi x10 x20 0
    21504:        199020ef        jal x1 10648 <__clzsi2>
    21508:        06050513        addi x10 x10 96
    2150c:        f79ff06f        jal x0 -136
    21510:        ffc00613        addi x12 x0 -4
    21514:        02c70633        mul x12 x14 x12
    21518:        04c10693        addi x13 x2 76
    2151c:        00300793        addi x15 x0 3
    21520:        00c685b3        add x11 x13 x12
    21524:        0005a583        lw x11 0 x11
    21528:        fff78793        addi x15 x15 -1
    2152c:        ffc68693        addi x13 x13 -4
    21530:        00b6a223        sw x11 4 x13
    21534:        fee7d6e3        bge x15 x14 -20
    21538:        fff70713        addi x14 x14 -1
    2153c:        f95ff06f        jal x0 -108
    21540:        ffc6a583        lw x11 -4 x13
    21544:        0006a883        lw x17 0 x13
    21548:        01068e33        add x28 x13 x16
    2154c:        00f5d5b3        srl x11 x11 x15
    21550:        00c898b3        sll x17 x17 x12
    21554:        0115e5b3        or x11 x11 x17
    21558:        00be2023        sw x11 0 x28
    2155c:        ffc68693        addi x13 x13 -4
    21560:        f55ff06f        jal x0 -172
    21564:        00271793        slli x15 x14 2
    21568:        04010613        addi x12 x2 64
    2156c:        00f607b3        add x15 x12 x15
    21570:        0007a023        sw x0 0 x15
    21574:        fff70713        addi x14 x14 -1
    21578:        fed716e3        bne x14 x13 -20
    2157c:        ffffc7b7        lui x15 0xffffc
    21580:        01178793        addi x15 x15 17
    21584:        40a787b3        sub x15 x15 x10
    21588:        d51ff06f        jal x0 -688
    2158c:        016a6a33        or x20 x20 x22
    21590:        015a6ab3        or x21 x20 x21
    21594:        00aaeab3        or x21 x21 x10
    21598:        00300713        addi x14 x0 3
    2159c:        d40a90e3        bne x21 x0 -704
    215a0:        00200713        addi x14 x0 2
    215a4:        d39ff06f        jal x0 -712
    215a8:        00000793        addi x15 x0 0
    215ac:        00100713        addi x14 x0 1
    215b0:        d2dff06f        jal x0 -724
    215b4:        03012703        lw x14 48 x2
    215b8:        04012e03        lw x28 64 x2
    215bc:        00010537        lui x10 0x10
    215c0:        fff50693        addi x13 x10 -1
    215c4:        01075f93        srli x31 x14 16
    215c8:        010e5a93        srli x21 x28 16
    215cc:        00d77733        and x14 x14 x13
    215d0:        00de7e33        and x28 x28 x13
    215d4:        02ea87b3        mul x15 x21 x14
    215d8:        02ee0633        mul x12 x28 x14
    215dc:        03cf8833        mul x16 x31 x28
    215e0:        010785b3        add x11 x15 x16
    215e4:        01065793        srli x15 x12 16
    215e8:        00b787b3        add x15 x15 x11
    215ec:        035f8b33        mul x22 x31 x21
    215f0:        0107f463        bgeu x15 x16 8
    215f4:        00ab0b33        add x22 x22 x10
    215f8:        04412f03        lw x30 68 x2
    215fc:        0107d293        srli x5 x15 16
    21600:        00d7f7b3        and x15 x15 x13
    21604:        00d67633        and x12 x12 x13
    21608:        01079793        slli x15 x15 16
    2160c:        00c787b3        add x15 x15 x12
    21610:        010f5493        srli x9 x30 16
    21614:        00df7f33        and x30 x30 x13
    21618:        02f12223        sw x15 36 x2
    2161c:        06f12023        sw x15 96 x2
    21620:        02ef06b3        mul x13 x30 x14
    21624:        02e487b3        mul x15 x9 x14
    21628:        03ef8633        mul x12 x31 x30
    2162c:        00c78533        add x10 x15 x12
    21630:        0106d793        srli x15 x13 16
    21634:        00a787b3        add x15 x15 x10
    21638:        029f8a33        mul x20 x31 x9
    2163c:        00c7f663        bgeu x15 x12 12
    21640:        00010637        lui x12 0x10
    21644:        00ca0a33        add x20 x20 x12
    21648:        00010637        lui x12 0x10
    2164c:        fff60593        addi x11 x12 -1
    21650:        00b7f533        and x10 x15 x11
    21654:        0107dd93        srli x27 x15 16
    21658:        03412783        lw x15 52 x2
    2165c:        00b6f6b3        and x13 x13 x11
    21660:        01051513        slli x10 x10 16
    21664:        0107d913        srli x18 x15 16
    21668:        00b7f5b3        and x11 x15 x11
    2166c:        00d50533        add x10 x10 x13
    21670:        02ba87b3        mul x15 x21 x11
    21674:        00a282b3        add x5 x5 x10
    21678:        02be06b3        mul x13 x28 x11
    2167c:        03c90333        mul x6 x18 x28
    21680:        00678833        add x16 x15 x6
    21684:        0106d793        srli x15 x13 16
    21688:        010787b3        add x15 x15 x16
    2168c:        032a88b3        mul x17 x21 x18
    21690:        0067f463        bgeu x15 x6 8
    21694:        00c888b3        add x17 x17 x12
    21698:        0107d993        srli x19 x15 16
    2169c:        011989b3        add x19 x19 x17
    216a0:        000108b7        lui x17 0x10
    216a4:        fff88613        addi x12 x17 -1
    216a8:        00c7f833        and x16 x15 x12
    216ac:        01081813        slli x16 x16 16
    216b0:        00c6f7b3        and x15 x13 x12
    216b4:        00f80833        add x16 x16 x15
    216b8:        03e58633        mul x12 x11 x30
    216bc:        03e907b3        mul x15 x18 x30
    216c0:        01065e93        srli x29 x12 16
    216c4:        02b486b3        mul x13 x9 x11
    216c8:        00f686b3        add x13 x13 x15
    216cc:        00de86b3        add x13 x29 x13
    216d0:        03248333        mul x6 x9 x18
    216d4:        00f6f463        bgeu x13 x15 8
    216d8:        01130333        add x6 x6 x17
    216dc:        0106d793        srli x15 x13 16
    216e0:        04812e83        lw x29 72 x2
    216e4:        006787b3        add x15 x15 x6
    216e8:        000103b7        lui x7 0x10
    216ec:        02f12423        sw x15 40 x2
    216f0:        fff38793        addi x15 x7 -1
    216f4:        010ed413        srli x8 x29 16
    216f8:        00fefeb3        and x29 x29 x15
    216fc:        02e408b3        mul x17 x8 x14
    21700:        00f67633        and x12 x12 x15
    21704:        00f6f6b3        and x13 x13 x15
    21708:        01069693        slli x13 x13 16
    2170c:        00c686b3        add x13 x13 x12
    21710:        02ee8333        mul x6 x29 x14
    21714:        03df8bb3        mul x23 x31 x29
    21718:        017887b3        add x15 x17 x23
    2171c:        01035893        srli x17 x6 16
    21720:        00f888b3        add x17 x17 x15
    21724:        028f8633        mul x12 x31 x8
    21728:        0178f463        bgeu x17 x23 8
    2172c:        00760633        add x12 x12 x7
    21730:        0108d793        srli x15 x17 16
    21734:        00010c37        lui x24 0x10
    21738:        00c787b3        add x15 x15 x12
    2173c:        fffc0613        addi x12 x24 -1
    21740:        02f12623        sw x15 44 x2
    21744:        00c8f7b3        and x15 x17 x12
    21748:        03812883        lw x17 56 x2
    2174c:        00c37333        and x6 x6 x12
    21750:        01079793        slli x15 x15 16
    21754:        0108d393        srli x7 x17 16
    21758:        00c8f633        and x12 x17 x12
    2175c:        006787b3        add x15 x15 x6
    21760:        03c608b3        mul x17 x12 x28
    21764:        03c38cb3        mul x25 x7 x28
    21768:        0108dd13        srli x26 x17 16
    2176c:        02ca8333        mul x6 x21 x12
    21770:        01930333        add x6 x6 x25
    21774:        006d0333        add x6 x26 x6
    21778:        027a8bb3        mul x23 x21 x7
    2177c:        01937463        bgeu x6 x25 8
    21780:        018b8bb3        add x23 x23 x24
    21784:        01035c13        srli x24 x6 16
    21788:        017c0bb3        add x23 x24 x23
    2178c:        00010c37        lui x24 0x10
    21790:        005b02b3        add x5 x22 x5
    21794:        fffc0c93        addi x25 x24 -1
    21798:        00a2b533        sltu x10 x5 x10
    2179c:        01937333        and x6 x6 x25
    217a0:        00ad8db3        add x27 x27 x10
    217a4:        01031313        slli x6 x6 16
    217a8:        0198f8b3        and x17 x17 x25
    217ac:        014d8a33        add x20 x27 x20
    217b0:        011308b3        add x17 x6 x17
    217b4:        01028333        add x6 x5 x16
    217b8:        01033833        sltu x16 x6 x16
    217bc:        00612a23        sw x6 20 x2
    217c0:        06612223        sw x6 100 x2
    217c4:        013a0333        add x6 x20 x19
    217c8:        01030b33        add x22 x6 x16
    217cc:        013339b3        sltu x19 x6 x19
    217d0:        010b3833        sltu x16 x22 x16
    217d4:        0109e833        or x16 x19 x16
    217d8:        00aa3533        sltu x10 x20 x10
    217dc:        00a80533        add x10 x16 x10
    217e0:        02812803        lw x16 40 x2
    217e4:        00db02b3        add x5 x22 x13
    217e8:        02812983        lw x19 40 x2
    217ec:        00d2b6b3        sltu x13 x5 x13
    217f0:        01050533        add x10 x10 x16
    217f4:        02c12303        lw x6 44 x2
    217f8:        00d50833        add x16 x10 x13
    217fc:        00f282b3        add x5 x5 x15
    21800:        01353533        sltu x10 x10 x19
    21804:        00d836b3        sltu x13 x16 x13
    21808:        00f2b7b3        sltu x15 x5 x15
    2180c:        00680db3        add x27 x16 x6
    21810:        00d566b3        or x13 x10 x13
    21814:        02c12503        lw x10 44 x2
    21818:        00fd8333        add x6 x27 x15
    2181c:        011282b3        add x5 x5 x17
    21820:        0112b8b3        sltu x17 x5 x17
    21824:        00f337b3        sltu x15 x6 x15
    21828:        00512c23        sw x5 24 x2
    2182c:        06512423        sw x5 104 x2
    21830:        017302b3        add x5 x6 x23
    21834:        04c12303        lw x6 76 x2
    21838:        01128d33        add x26 x5 x17
    2183c:        00adbdb3        sltu x27 x27 x10
    21840:        00fde7b3        or x15 x27 x15
    21844:        0172bbb3        sltu x23 x5 x23
    21848:        011d38b3        sltu x17 x26 x17
    2184c:        00f686b3        add x13 x13 x15
    21850:        01035293        srli x5 x6 16
    21854:        011bea33        or x20 x23 x17
    21858:        01937333        and x6 x6 x25
    2185c:        02e307b3        mul x15 x6 x14
    21860:        01468a33        add x20 x13 x20
    21864:        02e28733        mul x14 x5 x14
    21868:        0107d893        srli x17 x15 16
    2186c:        026f86b3        mul x13 x31 x6
    21870:        00d70733        add x14 x14 x13
    21874:        00e888b3        add x17 x17 x14
    21878:        025f8fb3        mul x31 x31 x5
    2187c:        00d8f463        bgeu x17 x13 8
    21880:        018f8fb3        add x31 x31 x24
    21884:        03c12983        lw x19 60 x2
    21888:        000106b7        lui x13 0x10
    2188c:        fff68513        addi x10 x13 -1
    21890:        0108d713        srli x14 x17 16
    21894:        00a8f8b3        and x17 x17 x10
    21898:        01f70733        add x14 x14 x31
    2189c:        00a7f7b3        and x15 x15 x10
    218a0:        0109df93        srli x31 x19 16
    218a4:        01089893        slli x17 x17 16
    218a8:        00a9f9b3        and x19 x19 x10
    218ac:        00f888b3        add x17 x17 x15
    218b0:        03fa8b33        mul x22 x21 x31
    218b4:        00070d93        addi x27 x14 0
    218b8:        033e07b3        mul x15 x28 x19
    218bc:        033a8ab3        mul x21 x21 x19
    218c0:        0107d813        srli x16 x15 16
    218c4:        03cf8e33        mul x28 x31 x28
    218c8:        01ca8ab3        add x21 x21 x28
    218cc:        01580ab3        add x21 x16 x21
    218d0:        01caf463        bgeu x21 x28 8
    218d4:        00db0b33        add x22 x22 x13
    218d8:        010ad813        srli x16 x21 16
    218dc:        01680733        add x14 x16 x22
    218e0:        00010b37        lui x22 0x10
    218e4:        02e12423        sw x14 40 x2
    218e8:        fffb0713        addi x14 x22 -1
    218ec:        00eaf833        and x16 x21 x14
    218f0:        00e7f7b3        and x15 x15 x14
    218f4:        01081813        slli x16 x16 16
    218f8:        00f80833        add x16 x16 x15
    218fc:        02be86b3        mul x13 x29 x11
    21900:        03d90e33        mul x28 x18 x29
    21904:        0106d513        srli x10 x13 16
    21908:        02b407b3        mul x15 x8 x11
    2190c:        01c787b3        add x15 x15 x28
    21910:        00f507b3        add x15 x10 x15
    21914:        02890733        mul x14 x18 x8
    21918:        01c7f463        bgeu x15 x28 8
    2191c:        01670733        add x14 x14 x22
    21920:        0107d513        srli x10 x15 16
    21924:        00e50733        add x14 x10 x14
    21928:        00010b37        lui x22 0x10
    2192c:        02e12623        sw x14 44 x2
    21930:        fffb0713        addi x14 x22 -1
    21934:        00e7f533        and x10 x15 x14
    21938:        00e6f6b3        and x13 x13 x14
    2193c:        03e38e33        mul x28 x7 x30
    21940:        01051513        slli x10 x10 16
    21944:        00d50533        add x10 x10 x13
    21948:        03e60733        mul x14 x12 x30
    2194c:        02c487b3        mul x15 x9 x12
    21950:        01075693        srli x13 x14 16
    21954:        01c787b3        add x15 x15 x28
    21958:        00f687b3        add x15 x13 x15
    2195c:        02748ab3        mul x21 x9 x7
    21960:        01c7f463        bgeu x15 x28 8
    21964:        016a8ab3        add x21 x21 x22
    21968:        000106b7        lui x13 0x10
    2196c:        fff68e13        addi x28 x13 -1
    21970:        01c7f6b3        and x13 x15 x28
    21974:        0107db93        srli x23 x15 16
    21978:        011d07b3        add x15 x26 x17
    2197c:        01c77733        and x14 x14 x28
    21980:        0117b8b3        sltu x17 x15 x17
    21984:        01ba0a33        add x20 x20 x27
    21988:        01069693        slli x13 x13 16
    2198c:        00e686b3        add x13 x13 x14
    21990:        011a0d33        add x26 x20 x17
    21994:        02812703        lw x14 40 x2
    21998:        011d38b3        sltu x17 x26 x17
    2199c:        01ba3a33        sltu x20 x20 x27
    219a0:        010787b3        add x15 x15 x16
    219a4:        011a6a33        or x20 x20 x17
    219a8:        02812883        lw x17 40 x2
    219ac:        0107b833        sltu x16 x15 x16
    219b0:        00ed0b33        add x22 x26 x14
    219b4:        02c12703        lw x14 44 x2
    219b8:        010b0cb3        add x25 x22 x16
    219bc:        00a787b3        add x15 x15 x10
    219c0:        011b3b33        sltu x22 x22 x17
    219c4:        010cb833        sltu x16 x25 x16
    219c8:        00a7b533        sltu x10 x15 x10
    219cc:        00ec8733        add x14 x25 x14
    219d0:        010b6b33        or x22 x22 x16
    219d4:        02c12803        lw x16 44 x2
    219d8:        00a70c33        add x24 x14 x10
    219dc:        015b8bb3        add x23 x23 x21
    219e0:        00d787b3        add x15 x15 x13
    219e4:        00d7b6b3        sltu x13 x15 x13
    219e8:        017c0ab3        add x21 x24 x23
    219ec:        00da8e33        add x28 x21 x13
    219f0:        01073733        sltu x14 x14 x16
    219f4:        00ac3533        sltu x10 x24 x10
    219f8:        00a76733        or x14 x14 x10
    219fc:        00de36b3        sltu x13 x28 x13
    21a00:        016a0a33        add x20 x20 x22
    21a04:        017abab3        sltu x21 x21 x23
    21a08:        00ea0a33        add x20 x20 x14
    21a0c:        00daeab3        or x21 x21 x13
    21a10:        015a06b3        add x13 x20 x21
    21a14:        02ce8833        mul x16 x29 x12
    21a18:        06f12623        sw x15 108 x2
    21a1c:        03d38a33        mul x20 x7 x29
    21a20:        01085513        srli x10 x16 16
    21a24:        02c40733        mul x14 x8 x12
    21a28:        01470733        add x14 x14 x20
    21a2c:        00e50733        add x14 x10 x14
    21a30:        027408b3        mul x17 x8 x7
    21a34:        01477663        bgeu x14 x20 12
    21a38:        00010537        lui x10 0x10
    21a3c:        00a888b3        add x17 x17 x10
    21a40:        00010a37        lui x20 0x10
    21a44:        01075513        srli x10 x14 16
    21a48:        fffa0a93        addi x21 x20 -1
    21a4c:        011508b3        add x17 x10 x17
    21a50:        01577533        and x10 x14 x21
    21a54:        01587833        and x16 x16 x21
    21a58:        01051513        slli x10 x10 16
    21a5c:        02690ab3        mul x21 x18 x6
    21a60:        01050533        add x10 x10 x16
    21a64:        02b30833        mul x16 x6 x11
    21a68:        02b285b3        mul x11 x5 x11
    21a6c:        01085713        srli x14 x16 16
    21a70:        015585b3        add x11 x11 x21
    21a74:        00b70733        add x14 x14 x11
    21a78:        02590933        mul x18 x18 x5
    21a7c:        01577463        bgeu x14 x21 8
    21a80:        01490933        add x18 x18 x20
    21a84:        00010ab7        lui x21 0x10
    21a88:        01075593        srli x11 x14 16
    21a8c:        fffa8a13        addi x20 x21 -1
    21a90:        01487833        and x16 x16 x20
    21a94:        01258933        add x18 x11 x18
    21a98:        014775b3        and x11 x14 x20
    21a9c:        01059593        slli x11 x11 16
    21aa0:        03e98733        mul x14 x19 x30
    21aa4:        010585b3        add x11 x11 x16
    21aa8:        03ef8f33        mul x30 x31 x30
    21aac:        01075813        srli x16 x14 16
    21ab0:        03f48a33        mul x20 x9 x31
    21ab4:        033484b3        mul x9 x9 x19
    21ab8:        01e484b3        add x9 x9 x30
    21abc:        009804b3        add x9 x16 x9
    21ac0:        01e4f463        bgeu x9 x30 8
    21ac4:        015a0a33        add x20 x20 x21
    21ac8:        0104db13        srli x22 x9 16
    21acc:        014b0b33        add x22 x22 x20
    21ad0:        00010a37        lui x20 0x10
    21ad4:        fffa0f13        addi x30 x20 -1
    21ad8:        01e4f833        and x16 x9 x30
    21adc:        01e77733        and x14 x14 x30
    21ae0:        026384b3        mul x9 x7 x6
    21ae4:        01081813        slli x16 x16 16
    21ae8:        00e80833        add x16 x16 x14
    21aec:        02660f33        mul x30 x12 x6
    21af0:        02c28633        mul x12 x5 x12
    21af4:        010f5713        srli x14 x30 16
    21af8:        00960633        add x12 x12 x9
    21afc:        00c70633        add x12 x14 x12
    21b00:        025383b3        mul x7 x7 x5
    21b04:        00967463        bgeu x12 x9 8
    21b08:        014383b3        add x7 x7 x20
    21b0c:        00010a37        lui x20 0x10
    21b10:        01065713        srli x14 x12 16
    21b14:        fffa0493        addi x9 x20 -1
    21b18:        007703b3        add x7 x14 x7
    21b1c:        00967733        and x14 x12 x9
    21b20:        009f7f33        and x30 x30 x9
    21b24:        01071713        slli x14 x14 16
    21b28:        01e70733        add x14 x14 x30
    21b2c:        03340633        mul x12 x8 x19
    21b30:        033e8f33        mul x30 x29 x19
    21b34:        03df8eb3        mul x29 x31 x29
    21b38:        010f5a93        srli x21 x30 16
    21b3c:        01d60633        add x12 x12 x29
    21b40:        00ca8633        add x12 x21 x12
    21b44:        03f404b3        mul x9 x8 x31
    21b48:        01d67463        bgeu x12 x29 8
    21b4c:        014484b3        add x9 x9 x20
    21b50:        01065c13        srli x24 x12 16
    21b54:        00010cb7        lui x25 0x10
    21b58:        009c0c33        add x24 x24 x9
    21b5c:        00ae0e33        add x28 x28 x10
    21b60:        fffc8493        addi x9 x25 -1
    21b64:        00ae3533        sltu x10 x28 x10
    21b68:        011686b3        add x13 x13 x17
    21b6c:        00967633        and x12 x12 x9
    21b70:        00a68db3        add x27 x13 x10
    21b74:        009f7f33        and x30 x30 x9
    21b78:        00be0e33        add x28 x28 x11
    21b7c:        01061613        slli x12 x12 16
    21b80:        01e60633        add x12 x12 x30
    21b84:        00be35b3        sltu x11 x28 x11
    21b88:        012d8f33        add x30 x27 x18
    21b8c:        010e0e33        add x28 x28 x16
    21b90:        00bf0d33        add x26 x30 x11
    21b94:        016d0eb3        add x29 x26 x22
    21b98:        07c12823        sw x28 112 x2
    21b9c:        010e3e33        sltu x28 x28 x16
    21ba0:        01ce8a33        add x20 x29 x28
    21ba4:        0116b6b3        sltu x13 x13 x17
    21ba8:        00bd35b3        sltu x11 x26 x11
    21bac:        00adb533        sltu x10 x27 x10
    21bb0:        012f3933        sltu x18 x30 x18
    21bb4:        00a6e533        or x10 x13 x10
    21bb8:        00b96933        or x18 x18 x11
    21bbc:        016ebeb3        sltu x29 x29 x22
    21bc0:        01ca3e33        sltu x28 x20 x28
    21bc4:        01250533        add x10 x10 x18
    21bc8:        01ceeeb3        or x29 x29 x28
    21bcc:        00ea0833        add x16 x20 x14
    21bd0:        01d50533        add x10 x10 x29
    21bd4:        00e83733        sltu x14 x16 x14
    21bd8:        00750533        add x10 x10 x7
    21bdc:        00e506b3        add x13 x10 x14
    21be0:        007533b3        sltu x7 x10 x7
    21be4:        03330533        mul x10 x6 x19
    21be8:        00c80833        add x16 x16 x12
    21bec:        00e6b733        sltu x14 x13 x14
    21bf0:        00c83633        sltu x12 x16 x12
    21bf4:        018686b3        add x13 x13 x24
    21bf8:        00c685b3        add x11 x13 x12
    21bfc:        0186bc33        sltu x24 x13 x24
    21c00:        00c5b633        sltu x12 x11 x12
    21c04:        07012a23        sw x16 116 x2
    21c08:        00e3e733        or x14 x7 x14
    21c0c:        026f8333        mul x6 x31 x6
    21c10:        01055693        srli x13 x10 16
    21c14:        00cc6633        or x12 x24 x12
    21c18:        033289b3        mul x19 x5 x19
    21c1c:        006989b3        add x19 x19 x6
    21c20:        03f28fb3        mul x31 x5 x31
    21c24:        013682b3        add x5 x13 x19
    21c28:        0062f463        bgeu x5 x6 8
    21c2c:        019f8fb3        add x31 x31 x25
    21c30:        0092f6b3        and x13 x5 x9
    21c34:        01069693        slli x13 x13 16
    21c38:        009574b3        and x9 x10 x9
    21c3c:        009684b3        add x9 x13 x9
    21c40:        0102d293        srli x5 x5 16
    21c44:        009585b3        add x11 x11 x9
    21c48:        00e282b3        add x5 x5 x14
    21c4c:        01412683        lw x13 20 x2
    21c50:        02412703        lw x14 36 x2
    21c54:        0095b4b3        sltu x9 x11 x9
    21c58:        00c282b3        add x5 x5 x12
    21c5c:        009282b3        add x5 x5 x9
    21c60:        01f28fb3        add x31 x5 x31
    21c64:        00d762b3        or x5 x14 x13
    21c68:        01812703        lw x14 24 x2
    21c6c:        00d79793        slli x15 x15 13
    21c70:        06b12c23        sw x11 120 x2
    21c74:        005762b3        or x5 x14 x5
    21c78:        07f12e23        sw x31 124 x2
    21c7c:        0057e7b3        or x15 x15 x5
    21c80:        06010713        addi x14 x2 96
    21c84:        07010593        addi x11 x2 112
    21c88:        00c72683        lw x13 12 x14
    21c8c:        01072603        lw x12 16 x14
    21c90:        00470713        addi x14 x14 4
    21c94:        0136d693        srli x13 x13 19
    21c98:        00d61613        slli x12 x12 13
    21c9c:        00c6e6b3        or x13 x13 x12
    21ca0:        fed72e23        sw x13 -4 x14
    21ca4:        fee592e3        bne x11 x14 -28
    21ca8:        06012703        lw x14 96 x2
    21cac:        06812683        lw x13 104 x2
    21cb0:        00f037b3        sltu x15 x0 x15
    21cb4:        00e7e7b3        or x15 x15 x14
    21cb8:        04d12c23        sw x13 88 x2
    21cbc:        06c12703        lw x14 108 x2
    21cc0:        06412683        lw x13 100 x2
    21cc4:        04f12823        sw x15 80 x2
    21cc8:        04e12e23        sw x14 92 x2
    21ccc:        04d12a23        sw x13 84 x2
    21cd0:        00b71693        slli x13 x14 11
    21cd4:        2206d863        bge x13 x0 560
    21cd8:        01f79793        slli x15 x15 31
    21cdc:        05010713        addi x14 x2 80
    21ce0:        05c10593        addi x11 x2 92
    21ce4:        00072683        lw x13 0 x14
    21ce8:        00472603        lw x12 4 x14
    21cec:        00470713        addi x14 x14 4
    21cf0:        0016d693        srli x13 x13 1
    21cf4:        01f61613        slli x12 x12 31
    21cf8:        00c6e6b3        or x13 x13 x12
    21cfc:        fed72e23        sw x13 -4 x14
    21d00:        fee592e3        bne x11 x14 -28
    21d04:        05c12703        lw x14 92 x2
    21d08:        00f037b3        sltu x15 x0 x15
    21d0c:        00175713        srli x14 x14 1
    21d10:        04e12e23        sw x14 92 x2
    21d14:        05012703        lw x14 80 x2
    21d18:        00f767b3        or x15 x14 x15
    21d1c:        04f12823        sw x15 80 x2
    21d20:        01c12703        lw x14 28 x2
    21d24:        000047b7        lui x15 0x4
    21d28:        fff78793        addi x15 x15 -1
    21d2c:        00f707b3        add x15 x14 x15
    21d30:        1ef05c63        bge x0 x15 504
    21d34:        05012703        lw x14 80 x2
    21d38:        00777693        andi x13 x14 7
    21d3c:        04068463        beq x13 x0 72
    21d40:        00f77693        andi x13 x14 15
    21d44:        00400613        addi x12 x0 4
    21d48:        02c68e63        beq x13 x12 60
    21d4c:        05412683        lw x13 84 x2
    21d50:        00470713        addi x14 x14 4
    21d54:        04e12823        sw x14 80 x2
    21d58:        00473713        sltiu x14 x14 4
    21d5c:        00d706b3        add x13 x14 x13
    21d60:        00e6b733        sltu x14 x13 x14
    21d64:        04d12a23        sw x13 84 x2
    21d68:        05812683        lw x13 88 x2
    21d6c:        00d706b3        add x13 x14 x13
    21d70:        04d12c23        sw x13 88 x2
    21d74:        00e6b6b3        sltu x13 x13 x14
    21d78:        05c12703        lw x14 92 x2
    21d7c:        00e686b3        add x13 x13 x14
    21d80:        04d12e23        sw x13 92 x2
    21d84:        05c12703        lw x14 92 x2
    21d88:        00b71693        slli x13 x14 11
    21d8c:        0206d063        bge x13 x0 32
    21d90:        fff007b7        lui x15 0xfff00
    21d94:        fff78793        addi x15 x15 -1
    21d98:        00f77733        and x14 x14 x15
    21d9c:        04e12e23        sw x14 92 x2
    21da0:        01c12703        lw x14 28 x2
    21da4:        000047b7        lui x15 0x4
    21da8:        00f707b3        add x15 x14 x15
    21dac:        05010713        addi x14 x2 80
    21db0:        05c10593        addi x11 x2 92
    21db4:        00072683        lw x13 0 x14
    21db8:        00472603        lw x12 4 x14
    21dbc:        00470713        addi x14 x14 4
    21dc0:        0036d693        srli x13 x13 3
    21dc4:        01d61613        slli x12 x12 29
    21dc8:        00c6e6b3        or x13 x13 x12
    21dcc:        fed72e23        sw x13 -4 x14
    21dd0:        feb712e3        bne x14 x11 -28
    21dd4:        00008737        lui x14 0x8
    21dd8:        ffe70693        addi x13 x14 -2
    21ddc:        12f6ca63        blt x13 x15 308
    21de0:        05c12703        lw x14 92 x2
    21de4:        00375713        srli x14 x14 3
    21de8:        04e12e23        sw x14 92 x2
    21dec:        05c12703        lw x14 92 x2
    21df0:        01179793        slli x15 x15 17
    21df4:        800106b7        lui x13 0x80010
    21df8:        06e11623        sh x14 108 x2
    21dfc:        06c12703        lw x14 108 x2
    21e00:        fff68693        addi x13 x13 -1
    21e04:        0117d793        srli x15 x15 17
    21e08:        00d77733        and x14 x14 x13
    21e0c:        01079793        slli x15 x15 16
    21e10:        00f767b3        or x15 x14 x15
    21e14:        01012703        lw x14 16 x2
    21e18:        00179793        slli x15 x15 1
    21e1c:        0017d793        srli x15 x15 1
    21e20:        01f71713        slli x14 x14 31
    21e24:        00c12683        lw x13 12 x2
    21e28:        00e7e7b3        or x15 x15 x14
    21e2c:        05012703        lw x14 80 x2
    21e30:        0bc12083        lw x1 188 x2
    21e34:        0b812403        lw x8 184 x2
    21e38:        00e6a023        sw x14 0 x13
    21e3c:        05412703        lw x14 84 x2
    21e40:        00f6a623        sw x15 12 x13
    21e44:        0b412483        lw x9 180 x2
    21e48:        00e6a223        sw x14 4 x13
    21e4c:        05812703        lw x14 88 x2
    21e50:        0b012903        lw x18 176 x2
    21e54:        0ac12983        lw x19 172 x2
    21e58:        00e6a423        sw x14 8 x13
    21e5c:        0a812a03        lw x20 168 x2
    21e60:        0a412a83        lw x21 164 x2
    21e64:        0a012b03        lw x22 160 x2
    21e68:        09c12b83        lw x23 156 x2
    21e6c:        09812c03        lw x24 152 x2
    21e70:        09412c83        lw x25 148 x2
    21e74:        09012d03        lw x26 144 x2
    21e78:        08c12d83        lw x27 140 x2
    21e7c:        00068513        addi x10 x13 0
    21e80:        0c010113        addi x2 x2 192
    21e84:        00008067        jalr x0 x1 0
    21e88:        01312823        sw x19 16 x2
    21e8c:        03012783        lw x15 48 x2
    21e90:        04f12823        sw x15 80 x2
    21e94:        03412783        lw x15 52 x2
    21e98:        04f12a23        sw x15 84 x2
    21e9c:        03812783        lw x15 56 x2
    21ea0:        04f12c23        sw x15 88 x2
    21ea4:        03c12783        lw x15 60 x2
    21ea8:        04f12e23        sw x15 92 x2
    21eac:        00200793        addi x15 x0 2
    21eb0:        26fb8c63        beq x23 x15 632
    21eb4:        00300793        addi x15 x0 3
    21eb8:        28fb8663        beq x23 x15 652
    21ebc:        00100793        addi x15 x0 1
    21ec0:        e6fb90e3        bne x23 x15 -416
    21ec4:        04012e23        sw x0 92 x2
    21ec8:        04012c23        sw x0 88 x2
    21ecc:        04012a23        sw x0 84 x2
    21ed0:        04012823        sw x0 80 x2
    21ed4:        2140006f        jal x0 532
    21ed8:        01212823        sw x18 16 x2
    21edc:        04012783        lw x15 64 x2
    21ee0:        00070b93        addi x23 x14 0
    21ee4:        04f12823        sw x15 80 x2
    21ee8:        04412783        lw x15 68 x2
    21eec:        04f12a23        sw x15 84 x2
    21ef0:        04812783        lw x15 72 x2
    21ef4:        04f12c23        sw x15 88 x2
    21ef8:        04c12783        lw x15 76 x2
    21efc:        04f12e23        sw x15 92 x2
    21f00:        fadff06f        jal x0 -84
    21f04:        02012783        lw x15 32 x2
    21f08:        00f12e23        sw x15 28 x2
    21f0c:        e15ff06f        jal x0 -492
    21f10:        04012e23        sw x0 92 x2
    21f14:        04012c23        sw x0 88 x2
    21f18:        04012a23        sw x0 84 x2
    21f1c:        04012823        sw x0 80 x2
    21f20:        fff70793        addi x15 x14 -1
    21f24:        ec9ff06f        jal x0 -312
    21f28:        00100713        addi x14 x0 1
    21f2c:        40f707b3        sub x15 x14 x15
    21f30:        07400713        addi x14 x0 116
    21f34:        1af74e63        blt x14 x15 444
    21f38:        4057d893        srai x17 x15 5
    21f3c:        00000713        addi x14 x0 0
    21f40:        01f7f793        andi x15 x15 31
    21f44:        00000693        addi x13 x0 0
    21f48:        00269613        slli x12 x13 2
    21f4c:        03169a63        bne x13 x17 52
    21f50:        04079463        bne x15 x0 72
    21f54:        00300513        addi x10 x0 3
    21f58:        05010593        addi x11 x2 80
    21f5c:        40d506b3        sub x13 x10 x13
    21f60:        00c58533        add x10 x11 x12
    21f64:        00052503        lw x10 0 x10
    21f68:        00178793        addi x15 x15 1
    21f6c:        00458593        addi x11 x11 4
    21f70:        fea5ae23        sw x10 -4 x11
    21f74:        fef6d6e3        bge x13 x15 -20
    21f78:        00400613        addi x12 x0 4
    21f7c:        0b80006f        jal x0 184
    21f80:        05010593        addi x11 x2 80
    21f84:        00c58633        add x12 x11 x12
    21f88:        00062603        lw x12 0 x12
    21f8c:        00168693        addi x13 x13 1
    21f90:        00c76733        or x14 x14 x12
    21f94:        fb5ff06f        jal x0 -76
    21f98:        08010693        addi x13 x2 128
    21f9c:        00c686b3        add x13 x13 x12
    21fa0:        fd06a683        lw x13 -48 x13
    21fa4:        02000813        addi x16 x0 32
    21fa8:        40f80833        sub x16 x16 x15
    21fac:        010696b3        sll x13 x13 x16
    21fb0:        00d76733        or x14 x14 x13
    21fb4:        05010693        addi x13 x2 80
    21fb8:        00c68633        add x12 x13 x12
    21fbc:        00300693        addi x13 x0 3
    21fc0:        00000513        addi x10 x0 0
    21fc4:        411686b3        sub x13 x13 x17
    21fc8:        00460613        addi x12 x12 4
    21fcc:        02d54463        blt x10 x13 40
    21fd0:        08010613        addi x12 x2 128
    21fd4:        00269693        slli x13 x13 2
    21fd8:        00d606b3        add x13 x12 x13
    21fdc:        05c12603        lw x12 92 x2
    21fe0:        00f657b3        srl x15 x12 x15
    21fe4:        fcf6a823        sw x15 -48 x13
    21fe8:        00400793        addi x15 x0 4
    21fec:        411787b3        sub x15 x15 x17
    21ff0:        f89ff06f        jal x0 -120
    21ff4:        00251313        slli x6 x10 2
    21ff8:        05010593        addi x11 x2 80
    21ffc:        00658333        add x6 x11 x6
    22000:        00062e03        lw x28 0 x12
    22004:        ffc62583        lw x11 -4 x12
    22008:        00150513        addi x10 x10 1
    2200c:        010e1e33        sll x28 x28 x16
    22010:        00f5d5b3        srl x11 x11 x15
    22014:        01c5e5b3        or x11 x11 x28
    22018:        00b32023        sw x11 0 x6
    2201c:        fadff06f        jal x0 -84
    22020:        00279693        slli x13 x15 2
    22024:        05010593        addi x11 x2 80
    22028:        00d586b3        add x13 x11 x13
    2202c:        0006a023        sw x0 0 x13
    22030:        00178793        addi x15 x15 1
    22034:        fec796e3        bne x15 x12 -20
    22038:        05012683        lw x13 80 x2
    2203c:        00e03733        sltu x14 x0 x14
    22040:        00d76733        or x14 x14 x13
    22044:        04e12823        sw x14 80 x2
    22048:        00777693        andi x13 x14 7
    2204c:        04068263        beq x13 x0 68
    22050:        00f77693        andi x13 x14 15
    22054:        02f68e63        beq x13 x15 60
    22058:        05412783        lw x15 84 x2
    2205c:        00470713        addi x14 x14 4
    22060:        04e12823        sw x14 80 x2
    22064:        00473713        sltiu x14 x14 4
    22068:        00f707b3        add x15 x14 x15
    2206c:        00e7b733        sltu x14 x15 x14
    22070:        04f12a23        sw x15 84 x2
    22074:        05812783        lw x15 88 x2
    22078:        00f707b3        add x15 x14 x15
    2207c:        04f12c23        sw x15 88 x2
    22080:        00e7b7b3        sltu x15 x15 x14
    22084:        05c12703        lw x14 92 x2
    22088:        00e787b3        add x15 x15 x14
    2208c:        04f12e23        sw x15 92 x2
    22090:        05c12783        lw x15 92 x2
    22094:        00c79713        slli x14 x15 12
    22098:        00075e63        bge x14 x0 28
    2209c:        04012e23        sw x0 92 x2
    220a0:        04012c23        sw x0 88 x2
    220a4:        04012a23        sw x0 84 x2
    220a8:        04012823        sw x0 80 x2
    220ac:        00100793        addi x15 x0 1
    220b0:        d3dff06f        jal x0 -708
    220b4:        05010793        addi x15 x2 80
    220b8:        05c10613        addi x12 x2 92
    220bc:        0007a703        lw x14 0 x15
    220c0:        0047a683        lw x13 4 x15
    220c4:        00478793        addi x15 x15 4
    220c8:        00375713        srli x14 x14 3
    220cc:        01d69693        slli x13 x13 29
    220d0:        00d76733        or x14 x14 x13
    220d4:        fee7ae23        sw x14 -4 x15
    220d8:        fef612e3        bne x12 x15 -28
    220dc:        05c12783        lw x15 92 x2
    220e0:        0037d793        srli x15 x15 3
    220e4:        04f12e23        sw x15 92 x2
    220e8:        00000793        addi x15 x0 0
    220ec:        d01ff06f        jal x0 -768
    220f0:        05412783        lw x15 84 x2
    220f4:        05012703        lw x14 80 x2
    220f8:        00f76733        or x14 x14 x15
    220fc:        05812783        lw x15 88 x2
    22100:        00f76733        or x14 x14 x15
    22104:        05c12783        lw x15 92 x2
    22108:        00f76733        or x14 x14 x15
    2210c:        00000793        addi x15 x0 0
    22110:        cc070ee3        beq x14 x0 -804
    22114:        04012e23        sw x0 92 x2
    22118:        04012c23        sw x0 88 x2
    2211c:        04012a23        sw x0 84 x2
    22120:        04012823        sw x0 80 x2
    22124:        cc9ff06f        jal x0 -824
    22128:        000087b7        lui x15 0x8
    2212c:        04012e23        sw x0 92 x2
    22130:        04012c23        sw x0 88 x2
    22134:        04012a23        sw x0 84 x2
    22138:        04012823        sw x0 80 x2
    2213c:        fff78793        addi x15 x15 -1
    22140:        cadff06f        jal x0 -852
    22144:        000087b7        lui x15 0x8
    22148:        04f12e23        sw x15 92 x2
    2214c:        04012c23        sw x0 88 x2
    22150:        04012a23        sw x0 84 x2
    22154:        04012823        sw x0 80 x2
    22158:        fff78793        addi x15 x15 -1
    2215c:        00012823        sw x0 16 x2
    22160:        c8dff06f        jal x0 -884

00022164 <__subtf3>:
    22164:        fa010113        addi x2 x2 -96
    22168:        0085a783        lw x15 8 x11
    2216c:        05212823        sw x18 80 x2
    22170:        00c5a903        lw x18 12 x11
    22174:        0045a703        lw x14 4 x11
    22178:        04912a23        sw x9 84 x2
    2217c:        00050493        addi x9 x10 0
    22180:        0005a503        lw x10 0 x11
    22184:        02f12c23        sw x15 56 x2
    22188:        00f12c23        sw x15 24 x2
    2218c:        00062303        lw x6 0 x12
    22190:        01091793        slli x15 x18 16
    22194:        00462883        lw x17 4 x12
    22198:        00862683        lw x13 8 x12
    2219c:        00c62803        lw x16 12 x12
    221a0:        04812c23        sw x8 88 x2
    221a4:        0107d793        srli x15 x15 16
    221a8:        00191413        slli x8 x18 1
    221ac:        03212e23        sw x18 60 x2
    221b0:        04112e23        sw x1 92 x2
    221b4:        05312623        sw x19 76 x2
    221b8:        05412423        sw x20 72 x2
    221bc:        05512223        sw x21 68 x2
    221c0:        02a12823        sw x10 48 x2
    221c4:        02e12a23        sw x14 52 x2
    221c8:        00a12823        sw x10 16 x2
    221cc:        00e12a23        sw x14 20 x2
    221d0:        00f12e23        sw x15 28 x2
    221d4:        01145413        srli x8 x8 17
    221d8:        01f95913        srli x18 x18 31
    221dc:        01010e13        addi x28 x2 16
    221e0:        01c10593        addi x11 x2 28
    221e4:        0005a783        lw x15 0 x11
    221e8:        ffc5a703        lw x14 -4 x11
    221ec:        ffc58593        addi x11 x11 -4
    221f0:        00379793        slli x15 x15 3
    221f4:        01d75713        srli x14 x14 29
    221f8:        00e7e7b3        or x15 x15 x14
    221fc:        00f5a223        sw x15 4 x11
    22200:        febe12e3        bne x28 x11 -28
    22204:        01012703        lw x14 16 x2
    22208:        01081793        slli x15 x16 16
    2220c:        00181613        slli x12 x16 1
    22210:        00371713        slli x14 x14 3
    22214:        0107d793        srli x15 x15 16
    22218:        02612823        sw x6 48 x2
    2221c:        03112a23        sw x17 52 x2
    22220:        03012e23        sw x16 60 x2
    22224:        02612023        sw x6 32 x2
    22228:        03112223        sw x17 36 x2
    2222c:        00e12823        sw x14 16 x2
    22230:        02d12c23        sw x13 56 x2
    22234:        02d12423        sw x13 40 x2
    22238:        02f12623        sw x15 44 x2
    2223c:        01165613        srli x12 x12 17
    22240:        01f85813        srli x16 x16 31
    22244:        02010313        addi x6 x2 32
    22248:        02c10893        addi x17 x2 44
    2224c:        0008a783        lw x15 0 x17
    22250:        ffc8a683        lw x13 -4 x17
    22254:        ffc88893        addi x17 x17 -4
    22258:        00379793        slli x15 x15 3
    2225c:        01d6d693        srli x13 x13 29
    22260:        00d7e7b3        or x15 x15 x13
    22264:        00f8a223        sw x15 4 x17
    22268:        ff1312e3        bne x6 x17 -28
    2226c:        02012783        lw x15 32 x2
    22270:        000086b7        lui x13 0x8
    22274:        fff68693        addi x13 x13 -1
    22278:        00379793        slli x15 x15 3
    2227c:        02f12023        sw x15 32 x2
    22280:        02d61063        bne x12 x13 32
    22284:        02812503        lw x10 40 x2
    22288:        02412683        lw x13 36 x2
    2228c:        00a6e6b3        or x13 x13 x10
    22290:        02c12503        lw x10 44 x2
    22294:        00a6e6b3        or x13 x13 x10
    22298:        00f6e6b3        or x13 x13 x15
    2229c:        00069463        bne x13 x0 8
    222a0:        00184813        xori x16 x16 1
    222a4:        40c40533        sub x10 x8 x12
    222a8:        13281ce3        bne x16 x18 2360
    222ac:        30a05463        bge x0 x10 776
    222b0:        0c061663        bne x12 x0 204
    222b4:        02412583        lw x11 36 x2
    222b8:        02812603        lw x12 40 x2
    222bc:        02c12803        lw x16 44 x2
    222c0:        00c5e6b3        or x13 x11 x12
    222c4:        0106e6b3        or x13 x13 x16
    222c8:        00f6e6b3        or x13 x13 x15
    222cc:        02069063        bne x13 x0 32
    222d0:        01412783        lw x15 20 x2
    222d4:        02e12823        sw x14 48 x2
    222d8:        02f12a23        sw x15 52 x2
    222dc:        01812783        lw x15 24 x2
    222e0:        02f12c23        sw x15 56 x2
    222e4:        01c12783        lw x15 28 x2
    222e8:        30c0006f        jal x0 780
    222ec:        fff50693        addi x13 x10 -1
    222f0:        06069063        bne x13 x0 96
    222f4:        01412683        lw x13 20 x2
    222f8:        00f707b3        add x15 x14 x15
    222fc:        00e7b733        sltu x14 x15 x14
    22300:        00d585b3        add x11 x11 x13
    22304:        02f12823        sw x15 48 x2
    22308:        00e587b3        add x15 x11 x14
    2230c:        00e7b733        sltu x14 x15 x14
    22310:        02f12a23        sw x15 52 x2
    22314:        01812783        lw x15 24 x2
    22318:        00d5b6b3        sltu x13 x11 x13
    2231c:        00e6e733        or x14 x13 x14
    22320:        00f606b3        add x13 x12 x15
    22324:        00e68633        add x12 x13 x14
    22328:        00e63733        sltu x14 x12 x14
    2232c:        00f6b7b3        sltu x15 x13 x15
    22330:        00e7e7b3        or x15 x15 x14
    22334:        01c12703        lw x14 28 x2
    22338:        02c12c23        sw x12 56 x2
    2233c:        00e80833        add x16 x16 x14
    22340:        010787b3        add x15 x15 x16
    22344:        02f12e23        sw x15 60 x2
    22348:        00100413        addi x8 x0 1
    2234c:        1dc0006f        jal x0 476
    22350:        000087b7        lui x15 0x8
    22354:        fff78793        addi x15 x15 -1
    22358:        f6f50ce3        beq x10 x15 -136
    2235c:        07400793        addi x15 x0 116
    22360:        06d7d263        bge x15 x13 100
    22364:        00100793        addi x15 x0 1
    22368:        02012623        sw x0 44 x2
    2236c:        02012423        sw x0 40 x2
    22370:        02012223        sw x0 36 x2
    22374:        02f12023        sw x15 32 x2
    22378:        1480006f        jal x0 328
    2237c:        000087b7        lui x15 0x8
    22380:        fff78793        addi x15 x15 -1
    22384:        02f41263        bne x8 x15 36
    22388:        01412783        lw x15 20 x2
    2238c:        02e12823        sw x14 48 x2
    22390:        02f12a23        sw x15 52 x2
    22394:        01812783        lw x15 24 x2
    22398:        02f12c23        sw x15 56 x2
    2239c:        01c12783        lw x15 28 x2
    223a0:        02f12e23        sw x15 60 x2
    223a4:        2580006f        jal x0 600
    223a8:        02c12783        lw x15 44 x2
    223ac:        00080737        lui x14 0x80
    223b0:        00e7e7b3        or x15 x15 x14
    223b4:        02f12623        sw x15 44 x2
    223b8:        07400793        addi x15 x0 116
    223bc:        faa7c4e3        blt x15 x10 -88
    223c0:        00050693        addi x13 x10 0
    223c4:        4056de13        srai x28 x13 5
    223c8:        01f6f793        andi x15 x13 31
    223cc:        00000613        addi x12 x0 0
    223d0:        00000713        addi x14 x0 0
    223d4:        00271693        slli x13 x14 2
    223d8:        03c71863        bne x14 x28 48
    223dc:        04079063        bne x15 x0 64
    223e0:        00300593        addi x11 x0 3
    223e4:        40e58733        sub x14 x11 x14
    223e8:        00d885b3        add x11 x17 x13
    223ec:        0005a583        lw x11 0 x11
    223f0:        00178793        addi x15 x15 1
    223f4:        00488893        addi x17 x17 4
    223f8:        feb8ae23        sw x11 -4 x17
    223fc:        fef756e3        bge x14 x15 -20
    22400:        00400693        addi x13 x0 4
    22404:        0a80006f        jal x0 168
    22408:        00d306b3        add x13 x6 x13
    2240c:        0006a683        lw x13 0 x13
    22410:        00170713        addi x14 x14 1
    22414:        00d66633        or x12 x12 x13
    22418:        fbdff06f        jal x0 -68
    2241c:        04010713        addi x14 x2 64
    22420:        00d70733        add x14 x14 x13
    22424:        fe072703        lw x14 -32 x14
    22428:        02000813        addi x16 x0 32
    2242c:        40f80833        sub x16 x16 x15
    22430:        01071733        sll x14 x14 x16
    22434:        00e66633        or x12 x12 x14
    22438:        00300713        addi x14 x0 3
    2243c:        00d306b3        add x13 x6 x13
    22440:        00000513        addi x10 x0 0
    22444:        41c70733        sub x14 x14 x28
    22448:        00468693        addi x13 x13 4
    2244c:        02e54463        blt x10 x14 40
    22450:        04010693        addi x13 x2 64
    22454:        00271713        slli x14 x14 2
    22458:        00e68733        add x14 x13 x14
    2245c:        02c12683        lw x13 44 x2
    22460:        00f6d7b3        srl x15 x13 x15
    22464:        fef72023        sw x15 -32 x14
    22468:        00400793        addi x15 x0 4
    2246c:        41c787b3        sub x15 x15 x28
    22470:        f91ff06f        jal x0 -112
    22474:        ffc6a583        lw x11 -4 x13
    22478:        0006ae83        lw x29 0 x13
    2247c:        00251893        slli x17 x10 2
    22480:        00f5d5b3        srl x11 x11 x15
    22484:        010e9eb3        sll x29 x29 x16
    22488:        011308b3        add x17 x6 x17
    2248c:        01d5e5b3        or x11 x11 x29
    22490:        00b8a023        sw x11 0 x17
    22494:        00150513        addi x10 x10 1
    22498:        fb1ff06f        jal x0 -80
    2249c:        00279713        slli x14 x15 2
    224a0:        00e30733        add x14 x6 x14
    224a4:        00072023        sw x0 0 x14
    224a8:        00178793        addi x15 x15 1
    224ac:        fed798e3        bne x15 x13 -16
    224b0:        02012783        lw x15 32 x2
    224b4:        00c03633        sltu x12 x0 x12
    224b8:        00c7e633        or x12 x15 x12
    224bc:        02c12023        sw x12 32 x2
    224c0:        01012683        lw x13 16 x2
    224c4:        02012783        lw x15 32 x2
    224c8:        01412703        lw x14 20 x2
    224cc:        02812583        lw x11 40 x2
    224d0:        00f687b3        add x15 x13 x15
    224d4:        00d7b6b3        sltu x13 x15 x13
    224d8:        02f12823        sw x15 48 x2
    224dc:        02412783        lw x15 36 x2
    224e0:        02c12503        lw x10 44 x2
    224e4:        00f707b3        add x15 x14 x15
    224e8:        00d78633        add x12 x15 x13
    224ec:        00e7b733        sltu x14 x15 x14
    224f0:        00d637b3        sltu x15 x12 x13
    224f4:        00f767b3        or x15 x14 x15
    224f8:        01812703        lw x14 24 x2
    224fc:        01c12683        lw x13 28 x2
    22500:        02c12a23        sw x12 52 x2
    22504:        00b705b3        add x11 x14 x11
    22508:        00f58633        add x12 x11 x15
    2250c:        00e5b733        sltu x14 x11 x14
    22510:        00f637b3        sltu x15 x12 x15
    22514:        00a686b3        add x13 x13 x10
    22518:        00f76733        or x14 x14 x15
    2251c:        00e68733        add x14 x13 x14
    22520:        02c12c23        sw x12 56 x2
    22524:        02e12e23        sw x14 60 x2
    22528:        03c12783        lw x15 60 x2
    2252c:        00c79713        slli x14 x15 12
    22530:        0c075663        bge x14 x0 204
    22534:        fff80737        lui x14 0xfff80
    22538:        fff70713        addi x14 x14 -1
    2253c:        00e7f7b3        and x15 x15 x14
    22540:        02f12e23        sw x15 60 x2
    22544:        03012783        lw x15 48 x2
    22548:        00140413        addi x8 x8 1
    2254c:        03c10593        addi x11 x2 60
    22550:        01f79713        slli x14 x15 31
    22554:        03010793        addi x15 x2 48
    22558:        0007a683        lw x13 0 x15
    2255c:        0047a603        lw x12 4 x15
    22560:        00478793        addi x15 x15 4
    22564:        0016d693        srli x13 x13 1
    22568:        01f61613        slli x12 x12 31
    2256c:        00c6e6b3        or x13 x13 x12
    22570:        fed7ae23        sw x13 -4 x15
    22574:        fef592e3        bne x11 x15 -28
    22578:        03c12783        lw x15 60 x2
    2257c:        0017d793        srli x15 x15 1
    22580:        02f12e23        sw x15 60 x2
    22584:        00e037b3        sltu x15 x0 x14
    22588:        03012703        lw x14 48 x2
    2258c:        00f767b3        or x15 x14 x15
    22590:        02f12823        sw x15 48 x2
    22594:        000087b7        lui x15 0x8
    22598:        fff78793        addi x15 x15 -1
    2259c:        06f41063        bne x8 x15 96
    225a0:        02012e23        sw x0 60 x2
    225a4:        02012c23        sw x0 56 x2
    225a8:        02012a23        sw x0 52 x2
    225ac:        02012823        sw x0 48 x2
    225b0:        04c0006f        jal x0 76
    225b4:        40050863        beq x10 x0 1040
    225b8:        40860533        sub x10 x12 x8
    225bc:        22041c63        bne x8 x0 568
    225c0:        01412883        lw x17 20 x2
    225c4:        01812803        lw x16 24 x2
    225c8:        01c12303        lw x6 28 x2
    225cc:        0108e6b3        or x13 x17 x16
    225d0:        0066e6b3        or x13 x13 x6
    225d4:        00e6e6b3        or x13 x13 x14
    225d8:        18069863        bne x13 x0 400
    225dc:        02f12823        sw x15 48 x2
    225e0:        02412783        lw x15 36 x2
    225e4:        02f12a23        sw x15 52 x2
    225e8:        02812783        lw x15 40 x2
    225ec:        02f12c23        sw x15 56 x2
    225f0:        02c12783        lw x15 44 x2
    225f4:        02f12e23        sw x15 60 x2
    225f8:        00050413        addi x8 x10 0
    225fc:        03012783        lw x15 48 x2
    22600:        0077f713        andi x14 x15 7
    22604:        04070463        beq x14 x0 72
    22608:        00f7f713        andi x14 x15 15
    2260c:        00400693        addi x13 x0 4
    22610:        02d70e63        beq x14 x13 60
    22614:        03412703        lw x14 52 x2
    22618:        00478793        addi x15 x15 4
    2261c:        02f12823        sw x15 48 x2
    22620:        0047b793        sltiu x15 x15 4
    22624:        00e78733        add x14 x15 x14
    22628:        00f737b3        sltu x15 x14 x15
    2262c:        02e12a23        sw x14 52 x2
    22630:        03812703        lw x14 56 x2
    22634:        00e78733        add x14 x15 x14
    22638:        02e12c23        sw x14 56 x2
    2263c:        00f73733        sltu x14 x14 x15
    22640:        03c12783        lw x15 60 x2
    22644:        00f70733        add x14 x14 x15
    22648:        02e12e23        sw x14 60 x2
    2264c:        03c12783        lw x15 60 x2
    22650:        00c79713        slli x14 x15 12
    22654:        02075463        bge x14 x0 40
    22658:        00008737        lui x14 0x8
    2265c:        00140413        addi x8 x8 1
    22660:        fff70713        addi x14 x14 -1
    22664:        00e41463        bne x8 x14 8
    22668:        0080106f        jal x0 4104
    2266c:        fff80737        lui x14 0xfff80
    22670:        fff70713        addi x14 x14 -1
    22674:        00e7f7b3        and x15 x15 x14
    22678:        02f12e23        sw x15 60 x2
    2267c:        03010793        addi x15 x2 48
    22680:        03c10613        addi x12 x2 60
    22684:        0007a703        lw x14 0 x15
    22688:        0047a683        lw x13 4 x15
    2268c:        00478793        addi x15 x15 4
    22690:        00375713        srli x14 x14 3
    22694:        01d69693        slli x13 x13 29
    22698:        00d76733        or x14 x14 x13
    2269c:        fee7ae23        sw x14 -4 x15
    226a0:        fef612e3        bne x12 x15 -28
    226a4:        03c12783        lw x15 60 x2
    226a8:        000086b7        lui x13 0x8
    226ac:        0037d713        srli x14 x15 3
    226b0:        02e12e23        sw x14 60 x2
    226b4:        fff68793        addi x15 x13 -1
    226b8:        02f41a63        bne x8 x15 52
    226bc:        03412603        lw x12 52 x2
    226c0:        03012783        lw x15 48 x2
    226c4:        00c7e7b3        or x15 x15 x12
    226c8:        03812603        lw x12 56 x2
    226cc:        00c7e7b3        or x15 x15 x12
    226d0:        00e7e7b3        or x15 x15 x14
    226d4:        00078c63        beq x15 x0 24
    226d8:        02d12e23        sw x13 60 x2
    226dc:        02012c23        sw x0 56 x2
    226e0:        02012a23        sw x0 52 x2
    226e4:        02012823        sw x0 48 x2
    226e8:        00000913        addi x18 x0 0
    226ec:        03c12783        lw x15 60 x2
    226f0:        01141413        slli x8 x8 17
    226f4:        01145413        srli x8 x8 17
    226f8:        00f11623        sh x15 12 x2
    226fc:        01041793        slli x15 x8 16
    22700:        00c12403        lw x8 12 x2
    22704:        80010737        lui x14 0x80010
    22708:        fff70713        addi x14 x14 -1
    2270c:        00e47433        and x8 x8 x14
    22710:        00f46433        or x8 x8 x15
    22714:        03012783        lw x15 48 x2
    22718:        00141413        slli x8 x8 1
    2271c:        01f91913        slli x18 x18 31
    22720:        00f4a023        sw x15 0 x9
    22724:        03412783        lw x15 52 x2
    22728:        00145413        srli x8 x8 1
    2272c:        01246433        or x8 x8 x18
    22730:        00f4a223        sw x15 4 x9
    22734:        03812783        lw x15 56 x2
    22738:        0084a623        sw x8 12 x9
    2273c:        05c12083        lw x1 92 x2
    22740:        05812403        lw x8 88 x2
    22744:        00f4a423        sw x15 8 x9
    22748:        00048513        addi x10 x9 0
    2274c:        05012903        lw x18 80 x2
    22750:        05412483        lw x9 84 x2
    22754:        04c12983        lw x19 76 x2
    22758:        04812a03        lw x20 72 x2
    2275c:        04412a83        lw x21 68 x2
    22760:        06010113        addi x2 x2 96
    22764:        00008067        jalr x0 x1 0
    22768:        fff50693        addi x13 x10 -1
    2276c:        04069e63        bne x13 x0 92
    22770:        02412683        lw x13 36 x2
    22774:        00f70733        add x14 x14 x15
    22778:        00f737b3        sltu x15 x14 x15
    2277c:        00d88633        add x12 x17 x13
    22780:        02e12823        sw x14 48 x2
    22784:        00f60733        add x14 x12 x15
    22788:        00f737b3        sltu x15 x14 x15
    2278c:        02e12a23        sw x14 52 x2
    22790:        02812703        lw x14 40 x2
    22794:        00d636b3        sltu x13 x12 x13
    22798:        00f6e7b3        or x15 x13 x15
    2279c:        00e806b3        add x13 x16 x14
    227a0:        00f68633        add x12 x13 x15
    227a4:        00f637b3        sltu x15 x12 x15
    227a8:        00e6b733        sltu x14 x13 x14
    227ac:        00f76733        or x14 x14 x15
    227b0:        02c12783        lw x15 44 x2
    227b4:        02c12c23        sw x12 56 x2
    227b8:        00f30333        add x6 x6 x15
    227bc:        00670733        add x14 x14 x6
    227c0:        02e12e23        sw x14 60 x2
    227c4:        b85ff06f        jal x0 -1148
    227c8:        00008737        lui x14 0x8
    227cc:        fff70713        addi x14 x14 -1
    227d0:        e0e506e3        beq x10 x14 -500
    227d4:        07400793        addi x15 x0 116
    227d8:        06d7d463        bge x15 x13 104
    227dc:        00100793        addi x15 x0 1
    227e0:        00012e23        sw x0 28 x2
    227e4:        00012c23        sw x0 24 x2
    227e8:        00012a23        sw x0 20 x2
    227ec:        00f12823        sw x15 16 x2
    227f0:        1640006f        jal x0 356
    227f4:        00008737        lui x14 0x8
    227f8:        fff70713        addi x14 x14 -1
    227fc:        02e61463        bne x12 x14 40
    22800:        02f12823        sw x15 48 x2
    22804:        02412783        lw x15 36 x2
    22808:        00060413        addi x8 x12 0
    2280c:        02f12a23        sw x15 52 x2
    22810:        02812783        lw x15 40 x2
    22814:        02f12c23        sw x15 56 x2
    22818:        02c12783        lw x15 44 x2
    2281c:        02f12e23        sw x15 60 x2
    22820:        dddff06f        jal x0 -548
    22824:        01c12783        lw x15 28 x2
    22828:        00080737        lui x14 0x80
    2282c:        00e7e7b3        or x15 x15 x14
    22830:        00f12e23        sw x15 28 x2
    22834:        07400793        addi x15 x0 116
    22838:        faa7c2e3        blt x15 x10 -92
    2283c:        00050693        addi x13 x10 0
    22840:        02000793        addi x15 x0 32
    22844:        02f6c533        div x10 x13 x15
    22848:        00000713        addi x14 x0 0
    2284c:        02f6e7b3        rem x15 x13 x15
    22850:        00000693        addi x13 x0 0
    22854:        04a74063        blt x14 x10 64
    22858:        00050813        addi x16 x10 0
    2285c:        00055463        bge x10 x0 8
    22860:        00000813        addi x16 x0 0
    22864:        00251713        slli x14 x10 2
    22868:        04079263        bne x15 x0 68
    2286c:        00300813        addi x16 x0 3
    22870:        40a80533        sub x10 x16 x10
    22874:        00e58833        add x16 x11 x14
    22878:        00082803        lw x16 0 x16
    2287c:        00178793        addi x15 x15 1
    22880:        00458593        addi x11 x11 4
    22884:        ff05ae23        sw x16 -4 x11
    22888:        fef556e3        bge x10 x15 -20
    2288c:        00300593        addi x11 x0 3
    22890:        0b00006f        jal x0 176
    22894:        00271813        slli x16 x14 2
    22898:        010e0833        add x16 x28 x16
    2289c:        00082803        lw x16 0 x16
    228a0:        00170713        addi x14 x14 1
    228a4:        0106e6b3        or x13 x13 x16
    228a8:        fadff06f        jal x0 -84
    228ac:        04010593        addi x11 x2 64
    228b0:        00281813        slli x16 x16 2
    228b4:        01058833        add x16 x11 x16
    228b8:        fd082583        lw x11 -48 x16
    228bc:        02000313        addi x6 x0 32
    228c0:        40f30333        sub x6 x6 x15
    228c4:        006595b3        sll x11 x11 x6
    228c8:        00b6e6b3        or x13 x13 x11
    228cc:        00ee05b3        add x11 x28 x14
    228d0:        00300713        addi x14 x0 3
    228d4:        00000893        addi x17 x0 0
    228d8:        40a70733        sub x14 x14 x10
    228dc:        00458593        addi x11 x11 4
    228e0:        02e8c463        blt x17 x14 40
    228e4:        04010593        addi x11 x2 64
    228e8:        00271713        slli x14 x14 2
    228ec:        00e58733        add x14 x11 x14
    228f0:        01c12583        lw x11 28 x2
    228f4:        00f5d7b3        srl x15 x11 x15
    228f8:        fcf72823        sw x15 -48 x14
    228fc:        00400793        addi x15 x0 4
    22900:        40a787b3        sub x15 x15 x10
    22904:        f89ff06f        jal x0 -120
    22908:        ffc5a803        lw x16 -4 x11
    2290c:        0005af03        lw x30 0 x11
    22910:        00289e93        slli x29 x17 2
    22914:        00f85833        srl x16 x16 x15
    22918:        006f1f33        sll x30 x30 x6
    2291c:        01de0eb3        add x29 x28 x29
    22920:        01e86833        or x16 x16 x30
    22924:        010ea023        sw x16 0 x29
    22928:        00188893        addi x17 x17 1
    2292c:        fb1ff06f        jal x0 -80
    22930:        00279713        slli x14 x15 2
    22934:        00ee0733        add x14 x28 x14
    22938:        00072023        sw x0 0 x14
    2293c:        00178793        addi x15 x15 1
    22940:        fef5d8e3        bge x11 x15 -16
    22944:        01012783        lw x15 16 x2
    22948:        00d036b3        sltu x13 x0 x13
    2294c:        00d7e6b3        or x13 x15 x13
    22950:        00d12823        sw x13 16 x2
    22954:        02012683        lw x13 32 x2
    22958:        01012783        lw x15 16 x2
    2295c:        02412703        lw x14 36 x2
    22960:        01812503        lw x10 24 x2
    22964:        00f687b3        add x15 x13 x15
    22968:        00d7b6b3        sltu x13 x15 x13
    2296c:        02f12823        sw x15 48 x2
    22970:        01412783        lw x15 20 x2
    22974:        01c12803        lw x16 28 x2
    22978:        00060413        addi x8 x12 0
    2297c:        00f707b3        add x15 x14 x15
    22980:        00d785b3        add x11 x15 x13
    22984:        00e7b733        sltu x14 x15 x14
    22988:        00d5b7b3        sltu x15 x11 x13
    2298c:        00f767b3        or x15 x14 x15
    22990:        02812703        lw x14 40 x2
    22994:        02c12683        lw x13 44 x2
    22998:        02b12a23        sw x11 52 x2
    2299c:        00a70533        add x10 x14 x10
    229a0:        00f505b3        add x11 x10 x15
    229a4:        00e53733        sltu x14 x10 x14
    229a8:        00f5b7b3        sltu x15 x11 x15
    229ac:        010686b3        add x13 x13 x16
    229b0:        00f76733        or x14 x14 x15
    229b4:        00e68733        add x14 x13 x14
    229b8:        02b12c23        sw x11 56 x2
    229bc:        02e12e23        sw x14 60 x2
    229c0:        b69ff06f        jal x0 -1176
    229c4:        00008fb7        lui x31 0x8
    229c8:        00140f13        addi x30 x8 1
    229cc:        ffef8613        addi x12 x31 -2
    229d0:        00cf7633        and x12 x30 x12
    229d4:        02412683        lw x13 36 x2
    229d8:        02812583        lw x11 40 x2
    229dc:        02c12503        lw x10 44 x2
    229e0:        01412303        lw x6 20 x2
    229e4:        01812883        lw x17 24 x2
    229e8:        01c12e03        lw x28 28 x2
    229ec:        03010813        addi x16 x2 48
    229f0:        03c10e93        addi x29 x2 60
    229f4:        14061663        bne x12 x0 332
    229f8:        01136633        or x12 x6 x17
    229fc:        01c66633        or x12 x12 x28
    22a00:        00e66633        or x12 x12 x14
    22a04:        0a041663        bne x8 x0 172
    22a08:        00061c63        bne x12 x0 24
    22a0c:        02f12823        sw x15 48 x2
    22a10:        02d12a23        sw x13 52 x2
    22a14:        02b12c23        sw x11 56 x2
    22a18:        02a12e23        sw x10 60 x2
    22a1c:        be1ff06f        jal x0 -1056
    22a20:        00b6e633        or x12 x13 x11
    22a24:        00a66633        or x12 x12 x10
    22a28:        00f66633        or x12 x12 x15
    22a2c:        00061c63        bne x12 x0 24
    22a30:        02e12823        sw x14 48 x2
    22a34:        02612a23        sw x6 52 x2
    22a38:        03112c23        sw x17 56 x2
    22a3c:        03c12e23        sw x28 60 x2
    22a40:        bbdff06f        jal x0 -1092
    22a44:        00f707b3        add x15 x14 x15
    22a48:        00e7b733        sltu x14 x15 x14
    22a4c:        006686b3        add x13 x13 x6
    22a50:        02f12823        sw x15 48 x2
    22a54:        00e687b3        add x15 x13 x14
    22a58:        00e7b733        sltu x14 x15 x14
    22a5c:        0066b6b3        sltu x13 x13 x6
    22a60:        00e6e733        or x14 x13 x14
    22a64:        011585b3        add x11 x11 x17
    22a68:        02f12a23        sw x15 52 x2
    22a6c:        00e587b3        add x15 x11 x14
    22a70:        0115b633        sltu x12 x11 x17
    22a74:        00e7b733        sltu x14 x15 x14
    22a78:        00e66733        or x14 x12 x14
    22a7c:        01c50633        add x12 x10 x28
    22a80:        00c70633        add x12 x14 x12
    22a84:        02f12c23        sw x15 56 x2
    22a88:        00c61793        slli x15 x12 12
    22a8c:        0007c663        blt x15 x0 12
    22a90:        02c12e23        sw x12 60 x2
    22a94:        b69ff06f        jal x0 -1176
    22a98:        fff80737        lui x14 0xfff80
    22a9c:        fff70713        addi x14 x14 -1
    22aa0:        00e67633        and x12 x12 x14
    22aa4:        02c12e23        sw x12 60 x2
    22aa8:        00100413        addi x8 x0 1
    22aac:        b51ff06f        jal x0 -1200
    22ab0:        00061e63        bne x12 x0 28
    22ab4:        02f12823        sw x15 48 x2
    22ab8:        02d12a23        sw x13 52 x2
    22abc:        02b12c23        sw x11 56 x2
    22ac0:        02a12e23        sw x10 60 x2
    22ac4:        ffff8413        addi x8 x31 -1
    22ac8:        b35ff06f        jal x0 -1228
    22acc:        00b6e633        or x12 x13 x11
    22ad0:        00a66633        or x12 x12 x10
    22ad4:        00f667b3        or x15 x12 x15
    22ad8:        00079c63        bne x15 x0 24
    22adc:        02e12823        sw x14 48 x2
    22ae0:        02612a23        sw x6 52 x2
    22ae4:        03112c23        sw x17 56 x2
    22ae8:        03c12e23        sw x28 60 x2
    22aec:        fd9ff06f        jal x0 -40
    22af0:        03f12e23        sw x31 60 x2
    22af4:        02012c23        sw x0 56 x2
    22af8:        02012a23        sw x0 52 x2
    22afc:        02012823        sw x0 48 x2
    22b00:        000e8793        addi x15 x29 0
    22b04:        0007a703        lw x14 0 x15
    22b08:        ffc7a683        lw x13 -4 x15
    22b0c:        ffc78793        addi x15 x15 -4
    22b10:        00371713        slli x14 x14 3
    22b14:        01d6d693        srli x13 x13 29
    22b18:        00d76733        or x14 x14 x13
    22b1c:        00e7a223        sw x14 4 x15
    22b20:        fef812e3        bne x16 x15 -28
    22b24:        03012783        lw x15 48 x2
    22b28:        00008437        lui x8 0x8
    22b2c:        00000913        addi x18 x0 0
    22b30:        00379793        slli x15 x15 3
    22b34:        02f12823        sw x15 48 x2
    22b38:        fff40413        addi x8 x8 -1
    22b3c:        ac1ff06f        jal x0 -1344
    22b40:        00f707b3        add x15 x14 x15
    22b44:        00e7b733        sltu x14 x15 x14
    22b48:        006686b3        add x13 x13 x6
    22b4c:        02f12823        sw x15 48 x2
    22b50:        00e687b3        add x15 x13 x14
    22b54:        00e7b733        sltu x14 x15 x14
    22b58:        0066b6b3        sltu x13 x13 x6
    22b5c:        00e6e733        or x14 x13 x14
    22b60:        01158633        add x12 x11 x17
    22b64:        00e606b3        add x13 x12 x14
    22b68:        00e6b733        sltu x14 x13 x14
    22b6c:        01163633        sltu x12 x12 x17
    22b70:        00e66633        or x12 x12 x14
    22b74:        01c50733        add x14 x10 x28
    22b78:        00e60633        add x12 x12 x14
    22b7c:        02f12a23        sw x15 52 x2
    22b80:        02d12c23        sw x13 56 x2
    22b84:        02c12e23        sw x12 60 x2
    22b88:        00080793        addi x15 x16 0
    22b8c:        0007a703        lw x14 0 x15
    22b90:        0047a683        lw x13 4 x15
    22b94:        00478793        addi x15 x15 4
    22b98:        00175713        srli x14 x14 1
    22b9c:        01f69693        slli x13 x13 31
    22ba0:        00d76733        or x14 x14 x13
    22ba4:        fee7ae23        sw x14 -4 x15
    22ba8:        fefe92e3        bne x29 x15 -28
    22bac:        000087b7        lui x15 0x8
    22bb0:        fff78793        addi x15 x15 -1
    22bb4:        00ff0c63        beq x30 x15 24
    22bb8:        03c12783        lw x15 60 x2
    22bbc:        0017d793        srli x15 x15 1
    22bc0:        02f12e23        sw x15 60 x2
    22bc4:        000f0413        addi x8 x30 0
    22bc8:        a35ff06f        jal x0 -1484
    22bcc:        02012e23        sw x0 60 x2
    22bd0:        02012c23        sw x0 56 x2
    22bd4:        02012a23        sw x0 52 x2
    22bd8:        02012823        sw x0 48 x2
    22bdc:        fe9ff06f        jal x0 -24
    22be0:        28a05263        bge x0 x10 644
    22be4:        0c061263        bne x12 x0 196
    22be8:        02412803        lw x16 36 x2
    22bec:        02812603        lw x12 40 x2
    22bf0:        02c12e03        lw x28 44 x2
    22bf4:        00c865b3        or x11 x16 x12
    22bf8:        01c5e5b3        or x11 x11 x28
    22bfc:        00f5e5b3        or x11 x11 x15
    22c00:        ec058863        beq x11 x0 -2352
    22c04:        fff50693        addi x13 x10 -1
    22c08:        06069a63        bne x13 x0 116
    22c0c:        01412883        lw x17 20 x2
    22c10:        40f707b3        sub x15 x14 x15
    22c14:        00f735b3        sltu x11 x14 x15
    22c18:        41088533        sub x10 x17 x16
    22c1c:        00a8b333        sltu x6 x17 x10
    22c20:        40b50533        sub x10 x10 x11
    22c24:        02f12823        sw x15 48 x2
    22c28:        02a12a23        sw x10 52 x2
    22c2c:        00000593        addi x11 x0 0
    22c30:        00f77663        bgeu x14 x15 12
    22c34:        411805b3        sub x11 x16 x17
    22c38:        0015b593        sltiu x11 x11 1
    22c3c:        01812803        lw x16 24 x2
    22c40:        0065e5b3        or x11 x11 x6
    22c44:        40c80533        sub x10 x16 x12
    22c48:        00a837b3        sltu x15 x16 x10
    22c4c:        40b50533        sub x10 x10 x11
    22c50:        02a12c23        sw x10 56 x2
    22c54:        00058663        beq x11 x0 12
    22c58:        41060633        sub x12 x12 x16
    22c5c:        00163693        sltiu x13 x12 1
    22c60:        01c12703        lw x14 28 x2
    22c64:        00f6e7b3        or x15 x13 x15
    22c68:        41c70733        sub x14 x14 x28
    22c6c:        40f707b3        sub x15 x14 x15
    22c70:        02f12e23        sw x15 60 x2
    22c74:        00100413        addi x8 x0 1
    22c78:        1cc0006f        jal x0 460
    22c7c:        000087b7        lui x15 0x8
    22c80:        fff78793        addi x15 x15 -1
    22c84:        e4f50663        beq x10 x15 -2484
    22c88:        07400793        addi x15 x0 116
    22c8c:        04d7d263        bge x15 x13 68
    22c90:        00100793        addi x15 x0 1
    22c94:        02012623        sw x0 44 x2
    22c98:        02012423        sw x0 40 x2
    22c9c:        02012223        sw x0 36 x2
    22ca0:        02f12023        sw x15 32 x2
    22ca4:        1280006f        jal x0 296
    22ca8:        000087b7        lui x15 0x8
    22cac:        fff78793        addi x15 x15 -1
    22cb0:        ecf40c63        beq x8 x15 -2344
    22cb4:        02c12783        lw x15 44 x2
    22cb8:        00080737        lui x14 0x80
    22cbc:        00e7e7b3        or x15 x15 x14
    22cc0:        02f12623        sw x15 44 x2
    22cc4:        07400793        addi x15 x0 116
    22cc8:        fca7c4e3        blt x15 x10 -56
    22ccc:        00050693        addi x13 x10 0
    22cd0:        4056de13        srai x28 x13 5
    22cd4:        01f6f793        andi x15 x13 31
    22cd8:        00000613        addi x12 x0 0
    22cdc:        00000713        addi x14 x0 0
    22ce0:        00271693        slli x13 x14 2
    22ce4:        03c71863        bne x14 x28 48
    22ce8:        04079063        bne x15 x0 64
    22cec:        00300593        addi x11 x0 3
    22cf0:        40e58733        sub x14 x11 x14
    22cf4:        00d885b3        add x11 x17 x13
    22cf8:        0005a583        lw x11 0 x11
    22cfc:        00178793        addi x15 x15 1
    22d00:        00488893        addi x17 x17 4
    22d04:        feb8ae23        sw x11 -4 x17
    22d08:        fef756e3        bge x14 x15 -20
    22d0c:        00400693        addi x13 x0 4
    22d10:        0a80006f        jal x0 168
    22d14:        00d306b3        add x13 x6 x13
    22d18:        0006a683        lw x13 0 x13
    22d1c:        00170713        addi x14 x14 1
    22d20:        00d66633        or x12 x12 x13
    22d24:        fbdff06f        jal x0 -68
    22d28:        04010713        addi x14 x2 64
    22d2c:        00d70733        add x14 x14 x13
    22d30:        fe072703        lw x14 -32 x14
    22d34:        02000813        addi x16 x0 32
    22d38:        40f80833        sub x16 x16 x15
    22d3c:        01071733        sll x14 x14 x16
    22d40:        00e66633        or x12 x12 x14
    22d44:        00300713        addi x14 x0 3
    22d48:        00d306b3        add x13 x6 x13
    22d4c:        00000513        addi x10 x0 0
    22d50:        41c70733        sub x14 x14 x28
    22d54:        00468693        addi x13 x13 4
    22d58:        02e54463        blt x10 x14 40
    22d5c:        04010693        addi x13 x2 64
    22d60:        00271713        slli x14 x14 2
    22d64:        00e68733        add x14 x13 x14
    22d68:        02c12683        lw x13 44 x2
    22d6c:        00f6d7b3        srl x15 x13 x15
    22d70:        fef72023        sw x15 -32 x14
    22d74:        00400793        addi x15 x0 4
    22d78:        41c787b3        sub x15 x15 x28
    22d7c:        f91ff06f        jal x0 -112
    22d80:        ffc6a583        lw x11 -4 x13
    22d84:        0006ae83        lw x29 0 x13
    22d88:        00251893        slli x17 x10 2
    22d8c:        00f5d5b3        srl x11 x11 x15
    22d90:        010e9eb3        sll x29 x29 x16
    22d94:        011308b3        add x17 x6 x17
    22d98:        01d5e5b3        or x11 x11 x29
    22d9c:        00b8a023        sw x11 0 x17
    22da0:        00150513        addi x10 x10 1
    22da4:        fb1ff06f        jal x0 -80
    22da8:        00279713        slli x14 x15 2
    22dac:        00e30733        add x14 x6 x14
    22db0:        00072023        sw x0 0 x14
    22db4:        00178793        addi x15 x15 1
    22db8:        fed798e3        bne x15 x13 -16
    22dbc:        02012783        lw x15 32 x2
    22dc0:        00c03633        sltu x12 x0 x12
    22dc4:        00c7e633        or x12 x15 x12
    22dc8:        02c12023        sw x12 32 x2
    22dcc:        01412683        lw x13 20 x2
    22dd0:        01012583        lw x11 16 x2
    22dd4:        02012703        lw x14 32 x2
    22dd8:        02412783        lw x15 36 x2
    22ddc:        40e58733        sub x14 x11 x14
    22de0:        40f687b3        sub x15 x13 x15
    22de4:        00f6b633        sltu x12 x13 x15
    22de8:        00e5b6b3        sltu x13 x11 x14
    22dec:        40d786b3        sub x13 x15 x13
    22df0:        02d12a23        sw x13 52 x2
    22df4:        02e12823        sw x14 48 x2
    22df8:        00000693        addi x13 x0 0
    22dfc:        00e5f463        bgeu x11 x14 8
    22e00:        0017b693        sltiu x13 x15 1
    22e04:        00c6e6b3        or x13 x13 x12
    22e08:        02812703        lw x14 40 x2
    22e0c:        01812603        lw x12 24 x2
    22e10:        40e60733        sub x14 x12 x14
    22e14:        40d707b3        sub x15 x14 x13
    22e18:        02f12c23        sw x15 56 x2
    22e1c:        00e635b3        sltu x11 x12 x14
    22e20:        00000613        addi x12 x0 0
    22e24:        00068463        beq x13 x0 8
    22e28:        00173613        sltiu x12 x14 1
    22e2c:        01c12783        lw x15 28 x2
    22e30:        02c12703        lw x14 44 x2
    22e34:        00b66633        or x12 x12 x11
    22e38:        40e787b3        sub x15 x15 x14
    22e3c:        40c787b3        sub x15 x15 x12
    22e40:        02f12e23        sw x15 60 x2
    22e44:        03c12783        lw x15 60 x2
    22e48:        00c79713        slli x14 x15 12
    22e4c:        fa075863        bge x14 x0 -2128
    22e50:        00080737        lui x14 0x80
    22e54:        fff70713        addi x14 x14 -1
    22e58:        00e7f7b3        and x15 x15 x14
    22e5c:        02f12e23        sw x15 60 x2
    22e60:        5a40006f        jal x0 1444
    22e64:        2c050e63        beq x10 x0 732
    22e68:        408606b3        sub x13 x12 x8
    22e6c:        0e041663        bne x8 x0 236
    22e70:        01412303        lw x6 20 x2
    22e74:        01812883        lw x17 24 x2
    22e78:        01c12f03        lw x30 28 x2
    22e7c:        01136eb3        or x29 x6 x17
    22e80:        01eeeeb3        or x29 x29 x30
    22e84:        00eeeeb3        or x29 x29 x14
    22e88:        020e9663        bne x29 x0 44
    22e8c:        02f12823        sw x15 48 x2
    22e90:        02412783        lw x15 36 x2
    22e94:        00068413        addi x8 x13 0
    22e98:        02f12a23        sw x15 52 x2
    22e9c:        02812783        lw x15 40 x2
    22ea0:        02f12c23        sw x15 56 x2
    22ea4:        02c12783        lw x15 44 x2
    22ea8:        02f12e23        sw x15 60 x2
    22eac:        00080913        addi x18 x16 0
    22eb0:        f4cff06f        jal x0 -2228
    22eb4:        fff68513        addi x10 x13 -1
    22eb8:        06051a63        bne x10 x0 116
    22ebc:        02412583        lw x11 36 x2
    22ec0:        40e78733        sub x14 x15 x14
    22ec4:        00e7b6b3        sltu x13 x15 x14
    22ec8:        40658633        sub x12 x11 x6
    22ecc:        00c5be33        sltu x28 x11 x12
    22ed0:        40d60633        sub x12 x12 x13
    22ed4:        02e12823        sw x14 48 x2
    22ed8:        02c12a23        sw x12 52 x2
    22edc:        00000693        addi x13 x0 0
    22ee0:        00e7f663        bgeu x15 x14 12
    22ee4:        40b306b3        sub x13 x6 x11
    22ee8:        0016b693        sltiu x13 x13 1
    22eec:        02812583        lw x11 40 x2
    22ef0:        01c6e733        or x14 x13 x28
    22ef4:        411586b3        sub x13 x11 x17
    22ef8:        00d5b633        sltu x12 x11 x13
    22efc:        40e686b3        sub x13 x13 x14
    22f00:        02d12c23        sw x13 56 x2
    22f04:        00070663        beq x14 x0 12
    22f08:        40b888b3        sub x17 x17 x11
    22f0c:        0018b513        sltiu x10 x17 1
    22f10:        02c12783        lw x15 44 x2
    22f14:        00c56533        or x10 x10 x12
    22f18:        00080913        addi x18 x16 0
    22f1c:        41e787b3        sub x15 x15 x30
    22f20:        40a78533        sub x10 x15 x10
    22f24:        02a12e23        sw x10 60 x2
    22f28:        d4dff06f        jal x0 -692
    22f2c:        00008737        lui x14 0x8
    22f30:        fff70713        addi x14 x14 -1
    22f34:        f4e68ce3        beq x13 x14 -168
    22f38:        07400793        addi x15 x0 116
    22f3c:        0aa7dc63        bge x15 x10 184
    22f40:        00100793        addi x15 x0 1
    22f44:        00012e23        sw x0 28 x2
    22f48:        00012c23        sw x0 24 x2
    22f4c:        00012a23        sw x0 20 x2
    22f50:        00f12823        sw x15 16 x2
    22f54:        1680006f        jal x0 360
    22f58:        00008737        lui x14 0x8
    22f5c:        fff70713        addi x14 x14 -1
    22f60:        02e61463        bne x12 x14 40
    22f64:        02f12823        sw x15 48 x2
    22f68:        02412783        lw x15 36 x2
    22f6c:        00060413        addi x8 x12 0
    22f70:        02f12a23        sw x15 52 x2
    22f74:        02812783        lw x15 40 x2
    22f78:        02f12c23        sw x15 56 x2
    22f7c:        02c12783        lw x15 44 x2
    22f80:        02f12e23        sw x15 60 x2
    22f84:        f29ff06f        jal x0 -216
    22f88:        01c12783        lw x15 28 x2
    22f8c:        00080737        lui x14 0x80
    22f90:        00e7e7b3        or x15 x15 x14
    22f94:        00f12e23        sw x15 28 x2
    22f98:        07400793        addi x15 x0 116
    22f9c:        fad7c2e3        blt x15 x13 -92
    22fa0:        02000793        addi x15 x0 32
    22fa4:        02f6c533        div x10 x13 x15
    22fa8:        00000713        addi x14 x0 0
    22fac:        02f6e7b3        rem x15 x13 x15
    22fb0:        00000693        addi x13 x0 0
    22fb4:        04a74463        blt x14 x10 72
    22fb8:        00050893        addi x17 x10 0
    22fbc:        00055463        bge x10 x0 8
    22fc0:        00000893        addi x17 x0 0
    22fc4:        00251713        slli x14 x10 2
    22fc8:        04079663        bne x15 x0 76
    22fcc:        00300893        addi x17 x0 3
    22fd0:        40a88533        sub x10 x17 x10
    22fd4:        00e588b3        add x17 x11 x14
    22fd8:        0008a883        lw x17 0 x17
    22fdc:        00178793        addi x15 x15 1
    22fe0:        00458593        addi x11 x11 4
    22fe4:        ff15ae23        sw x17 -4 x11
    22fe8:        fef556e3        bge x10 x15 -20
    22fec:        00300593        addi x11 x0 3
    22ff0:        0b80006f        jal x0 184
    22ff4:        00050693        addi x13 x10 0
    22ff8:        fa9ff06f        jal x0 -88
    22ffc:        00271893        slli x17 x14 2
    23000:        011e08b3        add x17 x28 x17
    23004:        0008a883        lw x17 0 x17
    23008:        00170713        addi x14 x14 1
    2300c:        0116e6b3        or x13 x13 x17
    23010:        fa5ff06f        jal x0 -92
    23014:        04010593        addi x11 x2 64
    23018:        00289893        slli x17 x17 2
    2301c:        011588b3        add x17 x11 x17
    23020:        fd08a583        lw x11 -48 x17
    23024:        02000e93        addi x29 x0 32
    23028:        40fe8eb3        sub x29 x29 x15
    2302c:        01d595b3        sll x11 x11 x29
    23030:        00b6e6b3        or x13 x13 x11
    23034:        00ee05b3        add x11 x28 x14
    23038:        00300713        addi x14 x0 3
    2303c:        00000313        addi x6 x0 0
    23040:        40a70733        sub x14 x14 x10
    23044:        00458593        addi x11 x11 4
    23048:        02e34463        blt x6 x14 40
    2304c:        04010593        addi x11 x2 64
    23050:        00271713        slli x14 x14 2
    23054:        00e58733        add x14 x11 x14
    23058:        01c12583        lw x11 28 x2
    2305c:        00f5d7b3        srl x15 x11 x15
    23060:        fcf72823        sw x15 -48 x14
    23064:        00400793        addi x15 x0 4
    23068:        40a787b3        sub x15 x15 x10
    2306c:        f81ff06f        jal x0 -128
    23070:        ffc5a883        lw x17 -4 x11
    23074:        0005af83        lw x31 0 x11
    23078:        00231f13        slli x30 x6 2
    2307c:        00f8d8b3        srl x17 x17 x15
    23080:        01df9fb3        sll x31 x31 x29
    23084:        01ee0f33        add x30 x28 x30
    23088:        01f8e8b3        or x17 x17 x31
    2308c:        011f2023        sw x17 0 x30
    23090:        00130313        addi x6 x6 1
    23094:        fb1ff06f        jal x0 -80
    23098:        00279713        slli x14 x15 2
    2309c:        00ee0733        add x14 x28 x14
    230a0:        00072023        sw x0 0 x14
    230a4:        00178793        addi x15 x15 1
    230a8:        fef5d8e3        bge x11 x15 -16
    230ac:        01012783        lw x15 16 x2
    230b0:        00d036b3        sltu x13 x0 x13
    230b4:        00d7e6b3        or x13 x15 x13
    230b8:        00d12823        sw x13 16 x2
    230bc:        02412683        lw x13 36 x2
    230c0:        02012503        lw x10 32 x2
    230c4:        01012703        lw x14 16 x2
    230c8:        01412783        lw x15 20 x2
    230cc:        40e50733        sub x14 x10 x14
    230d0:        40f687b3        sub x15 x13 x15
    230d4:        00f6b5b3        sltu x11 x13 x15
    230d8:        00e536b3        sltu x13 x10 x14
    230dc:        40d786b3        sub x13 x15 x13
    230e0:        02d12a23        sw x13 52 x2
    230e4:        02e12823        sw x14 48 x2
    230e8:        00000693        addi x13 x0 0
    230ec:        00e57463        bgeu x10 x14 8
    230f0:        0017b693        sltiu x13 x15 1
    230f4:        00b6e6b3        or x13 x13 x11
    230f8:        01812703        lw x14 24 x2
    230fc:        02812583        lw x11 40 x2
    23100:        40e58733        sub x14 x11 x14
    23104:        40d707b3        sub x15 x14 x13
    23108:        02f12c23        sw x15 56 x2
    2310c:        00e5b533        sltu x10 x11 x14
    23110:        00000593        addi x11 x0 0
    23114:        00068463        beq x13 x0 8
    23118:        00173593        sltiu x11 x14 1
    2311c:        02c12783        lw x15 44 x2
    23120:        01c12703        lw x14 28 x2
    23124:        00a5e5b3        or x11 x11 x10
    23128:        00060413        addi x8 x12 0
    2312c:        40e787b3        sub x15 x15 x14
    23130:        40b787b3        sub x15 x15 x11
    23134:        02f12e23        sw x15 60 x2
    23138:        00080913        addi x18 x16 0
    2313c:        d09ff06f        jal x0 -760
    23140:        00008f37        lui x30 0x8
    23144:        ffef0693        addi x13 x30 -2
    23148:        00140593        addi x11 x8 1
    2314c:        00d5f5b3        and x11 x11 x13
    23150:        02412603        lw x12 36 x2
    23154:        01412683        lw x13 20 x2
    23158:        01812883        lw x17 24 x2
    2315c:        01c12e83        lw x29 28 x2
    23160:        02812303        lw x6 40 x2
    23164:        02c12e03        lw x28 44 x2
    23168:        1e059063        bne x11 x0 480
    2316c:        006665b3        or x11 x12 x6
    23170:        0116e533        or x10 x13 x17
    23174:        01c5e5b3        or x11 x11 x28
    23178:        01d56533        or x10 x10 x29
    2317c:        00f5e5b3        or x11 x11 x15
    23180:        00e56533        or x10 x10 x14
    23184:        10041a63        bne x8 x0 276
    23188:        02051463        bne x10 x0 40
    2318c:        02f12823        sw x15 48 x2
    23190:        02c12a23        sw x12 52 x2
    23194:        02612c23        sw x6 56 x2
    23198:        03c12e23        sw x28 60 x2
    2319c:        00080913        addi x18 x16 0
    231a0:        c4059e63        bne x11 x0 -2980
    231a4:        00000413        addi x8 x0 0
    231a8:        00000913        addi x18 x0 0
    231ac:        c50ff06f        jal x0 -2992
    231b0:        00059c63        bne x11 x0 24
    231b4:        02e12823        sw x14 48 x2
    231b8:        02d12a23        sw x13 52 x2
    231bc:        03112c23        sw x17 56 x2
    231c0:        03d12e23        sw x29 60 x2
    231c4:        c38ff06f        jal x0 -3016
    231c8:        40f705b3        sub x11 x14 x15
    231cc:        40c68fb3        sub x31 x13 x12
    231d0:        00b73f33        sltu x30 x14 x11
    231d4:        01f6b533        sltu x10 x13 x31
    231d8:        41ef8fb3        sub x31 x31 x30
    231dc:        02b12823        sw x11 48 x2
    231e0:        03f12a23        sw x31 52 x2
    231e4:        00000f13        addi x30 x0 0
    231e8:        00b77663        bgeu x14 x11 12
    231ec:        40d60f33        sub x30 x12 x13
    231f0:        001f3f13        sltiu x30 x30 1
    231f4:        406882b3        sub x5 x17 x6
    231f8:        00af6f33        or x30 x30 x10
    231fc:        41e289b3        sub x19 x5 x30
    23200:        03312c23        sw x19 56 x2
    23204:        0058ba33        sltu x20 x17 x5
    23208:        00000393        addi x7 x0 0
    2320c:        000f0463        beq x30 x0 8
    23210:        0012b393        sltiu x7 x5 1
    23214:        41ce8533        sub x10 x29 x28
    23218:        0143e3b3        or x7 x7 x20
    2321c:        40750533        sub x10 x10 x7
    23220:        02a12e23        sw x10 60 x2
    23224:        00c51f13        slli x30 x10 12
    23228:        060f5063        bge x30 x0 96
    2322c:        40e78733        sub x14 x15 x14
    23230:        40d606b3        sub x13 x12 x13
    23234:        00e7b5b3        sltu x11 x15 x14
    23238:        40b685b3        sub x11 x13 x11
    2323c:        02b12a23        sw x11 52 x2
    23240:        02e12823        sw x14 48 x2
    23244:        00d63633        sltu x12 x12 x13
    23248:        00000593        addi x11 x0 0
    2324c:        00e7f463        bgeu x15 x14 8
    23250:        0016b593        sltiu x11 x13 1
    23254:        00c5e633        or x12 x11 x12
    23258:        41130733        sub x14 x6 x17
    2325c:        00e336b3        sltu x13 x6 x14
    23260:        40c70733        sub x14 x14 x12
    23264:        02e12c23        sw x14 56 x2
    23268:        00000593        addi x11 x0 0
    2326c:        00060463        beq x12 x0 8
    23270:        0012b593        sltiu x11 x5 1
    23274:        41de0733        sub x14 x28 x29
    23278:        00d5e5b3        or x11 x11 x13
    2327c:        40b705b3        sub x11 x14 x11
    23280:        02b12e23        sw x11 60 x2
    23284:        c29ff06f        jal x0 -984
    23288:        01f5e5b3        or x11 x11 x31
    2328c:        0135e5b3        or x11 x11 x19
    23290:        00a5e5b3        or x11 x11 x10
    23294:        f0dff06f        jal x0 -244
    23298:        03010f93        addi x31 x2 48
    2329c:        04051e63        bne x10 x0 92
    232a0:        02059e63        bne x11 x0 60
    232a4:        03e12e23        sw x30 60 x2
    232a8:        02012c23        sw x0 56 x2
    232ac:        02012a23        sw x0 52 x2
    232b0:        02012823        sw x0 48 x2
    232b4:        03c10793        addi x15 x2 60
    232b8:        0007a703        lw x14 0 x15
    232bc:        ffc7a683        lw x13 -4 x15
    232c0:        ffc78793        addi x15 x15 -4
    232c4:        00371713        slli x14 x14 3
    232c8:        01d6d693        srli x13 x13 29
    232cc:        00d76733        or x14 x14 x13
    232d0:        00e7a223        sw x14 4 x15
    232d4:        feff92e3        bne x31 x15 -28
    232d8:        84dff06f        jal x0 -1972
    232dc:        02f12823        sw x15 48 x2
    232e0:        02c12a23        sw x12 52 x2
    232e4:        02612c23        sw x6 56 x2
    232e8:        03c12e23        sw x28 60 x2
    232ec:        00080913        addi x18 x16 0
    232f0:        ffff0413        addi x8 x30 -1
    232f4:        b08ff06f        jal x0 -3320
    232f8:        00059c63        bne x11 x0 24
    232fc:        02e12823        sw x14 48 x2
    23300:        02d12a23        sw x13 52 x2
    23304:        03112c23        sw x17 56 x2
    23308:        03d12e23        sw x29 60 x2
    2330c:        fe5ff06f        jal x0 -28
    23310:        03e12e23        sw x30 60 x2
    23314:        02012c23        sw x0 56 x2
    23318:        02012a23        sw x0 52 x2
    2331c:        02012823        sw x0 48 x2
    23320:        03c10793        addi x15 x2 60
    23324:        0007a703        lw x14 0 x15
    23328:        ffc7a683        lw x13 -4 x15
    2332c:        ffc78793        addi x15 x15 -4
    23330:        00371713        slli x14 x14 3
    23334:        01d6d693        srli x13 x13 29
    23338:        00d76733        or x14 x14 x13
    2333c:        00e7a223        sw x14 4 x15
    23340:        feff92e3        bne x31 x15 -28
    23344:        fe0ff06f        jal x0 -2080
    23348:        40f705b3        sub x11 x14 x15
    2334c:        40c682b3        sub x5 x13 x12
    23350:        00b73fb3        sltu x31 x14 x11
    23354:        0056bf33        sltu x30 x13 x5
    23358:        41f282b3        sub x5 x5 x31
    2335c:        02b12823        sw x11 48 x2
    23360:        02512a23        sw x5 52 x2
    23364:        00000f93        addi x31 x0 0
    23368:        00b77663        bgeu x14 x11 12
    2336c:        40d60fb3        sub x31 x12 x13
    23370:        001fbf93        sltiu x31 x31 1
    23374:        406883b3        sub x7 x17 x6
    23378:        01efefb3        or x31 x31 x30
    2337c:        41f38a33        sub x20 x7 x31
    23380:        03412c23        sw x20 56 x2
    23384:        0078bab3        sltu x21 x17 x7
    23388:        00000993        addi x19 x0 0
    2338c:        000f8463        beq x31 x0 8
    23390:        0013b993        sltiu x19 x7 1
    23394:        41ce8f33        sub x30 x29 x28
    23398:        0159e9b3        or x19 x19 x21
    2339c:        413f0f33        sub x30 x30 x19
    233a0:        03e12e23        sw x30 60 x2
    233a4:        00cf1f93        slli x31 x30 12
    233a8:        0a0fde63        bge x31 x0 188
    233ac:        40e78733        sub x14 x15 x14
    233b0:        40d606b3        sub x13 x12 x13
    233b4:        00e7b5b3        sltu x11 x15 x14
    233b8:        40b685b3        sub x11 x13 x11
    233bc:        02b12a23        sw x11 52 x2
    233c0:        02e12823        sw x14 48 x2
    233c4:        00d63633        sltu x12 x12 x13
    233c8:        00000593        addi x11 x0 0
    233cc:        00e7f463        bgeu x15 x14 8
    233d0:        0016b593        sltiu x11 x13 1
    233d4:        41130733        sub x14 x6 x17
    233d8:        00c5e633        or x12 x11 x12
    233dc:        00e336b3        sltu x13 x6 x14
    233e0:        40c70733        sub x14 x14 x12
    233e4:        02e12c23        sw x14 56 x2
    233e8:        00060463        beq x12 x0 8
    233ec:        0013b513        sltiu x10 x7 1
    233f0:        41de0733        sub x14 x28 x29
    233f4:        00d567b3        or x15 x10 x13
    233f8:        40f707b3        sub x15 x14 x15
    233fc:        02f12e23        sw x15 60 x2
    23400:        00080913        addi x18 x16 0
    23404:        03c12503        lw x10 60 x2
    23408:        06050863        beq x10 x0 112
    2340c:        291000ef        jal x1 2704 <__clzsi2>
    23410:        ff450513        addi x10 x10 -12
    23414:        02000693        addi x13 x0 32
    23418:        02d56833        rem x16 x10 x13
    2341c:        02d547b3        div x15 x10 x13
    23420:        08080863        beq x16 x0 144
    23424:        ffc00713        addi x14 x0 -4
    23428:        03010313        addi x6 x2 48
    2342c:        00279593        slli x11 x15 2
    23430:        410686b3        sub x13 x13 x16
    23434:        02e78733        mul x14 x15 x14
    23438:        00c70713        addi x14 x14 12
    2343c:        00e30733        add x14 x6 x14
    23440:        0ae31063        bne x6 x14 160
    23444:        04010713        addi x14 x2 64
    23448:        00b705b3        add x11 x14 x11
    2344c:        03012703        lw x14 48 x2
    23450:        fff78793        addi x15 x15 -1
    23454:        01071833        sll x16 x14 x16
    23458:        ff05a823        sw x16 -16 x11
    2345c:        fff00693        addi x13 x0 -1
    23460:        0b80006f        jal x0 184
    23464:        0055e5b3        or x11 x11 x5
    23468:        0145e5b3        or x11 x11 x20
    2346c:        01e5e5b3        or x11 x11 x30
    23470:        d2058ae3        beq x11 x0 -716
    23474:        f91ff06f        jal x0 -112
    23478:        03812503        lw x10 56 x2
    2347c:        00050863        beq x10 x0 16
    23480:        21d000ef        jal x1 2588 <__clzsi2>
    23484:        02050513        addi x10 x10 32
    23488:        f89ff06f        jal x0 -120
    2348c:        03412503        lw x10 52 x2
    23490:        00050863        beq x10 x0 16
    23494:        209000ef        jal x1 2568 <__clzsi2>
    23498:        04050513        addi x10 x10 64
    2349c:        f75ff06f        jal x0 -140
    234a0:        03012503        lw x10 48 x2
    234a4:        1f9000ef        jal x1 2552 <__clzsi2>
    234a8:        06050513        addi x10 x10 96
    234ac:        f65ff06f        jal x0 -156
    234b0:        ffc00613        addi x12 x0 -4
    234b4:        02c78633        mul x12 x15 x12
    234b8:        03c10713        addi x14 x2 60
    234bc:        00300693        addi x13 x0 3
    234c0:        00c705b3        add x11 x14 x12
    234c4:        0005a583        lw x11 0 x11
    234c8:        fff68693        addi x13 x13 -1
    234cc:        ffc70713        addi x14 x14 -4
    234d0:        00b72223        sw x11 4 x14
    234d4:        fef6d6e3        bge x13 x15 -20
    234d8:        fff78793        addi x15 x15 -1
    234dc:        f81ff06f        jal x0 -128
    234e0:        ffc72603        lw x12 -4 x14
    234e4:        00072883        lw x17 0 x14
    234e8:        00b70e33        add x28 x14 x11
    234ec:        00d65633        srl x12 x12 x13
    234f0:        010898b3        sll x17 x17 x16
    234f4:        01166633        or x12 x12 x17
    234f8:        00ce2023        sw x12 0 x28
    234fc:        ffc70713        addi x14 x14 -4
    23500:        f41ff06f        jal x0 -192
    23504:        00279713        slli x14 x15 2
    23508:        03010613        addi x12 x2 48
    2350c:        00e60733        add x14 x12 x14
    23510:        00072023        sw x0 0 x14
    23514:        fff78793        addi x15 x15 -1
    23518:        fed796e3        bne x15 x13 -20
    2351c:        12854e63        blt x10 x8 316
    23520:        40850433        sub x8 x10 x8
    23524:        00140413        addi x8 x8 1
    23528:        02000793        addi x15 x0 32
    2352c:        02f44833        div x16 x8 x15
    23530:        00000513        addi x10 x0 0
    23534:        00000713        addi x14 x0 0
    23538:        02f46433        rem x8 x8 x15
    2353c:        05074263        blt x14 x16 68
    23540:        00080693        addi x13 x16 0
    23544:        00085463        bge x16 x0 8
    23548:        00000693        addi x13 x0 0
    2354c:        00281713        slli x14 x16 2
    23550:        04041663        bne x8 x0 76
    23554:        00300793        addi x15 x0 3
    23558:        03010693        addi x13 x2 48
    2355c:        41078833        sub x16 x15 x16
    23560:        00e687b3        add x15 x13 x14
    23564:        0007a783        lw x15 0 x15
    23568:        00140413        addi x8 x8 1
    2356c:        00468693        addi x13 x13 4
    23570:        fef6ae23        sw x15 -4 x13
    23574:        fe8856e3        bge x16 x8 -20
    23578:        00300713        addi x14 x0 3
    2357c:        0c00006f        jal x0 192
    23580:        00271793        slli x15 x14 2
    23584:        03010693        addi x13 x2 48
    23588:        00f687b3        add x15 x13 x15
    2358c:        0007a783        lw x15 0 x15
    23590:        00170713        addi x14 x14 1
    23594:        00f56533        or x10 x10 x15
    23598:        fa5ff06f        jal x0 -92
    2359c:        04010793        addi x15 x2 64
    235a0:        00269693        slli x13 x13 2
    235a4:        00d786b3        add x13 x15 x13
    235a8:        ff06a783        lw x15 -16 x13
    235ac:        02000593        addi x11 x0 32
    235b0:        408585b3        sub x11 x11 x8
    235b4:        00b797b3        sll x15 x15 x11
    235b8:        00f56533        or x10 x10 x15
    235bc:        03010793        addi x15 x2 48
    235c0:        00e78733        add x14 x15 x14
    235c4:        00300793        addi x15 x0 3
    235c8:        00000613        addi x12 x0 0
    235cc:        410787b3        sub x15 x15 x16
    235d0:        00470713        addi x14 x14 4
    235d4:        02f64463        blt x12 x15 40
    235d8:        04010713        addi x14 x2 64
    235dc:        00279793        slli x15 x15 2
    235e0:        00f707b3        add x15 x14 x15
    235e4:        03c12703        lw x14 60 x2
    235e8:        00875433        srl x8 x14 x8
    235ec:        fe87a823        sw x8 -16 x15
    235f0:        00400413        addi x8 x0 4
    235f4:        41040433        sub x8 x8 x16
    235f8:        f81ff06f        jal x0 -128
    235fc:        00261893        slli x17 x12 2
    23600:        03010693        addi x13 x2 48
    23604:        011688b3        add x17 x13 x17
    23608:        00072303        lw x6 0 x14
    2360c:        ffc72683        lw x13 -4 x14
    23610:        00160613        addi x12 x12 1
    23614:        00b31333        sll x6 x6 x11
    23618:        0086d6b3        srl x13 x13 x8
    2361c:        0066e6b3        or x13 x13 x6
    23620:        00d8a023        sw x13 0 x17
    23624:        fadff06f        jal x0 -84
    23628:        00241793        slli x15 x8 2
    2362c:        03010693        addi x13 x2 48
    23630:        00f687b3        add x15 x13 x15
    23634:        0007a023        sw x0 0 x15
    23638:        00140413        addi x8 x8 1
    2363c:        fe8756e3        bge x14 x8 -20
    23640:        03012703        lw x14 48 x2
    23644:        00a037b3        sltu x15 x0 x10
    23648:        00000413        addi x8 x0 0
    2364c:        00f767b3        or x15 x14 x15
    23650:        02f12823        sw x15 48 x2
    23654:        fa9fe06f        jal x0 -4184
    23658:        03c12783        lw x15 60 x2
    2365c:        fff80737        lui x14 0xfff80
    23660:        fff70713        addi x14 x14 -1
    23664:        40a40433        sub x8 x8 x10
    23668:        00e7f7b3        and x15 x15 x14
    2366c:        d35fe06f        jal x0 -4812
    23670:        02012e23        sw x0 60 x2
    23674:        02012c23        sw x0 56 x2
    23678:        02012a23        sw x0 52 x2
    2367c:        02012823        sw x0 48 x2
    23680:        ffdfe06f        jal x0 -4100

00023684 <__fixtfsi>:
    23684:        00c52703        lw x14 12 x10
    23688:        00852783        lw x15 8 x10
    2368c:        00452683        lw x13 4 x10
    23690:        00052603        lw x12 0 x10
    23694:        fe010113        addi x2 x2 -32
    23698:        00f12423        sw x15 8 x2
    2369c:        00e12623        sw x14 12 x2
    236a0:        00f12c23        sw x15 24 x2
    236a4:        01071593        slli x11 x14 16
    236a8:        00171793        slli x15 x14 1
    236ac:        01f75813        srli x16 x14 31
    236b0:        00004737        lui x14 0x4
    236b4:        00d12223        sw x13 4 x2
    236b8:        00d12a23        sw x13 20 x2
    236bc:        00c12023        sw x12 0 x2
    236c0:        0117d693        srli x13 x15 17
    236c4:        00c12823        sw x12 16 x2
    236c8:        ffe70793        addi x15 x14 -2
    236cc:        00000513        addi x10 x0 0
    236d0:        00d7dc63        bge x15 x13 24
    236d4:        01d70793        addi x15 x14 29
    236d8:        00d7dc63        bge x15 x13 24
    236dc:        80000537        lui x10 0x80000
    236e0:        fff54513        xori x10 x10 -1
    236e4:        00a80533        add x10 x16 x10
    236e8:        02010113        addi x2 x2 32
    236ec:        00008067        jalr x0 x1 0
    236f0:        000107b7        lui x15 0x10
    236f4:        0105d593        srli x11 x11 16
    236f8:        00f5e5b3        or x11 x11 x15
    236fc:        06f70793        addi x15 x14 111
    23700:        40d787b3        sub x15 x15 x13
    23704:        4057d713        srai x14 x15 5
    23708:        00b12e23        sw x11 28 x2
    2370c:        01f7f793        andi x15 x15 31
    23710:        08079863        bne x15 x0 144
    23714:        00271793        slli x15 x14 2
    23718:        02010693        addi x13 x2 32
    2371c:        00f687b3        add x15 x13 x15
    23720:        ff07a783        lw x15 -16 x15
    23724:        00200613        addi x12 x0 2
    23728:        00f12823        sw x15 16 x2
    2372c:        00200793        addi x15 x0 2
    23730:        00e78463        beq x15 x14 8
    23734:        00100613        addi x12 x0 1
    23738:        00400713        addi x14 x0 4
    2373c:        00261793        slli x15 x12 2
    23740:        01010693        addi x13 x2 16
    23744:        00f687b3        add x15 x13 x15
    23748:        0007a023        sw x0 0 x15
    2374c:        00160613        addi x12 x12 1
    23750:        fee616e3        bne x12 x14 -20
    23754:        01012503        lw x10 16 x2
    23758:        f80808e3        beq x16 x0 -112
    2375c:        40a00533        sub x10 x0 x10
    23760:        f89ff06f        jal x0 -120
    23764:        ff062683        lw x13 -16 x12
    23768:        ff072303        lw x6 -16 x14
    2376c:        011696b3        sll x13 x13 x17
    23770:        00f35333        srl x6 x6 x15
    23774:        0066e6b3        or x13 x13 x6
    23778:        00d12823        sw x13 16 x2
    2377c:        00100693        addi x13 x0 1
    23780:        fea6c2e3        blt x13 x10 -28
    23784:        00168613        addi x12 x13 1
    23788:        02010713        addi x14 x2 32
    2378c:        00269693        slli x13 x13 2
    23790:        00d706b3        add x13 x14 x13
    23794:        00f5d7b3        srl x15 x11 x15
    23798:        fef6a823        sw x15 -16 x13
    2379c:        f9dff06f        jal x0 -100
    237a0:        00170613        addi x12 x14 1
    237a4:        02010893        addi x17 x2 32
    237a8:        00300513        addi x10 x0 3
    237ac:        00261613        slli x12 x12 2
    237b0:        40e50533        sub x10 x10 x14
    237b4:        00c88633        add x12 x17 x12
    237b8:        00271713        slli x14 x14 2
    237bc:        02000893        addi x17 x0 32
    237c0:        02010313        addi x6 x2 32
    237c4:        00000693        addi x13 x0 0
    237c8:        40f888b3        sub x17 x17 x15
    237cc:        00e30733        add x14 x6 x14
    237d0:        fb1ff06f        jal x0 -80

000237d4 <__floatsitf>:
    237d4:        fd010113        addi x2 x2 -48
    237d8:        02912223        sw x9 36 x2
    237dc:        02112623        sw x1 44 x2
    237e0:        02812423        sw x8 40 x2
    237e4:        03212023        sw x18 32 x2
    237e8:        00050493        addi x9 x10 0
    237ec:        14058c63        beq x11 x0 344
    237f0:        41f5d793        srai x15 x11 31
    237f4:        00b7c433        xor x8 x15 x11
    237f8:        40f40433        sub x8 x8 x15
    237fc:        00040513        addi x10 x8 0
    23800:        01f5d913        srli x18 x11 31
    23804:        698000ef        jal x1 1688 <__clzsi2>
    23808:        000045b7        lui x11 0x4
    2380c:        01e58593        addi x11 x11 30
    23810:        40a585b3        sub x11 x11 x10
    23814:        05150513        addi x10 x10 81
    23818:        00812823        sw x8 16 x2
    2381c:        00012a23        sw x0 20 x2
    23820:        00012c23        sw x0 24 x2
    23824:        00012e23        sw x0 28 x2
    23828:        01f57693        andi x13 x10 31
    2382c:        04068063        beq x13 x0 64
    23830:        05f00713        addi x14 x0 95
    23834:        00300793        addi x15 x0 3
    23838:        00a74c63        blt x14 x10 24
    2383c:        02000793        addi x15 x0 32
    23840:        40d787b3        sub x15 x15 x13
    23844:        00f457b3        srl x15 x8 x15
    23848:        00f12e23        sw x15 28 x2
    2384c:        00200793        addi x15 x0 2
    23850:        fff78713        addi x14 x15 -1
    23854:        02010613        addi x12 x2 32
    23858:        00279793        slli x15 x15 2
    2385c:        00f607b3        add x15 x12 x15
    23860:        00d41433        sll x8 x8 x13
    23864:        fe87a823        sw x8 -16 x15
    23868:        0500006f        jal x0 80
    2386c:        40555693        srai x13 x10 5
    23870:        00300713        addi x14 x0 3
    23874:        40d70733        sub x14 x14 x13
    23878:        02010793        addi x15 x2 32
    2387c:        00271713        slli x14 x14 2
    23880:        00e78733        add x14 x15 x14
    23884:        ff072783        lw x15 -16 x14
    23888:        00200713        addi x14 x0 2
    2388c:        00f12e23        sw x15 28 x2
    23890:        05f00793        addi x15 x0 95
    23894:        02a7c263        blt x15 x10 36
    23898:        00200793        addi x15 x0 2
    2389c:        40d787b3        sub x15 x15 x13
    238a0:        02010713        addi x14 x2 32
    238a4:        00279793        slli x15 x15 2
    238a8:        00f707b3        add x15 x14 x15
    238ac:        ff07a783        lw x15 -16 x15
    238b0:        00100713        addi x14 x0 1
    238b4:        00f12c23        sw x15 24 x2
    238b8:        fff00693        addi x13 x0 -1
    238bc:        00271793        slli x15 x14 2
    238c0:        01010613        addi x12 x2 16
    238c4:        00f607b3        add x15 x12 x15
    238c8:        0007a023        sw x0 0 x15
    238cc:        fff70713        addi x14 x14 -1
    238d0:        fed716e3        bne x14 x13 -20
    238d4:        01c12783        lw x15 28 x2
    238d8:        01159593        slli x11 x11 17
    238dc:        80010737        lui x14 0x80010
    238e0:        00f11623        sh x15 12 x2
    238e4:        00c12783        lw x15 12 x2
    238e8:        0115d593        srli x11 x11 17
    238ec:        fff70713        addi x14 x14 -1
    238f0:        00e7f7b3        and x15 x15 x14
    238f4:        01059593        slli x11 x11 16
    238f8:        00b7e5b3        or x11 x15 x11
    238fc:        01012783        lw x15 16 x2
    23900:        00159593        slli x11 x11 1
    23904:        01f91913        slli x18 x18 31
    23908:        00f4a023        sw x15 0 x9
    2390c:        01412783        lw x15 20 x2
    23910:        02c12083        lw x1 44 x2
    23914:        02812403        lw x8 40 x2
    23918:        00f4a223        sw x15 4 x9
    2391c:        01812783        lw x15 24 x2
    23920:        0015d593        srli x11 x11 1
    23924:        0125e5b3        or x11 x11 x18
    23928:        00f4a423        sw x15 8 x9
    2392c:        00b4a623        sw x11 12 x9
    23930:        00048513        addi x10 x9 0
    23934:        02012903        lw x18 32 x2
    23938:        02412483        lw x9 36 x2
    2393c:        03010113        addi x2 x2 48
    23940:        00008067        jalr x0 x1 0
    23944:        00012e23        sw x0 28 x2
    23948:        00012c23        sw x0 24 x2
    2394c:        00012a23        sw x0 20 x2
    23950:        00012823        sw x0 16 x2
    23954:        00000913        addi x18 x0 0
    23958:        f7dff06f        jal x0 -132

0002395c <__extenddftf2>:
    2395c:        01465793        srli x15 x12 20
    23960:        00c61713        slli x14 x12 12
    23964:        7ff7f793        andi x15 x15 2047
    23968:        fd010113        addi x2 x2 -48
    2396c:        00c75713        srli x14 x14 12
    23970:        00178693        addi x13 x15 1
    23974:        02812423        sw x8 40 x2
    23978:        02912223        sw x9 36 x2
    2397c:        02112623        sw x1 44 x2
    23980:        00b12823        sw x11 16 x2
    23984:        00e12a23        sw x14 20 x2
    23988:        00012e23        sw x0 28 x2
    2398c:        00012c23        sw x0 24 x2
    23990:        7fe6f693        andi x13 x13 2046
    23994:        00050493        addi x9 x10 0
    23998:        01f65413        srli x8 x12 31
    2399c:        0a068063        beq x13 x0 160
    239a0:        000046b7        lui x13 0x4
    239a4:        c0068693        addi x13 x13 -1024
    239a8:        0045d513        srli x10 x11 4
    239ac:        00d787b3        add x15 x15 x13
    239b0:        00475693        srli x13 x14 4
    239b4:        01c71713        slli x14 x14 28
    239b8:        00a76733        or x14 x14 x10
    239bc:        01c59593        slli x11 x11 28
    239c0:        00d12e23        sw x13 28 x2
    239c4:        00e12c23        sw x14 24 x2
    239c8:        00b12a23        sw x11 20 x2
    239cc:        00012823        sw x0 16 x2
    239d0:        01c12703        lw x14 28 x2
    239d4:        01179793        slli x15 x15 17
    239d8:        800106b7        lui x13 0x80010
    239dc:        00e11623        sh x14 12 x2
    239e0:        00c12703        lw x14 12 x2
    239e4:        0117d793        srli x15 x15 17
    239e8:        fff68693        addi x13 x13 -1
    239ec:        00d77733        and x14 x14 x13
    239f0:        01079793        slli x15 x15 16
    239f4:        00f767b3        or x15 x14 x15
    239f8:        01012703        lw x14 16 x2
    239fc:        00179793        slli x15 x15 1
    23a00:        01f41413        slli x8 x8 31
    23a04:        00e4a023        sw x14 0 x9
    23a08:        01412703        lw x14 20 x2
    23a0c:        0017d793        srli x15 x15 1
    23a10:        0087e7b3        or x15 x15 x8
    23a14:        00e4a223        sw x14 4 x9
    23a18:        01812703        lw x14 24 x2
    23a1c:        02c12083        lw x1 44 x2
    23a20:        02812403        lw x8 40 x2
    23a24:        00e4a423        sw x14 8 x9
    23a28:        00f4a623        sw x15 12 x9
    23a2c:        00048513        addi x10 x9 0
    23a30:        02412483        lw x9 36 x2
    23a34:        03010113        addi x2 x2 48
    23a38:        00008067        jalr x0 x1 0
    23a3c:        00b76533        or x10 x14 x11
    23a40:        0e079663        bne x15 x0 236
    23a44:        f80506e3        beq x10 x0 -116
    23a48:        04070e63        beq x14 x0 92
    23a4c:        00070513        addi x10 x14 0
    23a50:        44c000ef        jal x1 1100 <__clzsi2>
    23a54:        03150613        addi x12 x10 49
    23a58:        40565713        srai x14 x12 5
    23a5c:        01f67613        andi x12 x12 31
    23a60:        04060863        beq x12 x0 80
    23a64:        ffc00693        addi x13 x0 -4
    23a68:        02d706b3        mul x13 x14 x13
    23a6c:        01010313        addi x6 x2 16
    23a70:        02000793        addi x15 x0 32
    23a74:        00271813        slli x16 x14 2
    23a78:        40c787b3        sub x15 x15 x12
    23a7c:        00c68693        addi x13 x13 12
    23a80:        00d306b3        add x13 x6 x13
    23a84:        08d31263        bne x6 x13 132
    23a88:        02010793        addi x15 x2 32
    23a8c:        01078833        add x16 x15 x16
    23a90:        01012783        lw x15 16 x2
    23a94:        fff70713        addi x14 x14 -1
    23a98:        00c79633        sll x12 x15 x12
    23a9c:        fec82823        sw x12 -16 x16
    23aa0:        03c0006f        jal x0 60
    23aa4:        3f8000ef        jal x1 1016 <__clzsi2>
    23aa8:        02050513        addi x10 x10 32
    23aac:        fa9ff06f        jal x0 -88
    23ab0:        ffc00613        addi x12 x0 -4
    23ab4:        02c70633        mul x12 x14 x12
    23ab8:        01c10693        addi x13 x2 28
    23abc:        00300793        addi x15 x0 3
    23ac0:        00c685b3        add x11 x13 x12
    23ac4:        0005a583        lw x11 0 x11
    23ac8:        fff78793        addi x15 x15 -1
    23acc:        ffc68693        addi x13 x13 -4
    23ad0:        00b6a223        sw x11 4 x13
    23ad4:        fee7d6e3        bge x15 x14 -20
    23ad8:        fff70713        addi x14 x14 -1
    23adc:        fff00693        addi x13 x0 -1
    23ae0:        00271793        slli x15 x14 2
    23ae4:        01010613        addi x12 x2 16
    23ae8:        00f607b3        add x15 x12 x15
    23aec:        0007a023        sw x0 0 x15
    23af0:        fff70713        addi x14 x14 -1
    23af4:        fed716e3        bne x14 x13 -20
    23af8:        000047b7        lui x15 0x4
    23afc:        c0c78793        addi x15 x15 -1012
    23b00:        40a787b3        sub x15 x15 x10
    23b04:        ecdff06f        jal x0 -308
    23b08:        ffc6a583        lw x11 -4 x13
    23b0c:        0006a883        lw x17 0 x13
    23b10:        01068e33        add x28 x13 x16
    23b14:        00f5d5b3        srl x11 x11 x15
    23b18:        00c898b3        sll x17 x17 x12
    23b1c:        0115e5b3        or x11 x11 x17
    23b20:        00be2023        sw x11 0 x28
    23b24:        ffc68693        addi x13 x13 -4
    23b28:        f5dff06f        jal x0 -164
    23b2c:        000087b7        lui x15 0x8
    23b30:        02050863        beq x10 x0 48
    23b34:        01c71793        slli x15 x14 28
    23b38:        0045d693        srli x13 x11 4
    23b3c:        00d7e7b3        or x15 x15 x13
    23b40:        00f12c23        sw x15 24 x2
    23b44:        00475713        srli x14 x14 4
    23b48:        000087b7        lui x15 0x8
    23b4c:        01c59593        slli x11 x11 28
    23b50:        00f76733        or x14 x14 x15
    23b54:        00b12a23        sw x11 20 x2
    23b58:        00012823        sw x0 16 x2
    23b5c:        00e12e23        sw x14 28 x2
    23b60:        fff78793        addi x15 x15 -1
    23b64:        e6dff06f        jal x0 -404

00023b68 <__trunctfdf2>:
    23b68:        00c52583        lw x11 12 x10
    23b6c:        00852783        lw x15 8 x10
    23b70:        00452703        lw x14 4 x10
    23b74:        fe010113        addi x2 x2 -32
    23b78:        00052683        lw x13 0 x10
    23b7c:        00f12423        sw x15 8 x2
    23b80:        00f12c23        sw x15 24 x2
    23b84:        01059793        slli x15 x11 16
    23b88:        00e12223        sw x14 4 x2
    23b8c:        00e12a23        sw x14 20 x2
    23b90:        0107d793        srli x15 x15 16
    23b94:        00159713        slli x14 x11 1
    23b98:        00b12623        sw x11 12 x2
    23b9c:        00d12023        sw x13 0 x2
    23ba0:        00d12823        sw x13 16 x2
    23ba4:        00f12e23        sw x15 28 x2
    23ba8:        01175713        srli x14 x14 17
    23bac:        01f5d593        srli x11 x11 31
    23bb0:        01010313        addi x6 x2 16
    23bb4:        01c10613        addi x12 x2 28
    23bb8:        00062783        lw x15 0 x12
    23bbc:        ffc62683        lw x13 -4 x12
    23bc0:        ffc60613        addi x12 x12 -4
    23bc4:        00379793        slli x15 x15 3
    23bc8:        01d6d693        srli x13 x13 29
    23bcc:        00d7e7b3        or x15 x15 x13
    23bd0:        00f62223        sw x15 4 x12
    23bd4:        fec312e3        bne x6 x12 -28
    23bd8:        01012683        lw x13 16 x2
    23bdc:        00170793        addi x15 x14 1
    23be0:        00369513        slli x10 x13 3
    23be4:        000086b7        lui x13 0x8
    23be8:        ffe68693        addi x13 x13 -2
    23bec:        00a12823        sw x10 16 x2
    23bf0:        00d7f7b3        and x15 x15 x13
    23bf4:        1a078a63        beq x15 x0 436
    23bf8:        ffffc7b7        lui x15 0xffffc
    23bfc:        40078793        addi x15 x15 1024
    23c00:        00f70733        add x14 x14 x15
    23c04:        7fe00793        addi x15 x0 2046
    23c08:        1ee7cc63        blt x15 x14 504
    23c0c:        06e05863        bge x0 x14 112
    23c10:        01812803        lw x16 24 x2
    23c14:        01c12603        lw x12 28 x2
    23c18:        01412783        lw x15 20 x2
    23c1c:        01c85693        srli x13 x16 28
    23c20:        00461613        slli x12 x12 4
    23c24:        00d66633        or x12 x12 x13
    23c28:        00479693        slli x13 x15 4
    23c2c:        00a6e6b3        or x13 x13 x10
    23c30:        01c7d793        srli x15 x15 28
    23c34:        00481813        slli x16 x16 4
    23c38:        00d036b3        sltu x13 x0 x13
    23c3c:        0107e7b3        or x15 x15 x16
    23c40:        00f6e6b3        or x13 x13 x15
    23c44:        00c12a23        sw x12 20 x2
    23c48:        00d12823        sw x13 16 x2
    23c4c:        01012683        lw x13 16 x2
    23c50:        01412783        lw x15 20 x2
    23c54:        0076f613        andi x12 x13 7
    23c58:        1a060a63        beq x12 x0 436
    23c5c:        00f6f613        andi x12 x13 15
    23c60:        00400513        addi x10 x0 4
    23c64:        1aa60463        beq x12 x10 424
    23c68:        00468613        addi x12 x13 4
    23c6c:        00d636b3        sltu x13 x12 x13
    23c70:        00d787b3        add x15 x15 x13
    23c74:        00060693        addi x13 x12 0
    23c78:        1940006f        jal x0 404
    23c7c:        fcc00793        addi x15 x0 -52
    23c80:        00f75c63        bge x14 x15 24
    23c84:        00012a23        sw x0 20 x2
    23c88:        00100793        addi x15 x0 1
    23c8c:        00f12823        sw x15 16 x2
    23c90:        00000713        addi x14 x0 0
    23c94:        fb9ff06f        jal x0 -72
    23c98:        01c12783        lw x15 28 x2
    23c9c:        000806b7        lui x13 0x80
    23ca0:        00000e13        addi x28 x0 0
    23ca4:        00d7e7b3        or x15 x15 x13
    23ca8:        00f12e23        sw x15 28 x2
    23cac:        03d00793        addi x15 x0 61
    23cb0:        40e78733        sub x14 x15 x14
    23cb4:        40575513        srai x10 x14 5
    23cb8:        00030693        addi x13 x6 0
    23cbc:        01f77713        andi x14 x14 31
    23cc0:        00000793        addi x15 x0 0
    23cc4:        0006a803        lw x16 0 x13
    23cc8:        00178793        addi x15 x15 1
    23ccc:        00468693        addi x13 x13 4
    23cd0:        010e6e33        or x28 x28 x16
    23cd4:        fef518e3        bne x10 x15 -16
    23cd8:        00251693        slli x13 x10 2
    23cdc:        04071663        bne x14 x0 76
    23ce0:        00300793        addi x15 x0 3
    23ce4:        40a78533        sub x10 x15 x10
    23ce8:        00d607b3        add x15 x12 x13
    23cec:        0007a783        lw x15 0 x15
    23cf0:        00170713        addi x14 x14 1
    23cf4:        00460613        addi x12 x12 4
    23cf8:        fef62e23        sw x15 -4 x12
    23cfc:        fee556e3        bge x10 x14 -20
    23d00:        00400693        addi x13 x0 4
    23d04:        00271793        slli x15 x14 2
    23d08:        00f307b3        add x15 x6 x15
    23d0c:        0007a023        sw x0 0 x15
    23d10:        00170713        addi x14 x14 1
    23d14:        fed718e3        bne x14 x13 -16
    23d18:        01012703        lw x14 16 x2
    23d1c:        01c037b3        sltu x15 x0 x28
    23d20:        00f767b3        or x15 x14 x15
    23d24:        f69ff06f        jal x0 -152
    23d28:        02010793        addi x15 x2 32
    23d2c:        00d787b3        add x15 x15 x13
    23d30:        ff07a783        lw x15 -16 x15
    23d34:        02000893        addi x17 x0 32
    23d38:        40e888b3        sub x17 x17 x14
    23d3c:        011797b3        sll x15 x15 x17
    23d40:        00fe6e33        or x28 x28 x15
    23d44:        00300793        addi x15 x0 3
    23d48:        00d306b3        add x13 x6 x13
    23d4c:        00000813        addi x16 x0 0
    23d50:        40a787b3        sub x15 x15 x10
    23d54:        00468693        addi x13 x13 4
    23d58:        02f84463        blt x16 x15 40
    23d5c:        02010693        addi x13 x2 32
    23d60:        00279793        slli x15 x15 2
    23d64:        00f687b3        add x15 x13 x15
    23d68:        01c12683        lw x13 28 x2
    23d6c:        00e6d733        srl x14 x13 x14
    23d70:        fee7a823        sw x14 -16 x15
    23d74:        00400713        addi x14 x0 4
    23d78:        40a70733        sub x14 x14 x10
    23d7c:        f85ff06f        jal x0 -124
    23d80:        ffc6a603        lw x12 -4 x13
    23d84:        0006af03        lw x30 0 x13
    23d88:        00281e93        slli x29 x16 2
    23d8c:        00e65633        srl x12 x12 x14
    23d90:        011f1f33        sll x30 x30 x17
    23d94:        01d30eb3        add x29 x6 x29
    23d98:        01e66633        or x12 x12 x30
    23d9c:        00cea023        sw x12 0 x29
    23da0:        00180813        addi x16 x16 1
    23da4:        fb1ff06f        jal x0 -80
    23da8:        01412603        lw x12 20 x2
    23dac:        01812783        lw x15 24 x2
    23db0:        01c12803        lw x16 28 x2
    23db4:        00f666b3        or x13 x12 x15
    23db8:        0106e6b3        or x13 x13 x16
    23dbc:        00a6e6b3        or x13 x13 x10
    23dc0:        00071863        bne x14 x0 16
    23dc4:        00d036b3        sltu x13 x0 x13
    23dc8:        00000793        addi x15 x0 0
    23dcc:        e89ff06f        jal x0 -376
    23dd0:        0a068c63        beq x13 x0 184
    23dd4:        01c65693        srli x13 x12 28
    23dd8:        00481813        slli x16 x16 4
    23ddc:        00479613        slli x12 x15 4
    23de0:        01c7d793        srli x15 x15 28
    23de4:        00400737        lui x14 0x400
    23de8:        00c6e6b3        or x13 x13 x12
    23dec:        0107e7b3        or x15 x15 x16
    23df0:        00e7e7b3        or x15 x15 x14
    23df4:        ff86f693        andi x13 x13 -8
    23df8:        7ff00713        addi x14 x0 2047
    23dfc:        e59ff06f        jal x0 -424
    23e00:        00000793        addi x15 x0 0
    23e04:        00000693        addi x13 x0 0
    23e08:        7ff00713        addi x14 x0 2047
    23e0c:        00879613        slli x12 x15 8
    23e10:        00065e63        bge x12 x0 28
    23e14:        00170713        addi x14 x14 1
    23e18:        7ff00613        addi x12 x0 2047
    23e1c:        06c70a63        beq x14 x12 116
    23e20:        ff800637        lui x12 0xff800
    23e24:        fff60613        addi x12 x12 -1
    23e28:        00c7f7b3        and x15 x15 x12
    23e2c:        01d79613        slli x12 x15 29
    23e30:        0036d693        srli x13 x13 3
    23e34:        00d666b3        or x13 x12 x13
    23e38:        7ff00613        addi x12 x0 2047
    23e3c:        0037d793        srli x15 x15 3
    23e40:        00c71e63        bne x14 x12 28
    23e44:        00f6e6b3        or x13 x13 x15
    23e48:        00000793        addi x15 x0 0
    23e4c:        00068863        beq x13 x0 16
    23e50:        000807b7        lui x15 0x80
    23e54:        00000693        addi x13 x0 0
    23e58:        00000593        addi x11 x0 0
    23e5c:        00c79793        slli x15 x15 12
    23e60:        7ff77713        andi x14 x14 2047
    23e64:        01471713        slli x14 x14 20
    23e68:        00c7d793        srli x15 x15 12
    23e6c:        01f59593        slli x11 x11 31
    23e70:        00e7e7b3        or x15 x15 x14
    23e74:        00b7e733        or x14 x15 x11
    23e78:        00068513        addi x10 x13 0
    23e7c:        00070593        addi x11 x14 0
    23e80:        02010113        addi x2 x2 32
    23e84:        00008067        jalr x0 x1 0
    23e88:        00000793        addi x15 x0 0
    23e8c:        f7dff06f        jal x0 -132
    23e90:        00000793        addi x15 x0 0
    23e94:        00000693        addi x13 x0 0
    23e98:        f95ff06f        jal x0 -108

00023e9c <__clzsi2>:
    23e9c:        000107b7        lui x15 0x10
    23ea0:        02f57a63        bgeu x10 x15 52
    23ea4:        0ff00793        addi x15 x0 255
    23ea8:        00a7b7b3        sltu x15 x15 x10
    23eac:        00379793        slli x15 x15 3
    23eb0:        02000713        addi x14 x0 32
    23eb4:        40f70733        sub x14 x14 x15
    23eb8:        00f557b3        srl x15 x10 x15
    23ebc:        00001517        auipc x10 0x1
    23ec0:        c1850513        addi x10 x10 -1000
    23ec4:        00f507b3        add x15 x10 x15
    23ec8:        0007c503        lbu x10 0 x15
    23ecc:        40a70533        sub x10 x14 x10
    23ed0:        00008067        jalr x0 x1 0
    23ed4:        01000737        lui x14 0x1000
    23ed8:        01000793        addi x15 x0 16
    23edc:        fce56ae3        bltu x10 x14 -44
    23ee0:        01800793        addi x15 x0 24
    23ee4:        fcdff06f        jal x0 -52
